; Listing generated by Microsoft (R) Optimizing Compiler Version 19.29.30133.0 

	TITLE	j:\work\aes\aes\aes\release\aes.obj
	.686P
	.XMM
	include listing.inc
	.model	flat

INCLUDELIB OLDNAMES

PUBLIC	??_C@_1O@ENKDEAMH@?$AAM?$AAy?$AA?5?$AAA?$AAE?$AAS@ ; `string'
PUBLIC	??_R2CAESApp@@8					; CAESApp::`RTTI Base Class Array'
PUBLIC	??_R2CWinApp@@8					; CWinApp::`RTTI Base Class Array'
PUBLIC	??_R2CWinThread@@8				; CWinThread::`RTTI Base Class Array'
PUBLIC	??_R1A@?0A@EA@CAESApp@@8			; CAESApp::`RTTI Base Class Descriptor at (0,-1,0,64)'
PUBLIC	??_R1A@?0A@EA@CWinApp@@8			; CWinApp::`RTTI Base Class Descriptor at (0,-1,0,64)'
PUBLIC	??_R0?AVCCmdTarget@@@8				; CCmdTarget `RTTI Type Descriptor'
PUBLIC	??_R2CCmdTarget@@8				; CCmdTarget::`RTTI Base Class Array'
PUBLIC	??_R3CCmdTarget@@8				; CCmdTarget::`RTTI Class Hierarchy Descriptor'
PUBLIC	??_R1A@?0A@EA@CCmdTarget@@8			; CCmdTarget::`RTTI Base Class Descriptor at (0,-1,0,64)'
PUBLIC	??_R1A@?0A@EA@CWinThread@@8			; CWinThread::`RTTI Base Class Descriptor at (0,-1,0,64)'
PUBLIC	??_R3CWinApp@@8					; CWinApp::`RTTI Class Hierarchy Descriptor'
PUBLIC	??_R0?AVCWinApp@@@8				; CWinApp `RTTI Type Descriptor'
PUBLIC	??_R3CWinThread@@8				; CWinThread::`RTTI Class Hierarchy Descriptor'
PUBLIC	??_R0?AVCWinThread@@@8				; CWinThread `RTTI Type Descriptor'
PUBLIC	??_R3CAESApp@@8					; CAESApp::`RTTI Class Hierarchy Descriptor'
PUBLIC	??_R0?AVCAESApp@@@8				; CAESApp `RTTI Type Descriptor'
PUBLIC	??_R4CAESApp@@6B@				; CAESApp::`RTTI Complete Object Locator'
PUBLIC	??_R0?AVCBrush@@@8				; CBrush `RTTI Type Descriptor'
PUBLIC	??_R1A@?0A@EA@CBrush@@8				; CBrush::`RTTI Base Class Descriptor at (0,-1,0,64)'
PUBLIC	??_R2CBrush@@8					; CBrush::`RTTI Base Class Array'
PUBLIC	??_R3CBrush@@8					; CBrush::`RTTI Class Hierarchy Descriptor'
PUBLIC	??_R4CBrush@@6B@				; CBrush::`RTTI Complete Object Locator'
PUBLIC	??_7CBrush@@6B@					; CBrush::`vftable'
PUBLIC	??_R0?AVCGdiObject@@@8				; CGdiObject `RTTI Type Descriptor'
PUBLIC	??_R1A@?0A@EA@CGdiObject@@8			; CGdiObject::`RTTI Base Class Descriptor at (0,-1,0,64)'
PUBLIC	??_R0?AVCObject@@@8				; CObject `RTTI Type Descriptor'
PUBLIC	??_R2CObject@@8					; CObject::`RTTI Base Class Array'
PUBLIC	??_R3CObject@@8					; CObject::`RTTI Class Hierarchy Descriptor'
PUBLIC	??_R1A@?0A@EA@CObject@@8			; CObject::`RTTI Base Class Descriptor at (0,-1,0,64)'
PUBLIC	??_R2CGdiObject@@8				; CGdiObject::`RTTI Base Class Array'
PUBLIC	??_R3CGdiObject@@8				; CGdiObject::`RTTI Class Hierarchy Descriptor'
PUBLIC	??_R4CGdiObject@@6B@				; CGdiObject::`RTTI Complete Object Locator'
PUBLIC	??_7CGdiObject@@6B@				; CGdiObject::`vftable'
PUBLIC	??_R0PAVCException@@@8				; CException * `RTTI Type Descriptor'
PUBLIC	??_C@_1CC@GGIAOFGJ@?$AA?$CF?$AAT?$AAs?$AA?5?$AA?$CI?$AA?$CF?$AAT?$AAs?$AA?3?$AA?$CF?$AAd?$AA?$CJ?$AA?6?$AA?$CF?$AAT@ ; `string'
PUBLIC	?_OptionsStorage@?1??__local_stdio_printf_options@@9@4_KA ; `__local_stdio_printf_options'::`2'::_OptionsStorage
PUBLIC	??_C@_1OI@LMJNNHBI@?$AAC?$AA?3?$AA?2?$AAP?$AAr?$AAo?$AAg?$AAr?$AAa?$AAm?$AA?5?$AAF?$AAi?$AAl?$AAe@ ; `string'
PUBLIC	??_C@_1DO@DFDGGJKE@?$AAE?$AAx?$AAc?$AAe?$AAp?$AAt?$AAi?$AAo?$AAn?$AA?5?$AAt?$AAh?$AAr?$AAo?$AAw@ ; `string'
PUBLIC	??_C@_1BK@CAEGKIAC@?$AA?$CF?$AAT?$AAs?$AA?5?$AA?$CI?$AA?$CF?$AAT?$AAs?$AA?3?$AA?$CF?$AAd?$AA?$CJ@ ; `string'
PUBLIC	??_7CAESApp@@6B@				; CAESApp::`vftable'
EXTRN	?LoadSysPolicies@CWinApp@@UAEHXZ:PROC		; CWinApp::LoadSysPolicies
EXTRN	?LoadAppLangResourceDLL@CWinApp@@UAEPAUHINSTANCE__@@XZ:PROC ; CWinApp::LoadAppLangResourceDLL
EXTRN	?RestartInstance@CWinApp@@UAEHXZ:PROC		; CWinApp::RestartInstance
EXTRN	?IsTaskbarInteractionEnabled@CWinApp@@UAEHXZ:PROC ; CWinApp::IsTaskbarInteractionEnabled
EXTRN	?GetDataRecoveryHandler@CWinApp@@UAEPAVCDataRecoveryHandler@@XZ:PROC ; CWinApp::GetDataRecoveryHandler
EXTRN	?ApplicationRecoveryCallback@CWinApp@@UAEKPAX@Z:PROC ; CWinApp::ApplicationRecoveryCallback
EXTRN	?RegisterWithRestartManager@CWinApp@@UAEJHABV?$CStringT@_WV?$StrTraitMFC@_WV?$ChTraitsCRT@_W@ATL@@@@@ATL@@@Z:PROC ; CWinApp::RegisterWithRestartManager
EXTRN	?RegisterWithRestartManager@CWinApp@@UAEJPB_WKP6GKPAX@Z1KK@Z:PROC ; CWinApp::RegisterWithRestartManager
EXTRN	?WinHelpInternal@CWinApp@@UAEXKI@Z:PROC		; CWinApp::WinHelpInternal
EXTRN	?HtmlHelpW@CWinApp@@UAEXKI@Z:PROC		; CWinApp::HtmlHelpW
EXTRN	?WinHelpW@CWinApp@@UAEXKI@Z:PROC		; CWinApp::WinHelpW
EXTRN	?OnDDECommand@CWinApp@@UAEHPA_W@Z:PROC		; CWinApp::OnDDECommand
EXTRN	?DoWaitCursor@CWinApp@@UAEXH@Z:PROC		; CWinApp::DoWaitCursor
EXTRN	?DoMessageBox@CWinApp@@UAEHPB_WII@Z:PROC	; CWinApp::DoMessageBox
EXTRN	?SaveAllModified@CWinApp@@UAEHXZ:PROC		; CWinApp::SaveAllModified
EXTRN	?InitApplication@CWinApp@@UAEHXZ:PROC		; CWinApp::InitApplication
EXTRN	?AddToRecentFileList@CWinApp@@UAEXPB_W@Z:PROC	; CWinApp::AddToRecentFileList
EXTRN	?OpenDocumentFile@CWinApp@@UAEPAVCDocument@@PB_W@Z:PROC ; CWinApp::OpenDocumentFile
EXTRN	?OpenDocumentFile@CWinApp@@UAEPAVCDocument@@PB_WH@Z:PROC ; CWinApp::OpenDocumentFile
EXTRN	?Unregister@CWinApp@@UAEHXZ:PROC		; CWinApp::Unregister
EXTRN	?Register@CWinApp@@UAEHXZ:PROC			; CWinApp::Register
EXTRN	?InitLibId@CWinApp@@UAEXXZ:PROC			; CWinApp::InitLibId
EXTRN	?WriteProfileBinary@CWinApp@@UAEHPB_W0PAEI@Z:PROC ; CWinApp::WriteProfileBinary
EXTRN	?GetProfileBinary@CWinApp@@UAEHPB_W0PAPAEPAI@Z:PROC ; CWinApp::GetProfileBinary
EXTRN	?WriteProfileStringW@CWinApp@@UAEHPB_W00@Z:PROC	; CWinApp::WriteProfileStringW
EXTRN	?GetProfileStringW@CWinApp@@UAE?AV?$CStringT@_WV?$StrTraitMFC@_WV?$ChTraitsCRT@_W@ATL@@@@@ATL@@PB_W00@Z:PROC ; CWinApp::GetProfileStringW
EXTRN	?WriteProfileInt@CWinApp@@UAEHPB_W0H@Z:PROC	; CWinApp::WriteProfileInt
EXTRN	?GetProfileIntW@CWinApp@@UAEIPB_W0H@Z:PROC	; CWinApp::GetProfileIntW
EXTRN	?Delete@CWinThread@@UAEXXZ:PROC			; CWinThread::Delete
EXTRN	?GetMainWnd@CWinThread@@UAEPAVCWnd@@XZ:PROC	; CWinThread::GetMainWnd
EXTRN	?ProcessMessageFilter@CWinThread@@UAEHHPAUtagMSG@@@Z:PROC ; CWinThread::ProcessMessageFilter
EXTRN	?ProcessWndProcException@CWinApp@@UAEJPAVCException@@PBUtagMSG@@@Z:PROC ; CWinApp::ProcessWndProcException
EXTRN	?ExitInstance@CWinApp@@UAEHXZ:PROC		; CWinApp::ExitInstance
EXTRN	?IsIdleMessage@CWinThread@@UAEHPAUtagMSG@@@Z:PROC ; CWinThread::IsIdleMessage
EXTRN	?OnIdle@CWinApp@@UAEHJ@Z:PROC			; CWinApp::OnIdle
EXTRN	?PumpMessage@CWinThread@@UAEHXZ:PROC		; CWinThread::PumpMessage
EXTRN	?PreTranslateMessage@CWinThread@@UAEHPAUtagMSG@@@Z:PROC ; CWinThread::PreTranslateMessage
EXTRN	?Run@CWinApp@@UAEHXZ:PROC			; CWinApp::Run
EXTRN	?GetConnectionHook@CCmdTarget@@MAEPAUIConnectionPoint@@ABU_GUID@@@Z:PROC ; CCmdTarget::GetConnectionHook
EXTRN	?GetExtraConnectionPoints@CCmdTarget@@MAEHPAVCPtrArray@@@Z:PROC ; CCmdTarget::GetExtraConnectionPoints
EXTRN	?GetInterfaceHook@CCmdTarget@@UAEPAUIUnknown@@PBX@Z:PROC ; CCmdTarget::GetInterfaceHook
EXTRN	?OnCreateAggregates@CCmdTarget@@UAEHXZ:PROC	; CCmdTarget::OnCreateAggregates
EXTRN	?GetEventSinkMap@CCmdTarget@@MBEPBUAFX_EVENTSINKMAP@@XZ:PROC ; CCmdTarget::GetEventSinkMap
EXTRN	?GetInterfaceMap@CCmdTarget@@MBEPBUAFX_INTERFACEMAP@@XZ:PROC ; CCmdTarget::GetInterfaceMap
EXTRN	?GetConnectionMap@CCmdTarget@@MBEPBUAFX_CONNECTIONMAP@@XZ:PROC ; CCmdTarget::GetConnectionMap
EXTRN	?GetDispatchMap@CCmdTarget@@MBEPBUAFX_DISPMAP@@XZ:PROC ; CCmdTarget::GetDispatchMap
EXTRN	?GetCommandMap@CCmdTarget@@MBEPBUAFX_OLECMDMAP@@XZ:PROC ; CCmdTarget::GetCommandMap
EXTRN	?GetTypeLib@CCmdTarget@@UAEJKPAPAUITypeLib@@@Z:PROC ; CCmdTarget::GetTypeLib
EXTRN	?GetTypeLibCache@CCmdTarget@@UAEPAVCTypeLibCache@@XZ:PROC ; CCmdTarget::GetTypeLibCache
EXTRN	?GetTypeInfoCount@CCmdTarget@@UAEIXZ:PROC	; CCmdTarget::GetTypeInfoCount
EXTRN	?GetDispatchIID@CCmdTarget@@UAEHPAU_GUID@@@Z:PROC ; CCmdTarget::GetDispatchIID
EXTRN	?IsInvokeAllowed@CCmdTarget@@UAEHJ@Z:PROC	; CCmdTarget::IsInvokeAllowed
EXTRN	?OnFinalRelease@CCmdTarget@@UAEXXZ:PROC		; CCmdTarget::OnFinalRelease
EXTRN	?OnCmdMsg@CCmdTarget@@UAEHIHPAXPAUAFX_CMDHANDLERINFO@@@Z:PROC ; CCmdTarget::OnCmdMsg
EXTRN	?GetRuntimeClass@CWinApp@@UBEPAUCRuntimeClass@@XZ:PROC ; CWinApp::GetRuntimeClass
EXTRN	??1CDialogImpl@@MAE@XZ:PROC			; CDialogImpl::~CDialogImpl
EXTRN	?GetRuntimeClass@CBrush@@UBEPAUCRuntimeClass@@XZ:PROC ; CBrush::GetRuntimeClass
EXTRN	?GetRuntimeClass@CGdiObject@@UBEPAUCRuntimeClass@@XZ:PROC ; CGdiObject::GetRuntimeClass
EXTRN	?DeleteObject@CGdiObject@@QAEHXZ:PROC		; CGdiObject::DeleteObject
EXTRN	??_7type_info@@6B@:QWORD			; type_info::`vftable'
EXTRN	___stdio_common_vswprintf:PROC
EXTRN	?AfxFindStringResourceHandle@@YGPAUHINSTANCE__@@I@Z:PROC ; AfxFindStringResourceHandle
EXTRN	__imp__FindResourceW@12:PROC
EXTRN	__imp__LoadResource@8:PROC
EXTRN	__imp__LockResource@4:PROC
EXTRN	__imp__SizeofResource@8:PROC
EXTRN	?AfxThrowInvalidArgException@@YGXXZ:PROC	; AfxThrowInvalidArgException
EXTRN	_wmemcpy_s:PROC
EXTRN	?AfxGetStringManager@@YGPAUIAtlStringMgr@ATL@@XZ:PROC ; AfxGetStringManager
EXTRN	__errno:PROC
EXTRN	__invalid_parameter_noinfo:PROC
EXTRN	___stdio_common_vswprintf_s:PROC
EXTRN	?AfxThrowMemoryException@@YGXXZ:PROC		; AfxThrowMemoryException
EXTRN	?AfxThrowOleException@@YGXJ@Z:PROC		; AfxThrowOleException
EXTRN	?AfxMessageBox@@YGHPB_WII@Z:PROC		; AfxMessageBox
EXTRN	??1CDialog@@UAE@XZ:PROC				; CDialog::~CDialog
EXTRN	?DoModal@CDialog@@UAEHXZ:PROC			; CDialog::DoModal
EXTRN	?SetRegistryKey@CWinApp@@IAEXPB_W@Z:PROC	; CWinApp::SetRegistryKey
EXTRN	?classCMFCVisualManagerWindows@CMFCVisualManagerWindows@@2UCRuntimeClass@@B:BYTE ; CMFCVisualManagerWindows::classCMFCVisualManagerWindows
EXTRN	?SetDefaultManager@CMFCVisualManager@@SGXPAUCRuntimeClass@@@Z:PROC ; CMFCVisualManager::SetDefaultManager
EXTRN	??0CShellManager@@QAE@XZ:PROC			; CShellManager::CShellManager
EXTRN	__set_new_mode:PROC
EXTRN	?AfxEnableControlContainer@@YAXPAVCOccManager@@@Z:PROC ; AfxEnableControlContainer
EXTRN	?InitInstance@CWinApp@@UAEHXZ:PROC		; CWinApp::InitInstance
EXTRN	__imp__InitCommonControlsEx@4:PROC
EXTRN	__imp__ChangeWindowMessageFilter@8:PROC
EXTRN	_atexit:PROC
EXTRN	??3@YAXPAX@Z:PROC				; operator delete
EXTRN	??1CWinApp@@UAE@XZ:PROC				; CWinApp::~CWinApp
EXTRN	??0CWinApp@@QAE@PB_W@Z:PROC			; CWinApp::CWinApp
EXTRN	__imp__LocalFree@4:PROC
EXTRN	__imp__GetCommandLineW@0:PROC
EXTRN	__imp__CommandLineToArgvW@8:PROC
EXTRN	___std_terminate:PROC
EXTRN	??3@YAXPAXI@Z:PROC				; operator delete
EXTRN	??2@YAPAXI@Z:PROC				; operator new
EXTRN	?GetThisMessageMap@CWinApp@@KGPBUAFX_MSGMAP@@XZ:PROC ; CWinApp::GetThisMessageMap
EXTRN	?OnHelp@CWinApp@@IAEXXZ:PROC			; CWinApp::OnHelp
EXTRN	@__security_check_cookie@4:PROC
EXTRN	___CxxFrameHandler3:PROC
;	COMDAT ?_OptionsStorage@?1??__local_stdio_printf_options@@9@4_KA
_BSS	SEGMENT
?_OptionsStorage@?1??__local_stdio_printf_options@@9@4_KA DQ 01H DUP (?) ; `__local_stdio_printf_options'::`2'::_OptionsStorage
_BSS	ENDS
;	COMDAT ?_messageEntries@?1??GetThisMessageMap@CAESApp@@KGPBUAFX_MSGMAP@@XZ@4QBUAFX_MSGMAP_ENTRY@@B
CONST	SEGMENT
?_messageEntries@?1??GetThisMessageMap@CAESApp@@KGPBUAFX_MSGMAP@@XZ@4QBUAFX_MSGMAP_ENTRY@@B DD 0111H ; `CAESApp::GetThisMessageMap'::`2'::_messageEntries
	DD	00H
	DD	0e146H
	DD	0e146H
	DD	03aH
	DD	FLAT:?OnHelp@CWinApp@@IAEXXZ
	DD	00H
	DD	00H
	DD	00H
	DD	00H
	DD	00H
	DD	00H
CONST	ENDS
;	COMDAT ?messageMap@?1??GetThisMessageMap@CAESApp@@KGPBUAFX_MSGMAP@@XZ@4U3@B
CONST	SEGMENT
?messageMap@?1??GetThisMessageMap@CAESApp@@KGPBUAFX_MSGMAP@@XZ@4U3@B DD FLAT:?GetThisMessageMap@CWinApp@@KGPBUAFX_MSGMAP@@XZ ; `CAESApp::GetThisMessageMap'::`2'::messageMap
	DD	FLAT:?_messageEntries@?1??GetThisMessageMap@CAESApp@@KGPBUAFX_MSGMAP@@XZ@4QBUAFX_MSGMAP_ENTRY@@B
CONST	ENDS
;	COMDAT ??_7CAESApp@@6B@
CONST	SEGMENT
??_7CAESApp@@6B@ DD FLAT:??_R4CAESApp@@6B@		; CAESApp::`vftable'
	DD	FLAT:?GetRuntimeClass@CWinApp@@UBEPAUCRuntimeClass@@XZ
	DD	FLAT:??_ECAESApp@@UAEPAXI@Z
	DD	FLAT:?Serialize@CObject@@UAEXAAVCArchive@@@Z
	DD	FLAT:?OnCmdMsg@CCmdTarget@@UAEHIHPAXPAUAFX_CMDHANDLERINFO@@@Z
	DD	FLAT:?OnFinalRelease@CCmdTarget@@UAEXXZ
	DD	FLAT:?IsInvokeAllowed@CCmdTarget@@UAEHJ@Z
	DD	FLAT:?GetDispatchIID@CCmdTarget@@UAEHPAU_GUID@@@Z
	DD	FLAT:?GetTypeInfoCount@CCmdTarget@@UAEIXZ
	DD	FLAT:?GetTypeLibCache@CCmdTarget@@UAEPAVCTypeLibCache@@XZ
	DD	FLAT:?GetTypeLib@CCmdTarget@@UAEJKPAPAUITypeLib@@@Z
	DD	FLAT:?GetMessageMap@CAESApp@@MBEPBUAFX_MSGMAP@@XZ
	DD	FLAT:?GetCommandMap@CCmdTarget@@MBEPBUAFX_OLECMDMAP@@XZ
	DD	FLAT:?GetDispatchMap@CCmdTarget@@MBEPBUAFX_DISPMAP@@XZ
	DD	FLAT:?GetConnectionMap@CCmdTarget@@MBEPBUAFX_CONNECTIONMAP@@XZ
	DD	FLAT:?GetInterfaceMap@CCmdTarget@@MBEPBUAFX_INTERFACEMAP@@XZ
	DD	FLAT:?GetEventSinkMap@CCmdTarget@@MBEPBUAFX_EVENTSINKMAP@@XZ
	DD	FLAT:?OnCreateAggregates@CCmdTarget@@UAEHXZ
	DD	FLAT:?GetInterfaceHook@CCmdTarget@@UAEPAUIUnknown@@PBX@Z
	DD	FLAT:?GetExtraConnectionPoints@CCmdTarget@@MAEHPAVCPtrArray@@@Z
	DD	FLAT:?GetConnectionHook@CCmdTarget@@MAEPAUIConnectionPoint@@ABU_GUID@@@Z
	DD	FLAT:?InitInstance@CAESApp@@UAEHXZ
	DD	FLAT:?Run@CWinApp@@UAEHXZ
	DD	FLAT:?PreTranslateMessage@CWinThread@@UAEHPAUtagMSG@@@Z
	DD	FLAT:?PumpMessage@CWinThread@@UAEHXZ
	DD	FLAT:?OnIdle@CWinApp@@UAEHJ@Z
	DD	FLAT:?IsIdleMessage@CWinThread@@UAEHPAUtagMSG@@@Z
	DD	FLAT:?ExitInstance@CWinApp@@UAEHXZ
	DD	FLAT:?ProcessWndProcException@CWinApp@@UAEJPAVCException@@PBUtagMSG@@@Z
	DD	FLAT:?ProcessMessageFilter@CWinThread@@UAEHHPAUtagMSG@@@Z
	DD	FLAT:?GetMainWnd@CWinThread@@UAEPAVCWnd@@XZ
	DD	FLAT:?Delete@CWinThread@@UAEXXZ
	DD	FLAT:?GetProfileIntW@CWinApp@@UAEIPB_W0H@Z
	DD	FLAT:?WriteProfileInt@CWinApp@@UAEHPB_W0H@Z
	DD	FLAT:?GetProfileStringW@CWinApp@@UAE?AV?$CStringT@_WV?$StrTraitMFC@_WV?$ChTraitsCRT@_W@ATL@@@@@ATL@@PB_W00@Z
	DD	FLAT:?WriteProfileStringW@CWinApp@@UAEHPB_W00@Z
	DD	FLAT:?GetProfileBinary@CWinApp@@UAEHPB_W0PAPAEPAI@Z
	DD	FLAT:?WriteProfileBinary@CWinApp@@UAEHPB_W0PAEI@Z
	DD	FLAT:?InitLibId@CWinApp@@UAEXXZ
	DD	FLAT:?Register@CWinApp@@UAEHXZ
	DD	FLAT:?Unregister@CWinApp@@UAEHXZ
	DD	FLAT:?OpenDocumentFile@CWinApp@@UAEPAVCDocument@@PB_WH@Z
	DD	FLAT:?OpenDocumentFile@CWinApp@@UAEPAVCDocument@@PB_W@Z
	DD	FLAT:?AddToRecentFileList@CWinApp@@UAEXPB_W@Z
	DD	FLAT:?InitApplication@CWinApp@@UAEHXZ
	DD	FLAT:?SaveAllModified@CWinApp@@UAEHXZ
	DD	FLAT:?DoMessageBox@CWinApp@@UAEHPB_WII@Z
	DD	FLAT:?DoWaitCursor@CWinApp@@UAEXH@Z
	DD	FLAT:?OnDDECommand@CWinApp@@UAEHPA_W@Z
	DD	FLAT:?WinHelpW@CWinApp@@UAEXKI@Z
	DD	FLAT:?HtmlHelpW@CWinApp@@UAEXKI@Z
	DD	FLAT:?WinHelpInternal@CWinApp@@UAEXKI@Z
	DD	FLAT:?RegisterWithRestartManager@CWinApp@@UAEJPB_WKP6GKPAX@Z1KK@Z
	DD	FLAT:?RegisterWithRestartManager@CWinApp@@UAEJHABV?$CStringT@_WV?$StrTraitMFC@_WV?$ChTraitsCRT@_W@ATL@@@@@ATL@@@Z
	DD	FLAT:?ApplicationRecoveryCallback@CWinApp@@UAEKPAX@Z
	DD	FLAT:?SupportsRestartManager@CWinApp@@UBEHXZ
	DD	FLAT:?SupportsApplicationRecovery@CWinApp@@UBEHXZ
	DD	FLAT:?SupportsAutosaveAtRestart@CWinApp@@UBEHXZ
	DD	FLAT:?SupportsAutosaveAtInterval@CWinApp@@UBEHXZ
	DD	FLAT:?ReopenPreviousFilesAtRestart@CWinApp@@UBEHXZ
	DD	FLAT:?RestoreAutosavedFilesAtRestart@CWinApp@@UBEHXZ
	DD	FLAT:?GetApplicationRestartFlags@CWinApp@@UAEKXZ
	DD	FLAT:?GetApplicationRecoveryParameter@CWinApp@@UAEPAXXZ
	DD	FLAT:?GetApplicationRecoveryPingInterval@CWinApp@@UAEKXZ
	DD	FLAT:?GetDataRecoveryHandler@CWinApp@@UAEPAVCDataRecoveryHandler@@XZ
	DD	FLAT:?IsTaskbarInteractionEnabled@CWinApp@@UAEHXZ
	DD	FLAT:?RestartInstance@CWinApp@@UAEHXZ
	DD	FLAT:?LoadAppLangResourceDLL@CWinApp@@UAEPAUHINSTANCE__@@XZ
	DD	FLAT:?LoadSysPolicies@CWinApp@@UAEHXZ
CONST	ENDS
;	COMDAT ??_C@_1BK@CAEGKIAC@?$AA?$CF?$AAT?$AAs?$AA?5?$AA?$CI?$AA?$CF?$AAT?$AAs?$AA?3?$AA?$CF?$AAd?$AA?$CJ@
CONST	SEGMENT
??_C@_1BK@CAEGKIAC@?$AA?$CF?$AAT?$AAs?$AA?5?$AA?$CI?$AA?$CF?$AAT?$AAs?$AA?3?$AA?$CF?$AAd?$AA?$CJ@ DB '%'
	DB	00H, 'T', 00H, 's', 00H, ' ', 00H, '(', 00H, '%', 00H, 'T', 00H
	DB	's', 00H, ':', 00H, '%', 00H, 'd', 00H, ')', 00H, 00H, 00H ; `string'
CONST	ENDS
;	COMDAT ??_C@_1DO@DFDGGJKE@?$AAE?$AAx?$AAc?$AAe?$AAp?$AAt?$AAi?$AAo?$AAn?$AA?5?$AAt?$AAh?$AAr?$AAo?$AAw@
CONST	SEGMENT
??_C@_1DO@DFDGGJKE@?$AAE?$AAx?$AAc?$AAe?$AAp?$AAt?$AAi?$AAo?$AAn?$AA?5?$AAt?$AAh?$AAr?$AAo?$AAw@ DB 'E'
	DB	00H, 'x', 00H, 'c', 00H, 'e', 00H, 'p', 00H, 't', 00H, 'i', 00H
	DB	'o', 00H, 'n', 00H, ' ', 00H, 't', 00H, 'h', 00H, 'r', 00H, 'o'
	DB	00H, 'w', 00H, 'n', 00H, ' ', 00H, 'i', 00H, 'n', 00H, ' ', 00H
	DB	'd', 00H, 'e', 00H, 's', 00H, 't', 00H, 'r', 00H, 'u', 00H, 'c'
	DB	00H, 't', 00H, 'o', 00H, 'r', 00H, 00H, 00H	; `string'
CONST	ENDS
;	COMDAT ??_C@_1OI@LMJNNHBI@?$AAC?$AA?3?$AA?2?$AAP?$AAr?$AAo?$AAg?$AAr?$AAa?$AAm?$AA?5?$AAF?$AAi?$AAl?$AAe@
CONST	SEGMENT
??_C@_1OI@LMJNNHBI@?$AAC?$AA?3?$AA?2?$AAP?$AAr?$AAo?$AAg?$AAr?$AAa?$AAm?$AA?5?$AAF?$AAi?$AAl?$AAe@ DB 'C'
	DB	00H, ':', 00H, '\', 00H, 'P', 00H, 'r', 00H, 'o', 00H, 'g', 00H
	DB	'r', 00H, 'a', 00H, 'm', 00H, ' ', 00H, 'F', 00H, 'i', 00H, 'l'
	DB	00H, 'e', 00H, 's', 00H, ' ', 00H, '(', 00H, 'x', 00H, '8', 00H
	DB	'6', 00H, ')', 00H, '\', 00H, 'M', 00H, 'i', 00H, 'c', 00H, 'r'
	DB	00H, 'o', 00H, 's', 00H, 'o', 00H, 'f', 00H, 't', 00H, ' ', 00H
	DB	'V', 00H, 'i', 00H, 's', 00H, 'u', 00H, 'a', 00H, 'l', 00H, ' '
	DB	00H, 'S', 00H, 't', 00H, 'u', 00H, 'd', 00H, 'i', 00H, 'o', 00H
	DB	'\', 00H, '2', 00H, '0', 00H, '1', 00H, '9', 00H, '\', 00H, 'E'
	DB	00H, 'n', 00H, 't', 00H, 'e', 00H, 'r', 00H, 'p', 00H, 'r', 00H
	DB	'i', 00H, 's', 00H, 'e', 00H, '\', 00H, 'V', 00H, 'C', 00H, '\'
	DB	00H, 'T', 00H, 'o', 00H, 'o', 00H, 'l', 00H, 's', 00H, '\', 00H
	DB	'M', 00H, 'S', 00H, 'V', 00H, 'C', 00H, '\', 00H, '1', 00H, '4'
	DB	00H, '.', 00H, '2', 00H, '9', 00H, '.', 00H, '3', 00H, '0', 00H
	DB	'1', 00H, '3', 00H, '3', 00H, '\', 00H, 'a', 00H, 't', 00H, 'l'
	DB	00H, 'm', 00H, 'f', 00H, 'c', 00H, '\', 00H, 'i', 00H, 'n', 00H
	DB	'c', 00H, 'l', 00H, 'u', 00H, 'd', 00H, 'e', 00H, '\', 00H, 'a'
	DB	00H, 'f', 00H, 'x', 00H, 'w', 00H, 'i', 00H, 'n', 00H, '1', 00H
	DB	'.', 00H, 'i', 00H, 'n', 00H, 'l', 00H, 00H, 00H ; `string'
CONST	ENDS
;	COMDAT ??_C@_1CC@GGIAOFGJ@?$AA?$CF?$AAT?$AAs?$AA?5?$AA?$CI?$AA?$CF?$AAT?$AAs?$AA?3?$AA?$CF?$AAd?$AA?$CJ?$AA?6?$AA?$CF?$AAT@
CONST	SEGMENT
??_C@_1CC@GGIAOFGJ@?$AA?$CF?$AAT?$AAs?$AA?5?$AA?$CI?$AA?$CF?$AAT?$AAs?$AA?3?$AA?$CF?$AAd?$AA?$CJ?$AA?6?$AA?$CF?$AAT@ DB '%'
	DB	00H, 'T', 00H, 's', 00H, ' ', 00H, '(', 00H, '%', 00H, 'T', 00H
	DB	's', 00H, ':', 00H, '%', 00H, 'd', 00H, ')', 00H, 0aH, 00H, '%'
	DB	00H, 'T', 00H, 's', 00H, 00H, 00H		; `string'
CONST	ENDS
;	COMDAT ??_R0PAVCException@@@8
data$r	SEGMENT
??_R0PAVCException@@@8 DD FLAT:??_7type_info@@6B@	; CException * `RTTI Type Descriptor'
	DD	00H
	DB	'.PAVCException@@', 00H
data$r	ENDS
;	COMDAT ??_7CGdiObject@@6B@
CONST	SEGMENT
??_7CGdiObject@@6B@ DD FLAT:??_R4CGdiObject@@6B@	; CGdiObject::`vftable'
	DD	FLAT:?GetRuntimeClass@CGdiObject@@UBEPAUCRuntimeClass@@XZ
	DD	FLAT:??_ECGdiObject@@UAEPAXI@Z
	DD	FLAT:?Serialize@CObject@@UAEXAAVCArchive@@@Z
CONST	ENDS
;	COMDAT ??_R4CGdiObject@@6B@
rdata$r	SEGMENT
??_R4CGdiObject@@6B@ DD 00H				; CGdiObject::`RTTI Complete Object Locator'
	DD	00H
	DD	00H
	DD	FLAT:??_R0?AVCGdiObject@@@8
	DD	FLAT:??_R3CGdiObject@@8
rdata$r	ENDS
;	COMDAT ??_R3CGdiObject@@8
rdata$r	SEGMENT
??_R3CGdiObject@@8 DD 00H				; CGdiObject::`RTTI Class Hierarchy Descriptor'
	DD	00H
	DD	02H
	DD	FLAT:??_R2CGdiObject@@8
rdata$r	ENDS
;	COMDAT ??_R2CGdiObject@@8
rdata$r	SEGMENT
??_R2CGdiObject@@8 DD FLAT:??_R1A@?0A@EA@CGdiObject@@8	; CGdiObject::`RTTI Base Class Array'
	DD	FLAT:??_R1A@?0A@EA@CObject@@8
rdata$r	ENDS
;	COMDAT ??_R1A@?0A@EA@CObject@@8
rdata$r	SEGMENT
??_R1A@?0A@EA@CObject@@8 DD FLAT:??_R0?AVCObject@@@8	; CObject::`RTTI Base Class Descriptor at (0,-1,0,64)'
	DD	00H
	DD	00H
	DD	0ffffffffH
	DD	00H
	DD	040H
	DD	FLAT:??_R3CObject@@8
rdata$r	ENDS
;	COMDAT ??_R3CObject@@8
rdata$r	SEGMENT
??_R3CObject@@8 DD 00H					; CObject::`RTTI Class Hierarchy Descriptor'
	DD	00H
	DD	01H
	DD	FLAT:??_R2CObject@@8
rdata$r	ENDS
;	COMDAT ??_R2CObject@@8
rdata$r	SEGMENT
??_R2CObject@@8 DD FLAT:??_R1A@?0A@EA@CObject@@8	; CObject::`RTTI Base Class Array'
rdata$r	ENDS
;	COMDAT ??_R0?AVCObject@@@8
data$rs	SEGMENT
??_R0?AVCObject@@@8 DD FLAT:??_7type_info@@6B@		; CObject `RTTI Type Descriptor'
	DD	00H
	DB	'.?AVCObject@@', 00H
data$rs	ENDS
;	COMDAT ??_R1A@?0A@EA@CGdiObject@@8
rdata$r	SEGMENT
??_R1A@?0A@EA@CGdiObject@@8 DD FLAT:??_R0?AVCGdiObject@@@8 ; CGdiObject::`RTTI Base Class Descriptor at (0,-1,0,64)'
	DD	01H
	DD	00H
	DD	0ffffffffH
	DD	00H
	DD	040H
	DD	FLAT:??_R3CGdiObject@@8
rdata$r	ENDS
;	COMDAT ??_R0?AVCGdiObject@@@8
data$rs	SEGMENT
??_R0?AVCGdiObject@@@8 DD FLAT:??_7type_info@@6B@	; CGdiObject `RTTI Type Descriptor'
	DD	00H
	DB	'.?AVCGdiObject@@', 00H
data$rs	ENDS
;	COMDAT ??_7CBrush@@6B@
CONST	SEGMENT
??_7CBrush@@6B@ DD FLAT:??_R4CBrush@@6B@		; CBrush::`vftable'
	DD	FLAT:?GetRuntimeClass@CBrush@@UBEPAUCRuntimeClass@@XZ
	DD	FLAT:??_ECBrush@@UAEPAXI@Z
	DD	FLAT:?Serialize@CObject@@UAEXAAVCArchive@@@Z
CONST	ENDS
;	COMDAT ??_R4CBrush@@6B@
rdata$r	SEGMENT
??_R4CBrush@@6B@ DD 00H					; CBrush::`RTTI Complete Object Locator'
	DD	00H
	DD	00H
	DD	FLAT:??_R0?AVCBrush@@@8
	DD	FLAT:??_R3CBrush@@8
rdata$r	ENDS
;	COMDAT ??_R3CBrush@@8
rdata$r	SEGMENT
??_R3CBrush@@8 DD 00H					; CBrush::`RTTI Class Hierarchy Descriptor'
	DD	00H
	DD	03H
	DD	FLAT:??_R2CBrush@@8
rdata$r	ENDS
;	COMDAT ??_R2CBrush@@8
rdata$r	SEGMENT
??_R2CBrush@@8 DD FLAT:??_R1A@?0A@EA@CBrush@@8		; CBrush::`RTTI Base Class Array'
	DD	FLAT:??_R1A@?0A@EA@CGdiObject@@8
	DD	FLAT:??_R1A@?0A@EA@CObject@@8
rdata$r	ENDS
;	COMDAT ??_R1A@?0A@EA@CBrush@@8
rdata$r	SEGMENT
??_R1A@?0A@EA@CBrush@@8 DD FLAT:??_R0?AVCBrush@@@8	; CBrush::`RTTI Base Class Descriptor at (0,-1,0,64)'
	DD	02H
	DD	00H
	DD	0ffffffffH
	DD	00H
	DD	040H
	DD	FLAT:??_R3CBrush@@8
rdata$r	ENDS
;	COMDAT ??_R0?AVCBrush@@@8
data$rs	SEGMENT
??_R0?AVCBrush@@@8 DD FLAT:??_7type_info@@6B@		; CBrush `RTTI Type Descriptor'
	DD	00H
	DB	'.?AVCBrush@@', 00H
data$rs	ENDS
;	COMDAT ??_R4CAESApp@@6B@
rdata$r	SEGMENT
??_R4CAESApp@@6B@ DD 00H				; CAESApp::`RTTI Complete Object Locator'
	DD	00H
	DD	00H
	DD	FLAT:??_R0?AVCAESApp@@@8
	DD	FLAT:??_R3CAESApp@@8
rdata$r	ENDS
;	COMDAT ??_R0?AVCAESApp@@@8
data$rs	SEGMENT
??_R0?AVCAESApp@@@8 DD FLAT:??_7type_info@@6B@		; CAESApp `RTTI Type Descriptor'
	DD	00H
	DB	'.?AVCAESApp@@', 00H
data$rs	ENDS
;	COMDAT ??_R3CAESApp@@8
rdata$r	SEGMENT
??_R3CAESApp@@8 DD 00H					; CAESApp::`RTTI Class Hierarchy Descriptor'
	DD	00H
	DD	05H
	DD	FLAT:??_R2CAESApp@@8
rdata$r	ENDS
;	COMDAT ??_R0?AVCWinThread@@@8
data$rs	SEGMENT
??_R0?AVCWinThread@@@8 DD FLAT:??_7type_info@@6B@	; CWinThread `RTTI Type Descriptor'
	DD	00H
	DB	'.?AVCWinThread@@', 00H
data$rs	ENDS
;	COMDAT ??_R3CWinThread@@8
rdata$r	SEGMENT
??_R3CWinThread@@8 DD 00H				; CWinThread::`RTTI Class Hierarchy Descriptor'
	DD	00H
	DD	03H
	DD	FLAT:??_R2CWinThread@@8
rdata$r	ENDS
;	COMDAT ??_R0?AVCWinApp@@@8
data$rs	SEGMENT
??_R0?AVCWinApp@@@8 DD FLAT:??_7type_info@@6B@		; CWinApp `RTTI Type Descriptor'
	DD	00H
	DB	'.?AVCWinApp@@', 00H
data$rs	ENDS
;	COMDAT ??_R3CWinApp@@8
rdata$r	SEGMENT
??_R3CWinApp@@8 DD 00H					; CWinApp::`RTTI Class Hierarchy Descriptor'
	DD	00H
	DD	04H
	DD	FLAT:??_R2CWinApp@@8
rdata$r	ENDS
;	COMDAT ??_R1A@?0A@EA@CWinThread@@8
rdata$r	SEGMENT
??_R1A@?0A@EA@CWinThread@@8 DD FLAT:??_R0?AVCWinThread@@@8 ; CWinThread::`RTTI Base Class Descriptor at (0,-1,0,64)'
	DD	02H
	DD	00H
	DD	0ffffffffH
	DD	00H
	DD	040H
	DD	FLAT:??_R3CWinThread@@8
rdata$r	ENDS
;	COMDAT ??_R1A@?0A@EA@CCmdTarget@@8
rdata$r	SEGMENT
??_R1A@?0A@EA@CCmdTarget@@8 DD FLAT:??_R0?AVCCmdTarget@@@8 ; CCmdTarget::`RTTI Base Class Descriptor at (0,-1,0,64)'
	DD	01H
	DD	00H
	DD	0ffffffffH
	DD	00H
	DD	040H
	DD	FLAT:??_R3CCmdTarget@@8
rdata$r	ENDS
;	COMDAT ??_R3CCmdTarget@@8
rdata$r	SEGMENT
??_R3CCmdTarget@@8 DD 00H				; CCmdTarget::`RTTI Class Hierarchy Descriptor'
	DD	00H
	DD	02H
	DD	FLAT:??_R2CCmdTarget@@8
rdata$r	ENDS
;	COMDAT ??_R2CCmdTarget@@8
rdata$r	SEGMENT
??_R2CCmdTarget@@8 DD FLAT:??_R1A@?0A@EA@CCmdTarget@@8	; CCmdTarget::`RTTI Base Class Array'
	DD	FLAT:??_R1A@?0A@EA@CObject@@8
rdata$r	ENDS
;	COMDAT ??_R0?AVCCmdTarget@@@8
data$rs	SEGMENT
??_R0?AVCCmdTarget@@@8 DD FLAT:??_7type_info@@6B@	; CCmdTarget `RTTI Type Descriptor'
	DD	00H
	DB	'.?AVCCmdTarget@@', 00H
data$rs	ENDS
;	COMDAT ??_R1A@?0A@EA@CWinApp@@8
rdata$r	SEGMENT
??_R1A@?0A@EA@CWinApp@@8 DD FLAT:??_R0?AVCWinApp@@@8	; CWinApp::`RTTI Base Class Descriptor at (0,-1,0,64)'
	DD	03H
	DD	00H
	DD	0ffffffffH
	DD	00H
	DD	040H
	DD	FLAT:??_R3CWinApp@@8
rdata$r	ENDS
;	COMDAT ??_R1A@?0A@EA@CAESApp@@8
rdata$r	SEGMENT
??_R1A@?0A@EA@CAESApp@@8 DD FLAT:??_R0?AVCAESApp@@@8	; CAESApp::`RTTI Base Class Descriptor at (0,-1,0,64)'
	DD	04H
	DD	00H
	DD	0ffffffffH
	DD	00H
	DD	040H
	DD	FLAT:??_R3CAESApp@@8
rdata$r	ENDS
;	COMDAT ??_R2CWinThread@@8
rdata$r	SEGMENT
??_R2CWinThread@@8 DD FLAT:??_R1A@?0A@EA@CWinThread@@8	; CWinThread::`RTTI Base Class Array'
	DD	FLAT:??_R1A@?0A@EA@CCmdTarget@@8
	DD	FLAT:??_R1A@?0A@EA@CObject@@8
rdata$r	ENDS
;	COMDAT ??_R2CWinApp@@8
rdata$r	SEGMENT
??_R2CWinApp@@8 DD FLAT:??_R1A@?0A@EA@CWinApp@@8	; CWinApp::`RTTI Base Class Array'
	DD	FLAT:??_R1A@?0A@EA@CWinThread@@8
	DD	FLAT:??_R1A@?0A@EA@CCmdTarget@@8
	DD	FLAT:??_R1A@?0A@EA@CObject@@8
rdata$r	ENDS
;	COMDAT ??_R2CAESApp@@8
rdata$r	SEGMENT
??_R2CAESApp@@8 DD FLAT:??_R1A@?0A@EA@CAESApp@@8	; CAESApp::`RTTI Base Class Array'
	DD	FLAT:??_R1A@?0A@EA@CWinApp@@8
	DD	FLAT:??_R1A@?0A@EA@CWinThread@@8
	DD	FLAT:??_R1A@?0A@EA@CCmdTarget@@8
	DD	FLAT:??_R1A@?0A@EA@CObject@@8
rdata$r	ENDS
;	COMDAT ??_C@_1O@ENKDEAMH@?$AAM?$AAy?$AA?5?$AAA?$AAE?$AAS@
CONST	SEGMENT
??_C@_1O@ENKDEAMH@?$AAM?$AAy?$AA?5?$AAA?$AAE?$AAS@ DB 'M', 00H, 'y', 00H, ' '
	DB	00H, 'A', 00H, 'E', 00H, 'S', 00H, 00H, 00H	; `string'
CONST	ENDS
PUBLIC	??3CObject@@SGXPAX@Z				; CObject::operator delete
PUBLIC	??2CObject@@SGPAXI@Z				; CObject::operator new
PUBLIC	??1?$CStringT@_WV?$StrTraitMFC@_WV?$ChTraitsCRT@_W@ATL@@@@@ATL@@QAE@XZ ; ATL::CStringT<wchar_t,StrTraitMFC<wchar_t,ATL::ChTraitsCRT<wchar_t> > >::~CStringT<wchar_t,StrTraitMFC<wchar_t,ATL::ChTraitsCRT<wchar_t> > >
PUBLIC	??1?$CSimpleStringT@_W$0A@@ATL@@QAE@XZ		; ATL::CSimpleStringT<wchar_t,0>::~CSimpleStringT<wchar_t,0>
PUBLIC	?Release@CStringData@ATL@@QAEXXZ		; ATL::CStringData::Release
PUBLIC	?GetData@?$CSimpleStringT@_W$0A@@ATL@@ABEPAUCStringData@2@XZ ; ATL::CSimpleStringT<wchar_t,0>::GetData
PUBLIC	??1CBrush@@UAE@XZ				; CBrush::~CBrush
PUBLIC	??1CGdiObject@@UAE@XZ				; CGdiObject::~CGdiObject
PUBLIC	??1CObject@@UAE@XZ				; CObject::~CObject
PUBLIC	??B?$CSimpleStringT@_W$0A@@ATL@@QBEPB_WXZ	; ATL::CSimpleStringT<wchar_t,0>::operator wchar_t const *
PUBLIC	?Format@?$CStringT@_WV?$StrTraitMFC@_WV?$ChTraitsCRT@_W@ATL@@@@@ATL@@QAAXPB_WZZ ; ATL::CStringT<wchar_t,StrTraitMFC<wchar_t,ATL::ChTraitsCRT<wchar_t> > >::Format
PUBLIC	?FormatV@?$CStringT@_WV?$StrTraitMFC@_WV?$ChTraitsCRT@_W@ATL@@@@@ATL@@QAEXPB_WPAD@Z ; ATL::CStringT<wchar_t,StrTraitMFC<wchar_t,ATL::ChTraitsCRT<wchar_t> > >::FormatV
PUBLIC	?ReleaseBufferSetLength@?$CSimpleStringT@_W$0A@@ATL@@QAEXH@Z ; ATL::CSimpleStringT<wchar_t,0>::ReleaseBufferSetLength
PUBLIC	?SetLength@?$CSimpleStringT@_W$0A@@ATL@@AAEXH@Z	; ATL::CSimpleStringT<wchar_t,0>::SetLength
PUBLIC	?AtlThrowImpl@ATL@@YGXJ@Z			; ATL::AtlThrowImpl
PUBLIC	?Format@?$ChTraitsCRT@_W@ATL@@SAHPA_WIPB_WPAD@Z	; ATL::ChTraitsCRT<wchar_t>::Format
PUBLIC	___local_stdio_printf_options
PUBLIC	?GetBuffer@?$CSimpleStringT@_W$0A@@ATL@@QAEPA_WH@Z ; ATL::CSimpleStringT<wchar_t,0>::GetBuffer
PUBLIC	?PrepareWrite@?$CSimpleStringT@_W$0A@@ATL@@AAEPA_WH@Z ; ATL::CSimpleStringT<wchar_t,0>::PrepareWrite
PUBLIC	?PrepareWrite2@?$CSimpleStringT@_W$0A@@ATL@@AAEXH@Z ; ATL::CSimpleStringT<wchar_t,0>::PrepareWrite2
PUBLIC	?Reallocate@?$CSimpleStringT@_W$0A@@ATL@@AAEXH@Z ; ATL::CSimpleStringT<wchar_t,0>::Reallocate
PUBLIC	?Attach@?$CSimpleStringT@_W$0A@@ATL@@AAEXPAUCStringData@2@@Z ; ATL::CSimpleStringT<wchar_t,0>::Attach
PUBLIC	?data@CStringData@ATL@@QAEPAXXZ			; ATL::CStringData::data
PUBLIC	?ThrowMemoryException@?$CSimpleStringT@_W$0A@@ATL@@KAXXZ ; ATL::CSimpleStringT<wchar_t,0>::ThrowMemoryException
PUBLIC	?Fork@?$CSimpleStringT@_W$0A@@ATL@@AAEXH@Z	; ATL::CSimpleStringT<wchar_t,0>::Fork
PUBLIC	?CopyChars@?$CSimpleStringT@_W$0A@@ATL@@SAXPA_WIPB_WH@Z ; ATL::CSimpleStringT<wchar_t,0>::CopyChars
PUBLIC	?IsShared@CStringData@ATL@@QBE_NXZ		; ATL::CStringData::IsShared
PUBLIC	?GetManager@?$CStringT@_WV?$StrTraitMFC@_WV?$ChTraitsCRT@_W@ATL@@@@@ATL@@QBEPAUIAtlStringMgr@2@XZ ; ATL::CStringT<wchar_t,StrTraitMFC<wchar_t,ATL::ChTraitsCRT<wchar_t> > >::GetManager
PUBLIC	?GetDefaultManager@?$StrTraitMFC@_WV?$ChTraitsCRT@_W@ATL@@@@SAPAUIAtlStringMgr@ATL@@XZ ; StrTraitMFC<wchar_t,ATL::ChTraitsCRT<wchar_t> >::GetDefaultManager
PUBLIC	?GetManager@?$CSimpleStringT@_W$0A@@ATL@@QBEPAUIAtlStringMgr@2@XZ ; ATL::CSimpleStringT<wchar_t,0>::GetManager
PUBLIC	??0?$CStringT@_WV?$StrTraitMFC@_WV?$ChTraitsCRT@_W@ATL@@@@@ATL@@QAE@PB_WPAUIAtlStringMgr@1@@Z ; ATL::CStringT<wchar_t,StrTraitMFC<wchar_t,ATL::ChTraitsCRT<wchar_t> > >::CStringT<wchar_t,StrTraitMFC<wchar_t,ATL::ChTraitsCRT<wchar_t> > >
PUBLIC	??4?$CStringT@_WV?$StrTraitMFC@_WV?$ChTraitsCRT@_W@ATL@@@@@ATL@@QAEAAV01@PB_W@Z ; ATL::CStringT<wchar_t,StrTraitMFC<wchar_t,ATL::ChTraitsCRT<wchar_t> > >::operator=
PUBLIC	??4?$CSimpleStringT@_W$0A@@ATL@@QAEAAV01@PB_W@Z	; ATL::CSimpleStringT<wchar_t,0>::operator=
PUBLIC	?SetString@?$CSimpleStringT@_W$0A@@ATL@@QAEXPB_W@Z ; ATL::CSimpleStringT<wchar_t,0>::SetString
PUBLIC	?StringLength@?$CSimpleStringT@_W$0A@@ATL@@SAHPB_W@Z ; ATL::CSimpleStringT<wchar_t,0>::StringLength
PUBLIC	?SetString@?$CSimpleStringT@_W$0A@@ATL@@QAEXPB_WH@Z ; ATL::CSimpleStringT<wchar_t,0>::SetString
PUBLIC	?GetAllocLength@?$CSimpleStringT@_W$0A@@ATL@@QBEHXZ ; ATL::CSimpleStringT<wchar_t,0>::GetAllocLength
PUBLIC	?CopyCharsOverlapped@?$CSimpleStringT@_W$0A@@ATL@@SAXPA_WIPB_WH@Z ; ATL::CSimpleStringT<wchar_t,0>::CopyCharsOverlapped
PUBLIC	?GetString@?$CSimpleStringT@_W$0A@@ATL@@QBEPB_WXZ ; ATL::CSimpleStringT<wchar_t,0>::GetString
PUBLIC	?GetLength@?$CSimpleStringT@_W$0A@@ATL@@QBEHXZ	; ATL::CSimpleStringT<wchar_t,0>::GetLength
PUBLIC	?Empty@?$CSimpleStringT@_W$0A@@ATL@@QAEXXZ	; ATL::CSimpleStringT<wchar_t,0>::Empty
PUBLIC	?IsLocked@CStringData@ATL@@QBE_NXZ		; ATL::CStringData::IsLocked
PUBLIC	?CheckImplicitLoad@?$CStringT@_WV?$StrTraitMFC@_WV?$ChTraitsCRT@_W@ATL@@@@@ATL@@AAE_NPBX@Z ; ATL::CStringT<wchar_t,StrTraitMFC<wchar_t,ATL::ChTraitsCRT<wchar_t> > >::CheckImplicitLoad
PUBLIC	?LoadStringW@?$CStringT@_WV?$StrTraitMFC@_WV?$ChTraitsCRT@_W@ATL@@@@@ATL@@QAEHI@Z ; ATL::CStringT<wchar_t,StrTraitMFC<wchar_t,ATL::ChTraitsCRT<wchar_t> > >::LoadStringW
PUBLIC	?LoadStringW@?$CStringT@_WV?$StrTraitMFC@_WV?$ChTraitsCRT@_W@ATL@@@@@ATL@@QAEHPAUHINSTANCE__@@I@Z ; ATL::CStringT<wchar_t,StrTraitMFC<wchar_t,ATL::ChTraitsCRT<wchar_t> > >::LoadStringW
PUBLIC	?ConvertToBaseType@?$ChTraitsCRT@_W@ATL@@SAXPA_WHPB_WH@Z ; ATL::ChTraitsCRT<wchar_t>::ConvertToBaseType
PUBLIC	?wmemcpy_s@Checked@ATL@@YAXPA_WIPB_WI@Z		; ATL::Checked::wmemcpy_s
PUBLIC	?AfxCrtErrorCheck@@YAHH@Z			; AfxCrtErrorCheck
PUBLIC	?GetBaseTypeLength@?$ChTraitsCRT@_W@ATL@@SAHPB_W@Z ; ATL::ChTraitsCRT<wchar_t>::GetBaseTypeLength
PUBLIC	?AtlStrLen@ATL@@YAHPB_W@Z			; ATL::AtlStrLen
PUBLIC	?GetBaseTypeLength@?$ChTraitsCRT@_W@ATL@@SAHPB_WH@Z ; ATL::ChTraitsCRT<wchar_t>::GetBaseTypeLength
PUBLIC	?AtlGetStringResourceImage@ATL@@YAPBUATLSTRINGRESOURCEIMAGE@1@PAUHINSTANCE__@@I@Z ; ATL::AtlGetStringResourceImage
PUBLIC	?_AtlGetStringResourceImage@ATL@@YAPBUATLSTRINGRESOURCEIMAGE@1@PAUHINSTANCE__@@PAUHRSRC__@@I@Z ; ATL::_AtlGetStringResourceImage
PUBLIC	?FindStringResourceInstance@?$StrTraitMFC@_WV?$ChTraitsCRT@_W@ATL@@@@SAPAUHINSTANCE__@@I@Z ; StrTraitMFC<wchar_t,ATL::ChTraitsCRT<wchar_t> >::FindStringResourceInstance
PUBLIC	??0?$CSimpleStringT@_W$0A@@ATL@@QAE@PAUIAtlStringMgr@1@@Z ; ATL::CSimpleStringT<wchar_t,0>::CSimpleStringT<wchar_t,0>
PUBLIC	?__autoclassinit2@?$CStringT@_WV?$StrTraitMFC@_WV?$ChTraitsCRT@_W@ATL@@@@@ATL@@QAEXI@Z ; ATL::CStringT<wchar_t,StrTraitMFC<wchar_t,ATL::ChTraitsCRT<wchar_t> > >::__autoclassinit2
PUBLIC	?GetFormattedLength@?$ChTraitsCRT@_W@ATL@@SAHPB_WPAD@Z ; ATL::ChTraitsCRT<wchar_t>::GetFormattedLength
PUBLIC	??0?$CStringT@_WV?$StrTraitMFC@_WV?$ChTraitsCRT@_W@ATL@@@@@ATL@@QAE@XZ ; ATL::CStringT<wchar_t,StrTraitMFC<wchar_t,ATL::ChTraitsCRT<wchar_t> > >::CStringT<wchar_t,StrTraitMFC<wchar_t,ATL::ChTraitsCRT<wchar_t> > >
PUBLIC	?Serialize@CObject@@UAEXAAVCArchive@@@Z		; CObject::Serialize
PUBLIC	??_GCGdiObject@@UAEPAXI@Z			; CGdiObject::`scalar deleting destructor'
PUBLIC	??_GCBrush@@UAEPAXI@Z				; CBrush::`scalar deleting destructor'
PUBLIC	?SupportsRestartManager@CWinApp@@UBEHXZ		; CWinApp::SupportsRestartManager
PUBLIC	?SupportsApplicationRecovery@CWinApp@@UBEHXZ	; CWinApp::SupportsApplicationRecovery
PUBLIC	?SupportsAutosaveAtRestart@CWinApp@@UBEHXZ	; CWinApp::SupportsAutosaveAtRestart
PUBLIC	?SupportsAutosaveAtInterval@CWinApp@@UBEHXZ	; CWinApp::SupportsAutosaveAtInterval
PUBLIC	?ReopenPreviousFilesAtRestart@CWinApp@@UBEHXZ	; CWinApp::ReopenPreviousFilesAtRestart
PUBLIC	?RestoreAutosavedFilesAtRestart@CWinApp@@UBEHXZ	; CWinApp::RestoreAutosavedFilesAtRestart
PUBLIC	?GetApplicationRestartFlags@CWinApp@@UAEKXZ	; CWinApp::GetApplicationRestartFlags
PUBLIC	?GetApplicationRecoveryParameter@CWinApp@@UAEPAXXZ ; CWinApp::GetApplicationRecoveryParameter
PUBLIC	?GetApplicationRecoveryPingInterval@CWinApp@@UAEKXZ ; CWinApp::GetApplicationRecoveryPingInterval
PUBLIC	?__empty_global_delete@@YAXPAXI@Z		; __empty_global_delete
PUBLIC	?__empty_global_delete@@YAXPAX@Z		; __empty_global_delete
PUBLIC	??1CDialogEx@@UAE@XZ				; CDialogEx::~CDialogEx
PUBLIC	?__autoclassinit2@CAESDlg@@QAEXI@Z		; CAESDlg::__autoclassinit2
PUBLIC	??1CAESDlg@@UAE@XZ				; CAESDlg::~CAESDlg
PUBLIC	?__autoclassinit2@CShellManager@@QAEXI@Z	; CShellManager::__autoclassinit2
PUBLIC	?InitInstance@CAESApp@@UAEHXZ			; CAESApp::InitInstance
PUBLIC	?__autoclassinit2@CAESApp@@QAEXI@Z		; CAESApp::__autoclassinit2
PUBLIC	??1CAESApp@@UAE@XZ				; CAESApp::~CAESApp
PUBLIC	??_GCAESApp@@UAEPAXI@Z				; CAESApp::`scalar deleting destructor'
PUBLIC	??0CAESApp@@QAE@XZ				; CAESApp::CAESApp
PUBLIC	??_GAnalyse_back_groung@@QAEPAXI@Z		; Analyse_back_groung::`scalar deleting destructor'
PUBLIC	?__autoclassinit2@Analyse_back_groung@@QAEXI@Z	; Analyse_back_groung::__autoclassinit2
PUBLIC	?Interactif@CAESApp@@AAEHXZ			; CAESApp::Interactif
PUBLIC	??_GSendTo@@QAEPAXI@Z				; SendTo::`scalar deleting destructor'
PUBLIC	?__autoclassinit2@SendTo@@QAEXI@Z		; SendTo::__autoclassinit2
PUBLIC	?SendTo_App@CAESApp@@AAEHXZ			; CAESApp::SendTo_App
PUBLIC	?GetThisMessageMap@CAESApp@@KGPBUAFX_MSGMAP@@XZ	; CAESApp::GetThisMessageMap
PUBLIC	?GetMessageMap@CAESApp@@MBEPBUAFX_MSGMAP@@XZ	; CAESApp::GetMessageMap
PUBLIC	?theApp@@3VCAESApp@@A				; theApp
EXTRN	?__global_delete@@YAXPAXI@Z:PROC		; __global_delete
EXTRN	??_ECGdiObject@@UAEPAXI@Z:PROC			; CGdiObject::`vector deleting destructor'
EXTRN	??_ECBrush@@UAEPAXI@Z:PROC			; CBrush::`vector deleting destructor'
EXTRN	??_ECAESApp@@UAEPAXI@Z:PROC			; CAESApp::`vector deleting destructor'
EXTRN	__allmul:PROC
EXTRN	_memcpy:PROC
EXTRN	_memmove:PROC
EXTRN	_memset:PROC
EXTRN	___security_cookie:DWORD
EXTRN	__tls_array:DWORD
EXTRN	__tls_index:DWORD
?theApp@@3VCAESApp@@A DB 0d0H DUP (?)			; theApp
_BSS	ENDS
CRT$XCU	SEGMENT
?theApp$initializer$@@3P6AXXZA DD FLAT:??__EtheApp@@YAXXZ ; theApp$initializer$
;	COMDAT xdata$x
xdata$x	SEGMENT
__unwindtable$?SendTo_App@CAESApp@@AAEHXZ DD 0ffffffffH
	DD	FLAT:__unwindfunclet$?SendTo_App@CAESApp@@AAEHXZ$0
__ehfuncinfo$?SendTo_App@CAESApp@@AAEHXZ DQ 00000000119930522r ; 2.33398e-314
	DD	FLAT:__unwindtable$?SendTo_App@CAESApp@@AAEHXZ
	DQ	00000000000000000r		; 0
	DQ	00000000000000000r		; 0
	DQ	00000000100000000r		; 2.122e-314
xdata$x	ENDS
;	COMDAT xdata$x
xdata$x	SEGMENT
__unwindtable$?Interactif@CAESApp@@AAEHXZ DD 0ffffffffH
	DD	FLAT:__unwindfunclet$?Interactif@CAESApp@@AAEHXZ$0
__ehfuncinfo$?Interactif@CAESApp@@AAEHXZ DQ 00000000119930522r ; 2.33398e-314
	DD	FLAT:__unwindtable$?Interactif@CAESApp@@AAEHXZ
	DQ	00000000000000000r		; 0
	DQ	00000000000000000r		; 0
	DQ	00000000100000000r		; 2.122e-314
xdata$x	ENDS
;	COMDAT xdata$x
xdata$x	SEGMENT
__ehfuncinfo$?InitInstance@CAESApp@@UAEHXZ DQ 00000000b19930522r ; 2.35539e-313
	DD	FLAT:__unwindtable$?InitInstance@CAESApp@@UAEHXZ
	DQ	00000000000000000r		; 0
	DQ	00000000000000000r		; 0
	DQ	00000000100000000r		; 2.122e-314
__unwindtable$?InitInstance@CAESApp@@UAEHXZ DD 0ffffffffH
	DD	FLAT:__unwindfunclet$?InitInstance@CAESApp@@UAEHXZ$0
	DD	0ffffffffH
	DD	FLAT:__unwindfunclet$?InitInstance@CAESApp@@UAEHXZ$2
	DD	0ffffffffH
	DD	FLAT:__unwindfunclet$?InitInstance@CAESApp@@UAEHXZ$3
	DD	02H
	DD	FLAT:__unwindfunclet$?InitInstance@CAESApp@@UAEHXZ$4
	DD	03H
	DD	FLAT:__unwindfunclet$?InitInstance@CAESApp@@UAEHXZ$5
	DD	04H
	DD	FLAT:__unwindfunclet$?InitInstance@CAESApp@@UAEHXZ$6
	DD	05H
	DD	FLAT:__unwindfunclet$?InitInstance@CAESApp@@UAEHXZ$7
	DD	06H
	DD	FLAT:__unwindfunclet$?InitInstance@CAESApp@@UAEHXZ$11
	DD	07H
	DD	FLAT:__unwindfunclet$?InitInstance@CAESApp@@UAEHXZ$12
	DD	06H
	DD	FLAT:__unwindfunclet$?InitInstance@CAESApp@@UAEHXZ$8
	DD	0ffffffffH
	DD	FLAT:__unwindfunclet$?InitInstance@CAESApp@@UAEHXZ$1
xdata$x	ENDS
;	COMDAT xdata$x
xdata$x	SEGMENT
__ehfuncinfo$??1CAESDlg@@UAE@XZ DQ 00000000019930522r ; 2.11987e-315
	DQ	00000000000000000r		; 0
	DQ	00000000000000000r		; 0
	DQ	00000000000000000r		; 0
	DD	05H
xdata$x	ENDS
;	COMDAT xdata$x
xdata$x	SEGMENT
__unwindtable$??0?$CStringT@_WV?$StrTraitMFC@_WV?$ChTraitsCRT@_W@ATL@@@@@ATL@@QAE@PB_WPAUIAtlStringMgr@1@@Z DD 0ffffffffH
	DD	FLAT:__unwindfunclet$??0?$CStringT@_WV?$StrTraitMFC@_WV?$ChTraitsCRT@_W@ATL@@@@@ATL@@QAE@PB_WPAUIAtlStringMgr@1@@Z$0
__ehfuncinfo$??0?$CStringT@_WV?$StrTraitMFC@_WV?$ChTraitsCRT@_W@ATL@@@@@ATL@@QAE@PB_WPAUIAtlStringMgr@1@@Z DQ 00000000119930522r ; 2.33398e-314
	DD	FLAT:__unwindtable$??0?$CStringT@_WV?$StrTraitMFC@_WV?$ChTraitsCRT@_W@ATL@@@@@ATL@@QAE@PB_WPAUIAtlStringMgr@1@@Z
	DQ	00000000000000000r		; 0
	DQ	00000000000000000r		; 0
	DQ	00000000100000000r		; 2.122e-314
xdata$x	ENDS
;	COMDAT xdata$x
xdata$x	SEGMENT
__unwindtable$?FormatV@?$CStringT@_WV?$StrTraitMFC@_WV?$ChTraitsCRT@_W@ATL@@@@@ATL@@QAEXPB_WPAD@Z DD 0ffffffffH
	DD	FLAT:__unwindfunclet$?FormatV@?$CStringT@_WV?$StrTraitMFC@_WV?$ChTraitsCRT@_W@ATL@@@@@ATL@@QAEXPB_WPAD@Z$1
	DD	0ffffffffH
	DD	FLAT:__unwindfunclet$?FormatV@?$CStringT@_WV?$StrTraitMFC@_WV?$ChTraitsCRT@_W@ATL@@@@@ATL@@QAEXPB_WPAD@Z$0
__ehfuncinfo$?FormatV@?$CStringT@_WV?$StrTraitMFC@_WV?$ChTraitsCRT@_W@ATL@@@@@ATL@@QAEXPB_WPAD@Z DQ 00000000219930522r ; 4.45598e-314
	DD	FLAT:__unwindtable$?FormatV@?$CStringT@_WV?$StrTraitMFC@_WV?$ChTraitsCRT@_W@ATL@@@@@ATL@@QAEXPB_WPAD@Z
	DQ	00000000000000000r		; 0
	DQ	00000000000000000r		; 0
	DQ	00000000100000000r		; 2.122e-314
xdata$x	ENDS
;	COMDAT xdata$x
xdata$x	SEGMENT
__catchsym$??1CGdiObject@@UAE@XZ$3 DD 00H
	DD	FLAT:??_R0PAVCException@@@8
	DD	0fffffbe4H
	DD	FLAT:__catch$??1CGdiObject@@UAE@XZ$0
__tryblocktable$??1CGdiObject@@UAE@XZ DQ 00000000000000000r ; 0
	DQ	00000000100000002r		; 2.122e-314
	DD	FLAT:__catchsym$??1CGdiObject@@UAE@XZ$3
__unwindtable$??1CGdiObject@@UAE@XZ DQ 000000000ffffffffr ; 2.122e-314
	DQ	000000000ffffffffr		; 2.122e-314
	DD	01H
	DD	FLAT:__unwindfunclet$??1CGdiObject@@UAE@XZ$2
__ehfuncinfo$??1CGdiObject@@UAE@XZ DQ 00000000319930522r ; 6.57797e-314
	DD	FLAT:__unwindtable$??1CGdiObject@@UAE@XZ
	DD	01H
	DD	FLAT:__tryblocktable$??1CGdiObject@@UAE@XZ
	DQ	00000000000000000r		; 0
	DQ	00000000500000000r		; 1.061e-313
xdata$x	ENDS
CRT$XCU	ENDS
END
