; Listing generated by Microsoft (R) Optimizing Compiler Version 19.23.28106.4 

	TITLE	i:\projets\aes\aes\aes\aes.cpp
	.686P
	.XMM
	include listing.inc
	.model	flat

INCLUDELIB OLDNAMES

PUBLIC	??_C@_1O@ENKDEAMH@?$AAM?$AAy?$AA?5?$AAA?$AAE?$AAS@ ; `string'
PUBLIC	??_R2CAESApp@@8					; CAESApp::`RTTI Base Class Array'
PUBLIC	??_R2CWinApp@@8					; CWinApp::`RTTI Base Class Array'
PUBLIC	??_R2CWinThread@@8				; CWinThread::`RTTI Base Class Array'
PUBLIC	??_R1A@?0A@EA@CAESApp@@8			; CAESApp::`RTTI Base Class Descriptor at (0,-1,0,64)'
PUBLIC	??_R1A@?0A@EA@CWinApp@@8			; CWinApp::`RTTI Base Class Descriptor at (0,-1,0,64)'
PUBLIC	??_R0?AVCCmdTarget@@@8				; CCmdTarget `RTTI Type Descriptor'
PUBLIC	??_R2CCmdTarget@@8				; CCmdTarget::`RTTI Base Class Array'
PUBLIC	??_R3CCmdTarget@@8				; CCmdTarget::`RTTI Class Hierarchy Descriptor'
PUBLIC	??_R1A@?0A@EA@CCmdTarget@@8			; CCmdTarget::`RTTI Base Class Descriptor at (0,-1,0,64)'
PUBLIC	??_R1A@?0A@EA@CWinThread@@8			; CWinThread::`RTTI Base Class Descriptor at (0,-1,0,64)'
PUBLIC	??_R3CWinApp@@8					; CWinApp::`RTTI Class Hierarchy Descriptor'
PUBLIC	??_R0?AVCWinApp@@@8				; CWinApp `RTTI Type Descriptor'
PUBLIC	??_R3CWinThread@@8				; CWinThread::`RTTI Class Hierarchy Descriptor'
PUBLIC	??_R0?AVCWinThread@@@8				; CWinThread `RTTI Type Descriptor'
PUBLIC	??_R3CAESApp@@8					; CAESApp::`RTTI Class Hierarchy Descriptor'
PUBLIC	??_R0?AVCAESApp@@@8				; CAESApp `RTTI Type Descriptor'
PUBLIC	??_R4CAESApp@@6B@				; CAESApp::`RTTI Complete Object Locator'
PUBLIC	??_R0?AVCBrush@@@8				; CBrush `RTTI Type Descriptor'
PUBLIC	??_R1A@?0A@EA@CBrush@@8				; CBrush::`RTTI Base Class Descriptor at (0,-1,0,64)'
PUBLIC	??_R2CBrush@@8					; CBrush::`RTTI Base Class Array'
PUBLIC	??_R3CBrush@@8					; CBrush::`RTTI Class Hierarchy Descriptor'
PUBLIC	??_R4CBrush@@6B@				; CBrush::`RTTI Complete Object Locator'
PUBLIC	??_7CBrush@@6B@					; CBrush::`vftable'
PUBLIC	??_R0?AVCGdiObject@@@8				; CGdiObject `RTTI Type Descriptor'
PUBLIC	??_R1A@?0A@EA@CGdiObject@@8			; CGdiObject::`RTTI Base Class Descriptor at (0,-1,0,64)'
PUBLIC	??_R0?AVCObject@@@8				; CObject `RTTI Type Descriptor'
PUBLIC	??_R2CObject@@8					; CObject::`RTTI Base Class Array'
PUBLIC	??_R3CObject@@8					; CObject::`RTTI Class Hierarchy Descriptor'
PUBLIC	??_R1A@?0A@EA@CObject@@8			; CObject::`RTTI Base Class Descriptor at (0,-1,0,64)'
PUBLIC	??_R2CGdiObject@@8				; CGdiObject::`RTTI Base Class Array'
PUBLIC	??_R3CGdiObject@@8				; CGdiObject::`RTTI Class Hierarchy Descriptor'
PUBLIC	??_R4CGdiObject@@6B@				; CGdiObject::`RTTI Complete Object Locator'
PUBLIC	??_7CGdiObject@@6B@				; CGdiObject::`vftable'
PUBLIC	??_R0PAVCException@@@8				; CException * `RTTI Type Descriptor'
PUBLIC	??_C@_1CC@GGIAOFGJ@?$AA?$CF?$AAT?$AAs?$AA?5?$AA?$CI?$AA?$CF?$AAT?$AAs?$AA?3?$AA?$CF?$AAd?$AA?$CJ?$AA?6?$AA?$CF?$AAT@ ; `string'
PUBLIC	?_OptionsStorage@?1??__local_stdio_printf_options@@9@4_KA ; `__local_stdio_printf_options'::`2'::_OptionsStorage
PUBLIC	??_C@_1OI@KCHDAIJP@?$AAC?$AA?3?$AA?2?$AAP?$AAr?$AAo?$AAg?$AAr?$AAa?$AAm?$AA?5?$AAF?$AAi?$AAl?$AAe@ ; `string'
PUBLIC	??_C@_1DO@DFDGGJKE@?$AAE?$AAx?$AAc?$AAe?$AAp?$AAt?$AAi?$AAo?$AAn?$AA?5?$AAt?$AAh?$AAr?$AAo?$AAw@ ; `string'
PUBLIC	??_C@_1BK@CAEGKIAC@?$AA?$CF?$AAT?$AAs?$AA?5?$AA?$CI?$AA?$CF?$AAT?$AAs?$AA?3?$AA?$CF?$AAd?$AA?$CJ@ ; `string'
PUBLIC	??_7CAESApp@@6B@				; CAESApp::`vftable'
EXTRN	?LoadSysPolicies@CWinApp@@UAEHXZ:PROC		; CWinApp::LoadSysPolicies
EXTRN	?LoadAppLangResourceDLL@CWinApp@@UAEPAUHINSTANCE__@@XZ:PROC ; CWinApp::LoadAppLangResourceDLL
EXTRN	?RestartInstance@CWinApp@@UAEHXZ:PROC		; CWinApp::RestartInstance
EXTRN	?IsTaskbarInteractionEnabled@CWinApp@@UAEHXZ:PROC ; CWinApp::IsTaskbarInteractionEnabled
EXTRN	?GetDataRecoveryHandler@CWinApp@@UAEPAVCDataRecoveryHandler@@XZ:PROC ; CWinApp::GetDataRecoveryHandler
EXTRN	?ApplicationRecoveryCallback@CWinApp@@UAEKPAX@Z:PROC ; CWinApp::ApplicationRecoveryCallback
EXTRN	?RegisterWithRestartManager@CWinApp@@UAEJHABV?$CStringT@_WV?$StrTraitMFC@_WV?$ChTraitsCRT@_W@ATL@@@@@ATL@@@Z:PROC ; CWinApp::RegisterWithRestartManager
EXTRN	?RegisterWithRestartManager@CWinApp@@UAEJPB_WKP6GKPAX@Z1KK@Z:PROC ; CWinApp::RegisterWithRestartManager
EXTRN	?WinHelpInternal@CWinApp@@UAEXKI@Z:PROC		; CWinApp::WinHelpInternal
EXTRN	?HtmlHelpW@CWinApp@@UAEXKI@Z:PROC		; CWinApp::HtmlHelpW
EXTRN	?WinHelpW@CWinApp@@UAEXKI@Z:PROC		; CWinApp::WinHelpW
EXTRN	?OnDDECommand@CWinApp@@UAEHPA_W@Z:PROC		; CWinApp::OnDDECommand
EXTRN	?DoWaitCursor@CWinApp@@UAEXH@Z:PROC		; CWinApp::DoWaitCursor
EXTRN	?DoMessageBox@CWinApp@@UAEHPB_WII@Z:PROC	; CWinApp::DoMessageBox
EXTRN	?SaveAllModified@CWinApp@@UAEHXZ:PROC		; CWinApp::SaveAllModified
EXTRN	?InitApplication@CWinApp@@UAEHXZ:PROC		; CWinApp::InitApplication
EXTRN	?AddToRecentFileList@CWinApp@@UAEXPB_W@Z:PROC	; CWinApp::AddToRecentFileList
EXTRN	?OpenDocumentFile@CWinApp@@UAEPAVCDocument@@PB_W@Z:PROC ; CWinApp::OpenDocumentFile
EXTRN	?OpenDocumentFile@CWinApp@@UAEPAVCDocument@@PB_WH@Z:PROC ; CWinApp::OpenDocumentFile
EXTRN	?Unregister@CWinApp@@UAEHXZ:PROC		; CWinApp::Unregister
EXTRN	?Register@CWinApp@@UAEHXZ:PROC			; CWinApp::Register
EXTRN	?InitLibId@CWinApp@@UAEXXZ:PROC			; CWinApp::InitLibId
EXTRN	?WriteProfileBinary@CWinApp@@UAEHPB_W0PAEI@Z:PROC ; CWinApp::WriteProfileBinary
EXTRN	?GetProfileBinary@CWinApp@@UAEHPB_W0PAPAEPAI@Z:PROC ; CWinApp::GetProfileBinary
EXTRN	?WriteProfileStringW@CWinApp@@UAEHPB_W00@Z:PROC	; CWinApp::WriteProfileStringW
EXTRN	?GetProfileStringW@CWinApp@@UAE?AV?$CStringT@_WV?$StrTraitMFC@_WV?$ChTraitsCRT@_W@ATL@@@@@ATL@@PB_W00@Z:PROC ; CWinApp::GetProfileStringW
EXTRN	?WriteProfileInt@CWinApp@@UAEHPB_W0H@Z:PROC	; CWinApp::WriteProfileInt
EXTRN	?GetProfileIntW@CWinApp@@UAEIPB_W0H@Z:PROC	; CWinApp::GetProfileIntW
EXTRN	?Delete@CWinThread@@UAEXXZ:PROC			; CWinThread::Delete
EXTRN	?GetMainWnd@CWinThread@@UAEPAVCWnd@@XZ:PROC	; CWinThread::GetMainWnd
EXTRN	?ProcessMessageFilter@CWinThread@@UAEHHPAUtagMSG@@@Z:PROC ; CWinThread::ProcessMessageFilter
EXTRN	?ProcessWndProcException@CWinApp@@UAEJPAVCException@@PBUtagMSG@@@Z:PROC ; CWinApp::ProcessWndProcException
EXTRN	?ExitInstance@CWinApp@@UAEHXZ:PROC		; CWinApp::ExitInstance
EXTRN	?IsIdleMessage@CWinThread@@UAEHPAUtagMSG@@@Z:PROC ; CWinThread::IsIdleMessage
EXTRN	?OnIdle@CWinApp@@UAEHJ@Z:PROC			; CWinApp::OnIdle
EXTRN	?PumpMessage@CWinThread@@UAEHXZ:PROC		; CWinThread::PumpMessage
EXTRN	?PreTranslateMessage@CWinThread@@UAEHPAUtagMSG@@@Z:PROC ; CWinThread::PreTranslateMessage
EXTRN	?Run@CWinApp@@UAEHXZ:PROC			; CWinApp::Run
EXTRN	?GetConnectionHook@CCmdTarget@@MAEPAUIConnectionPoint@@ABU_GUID@@@Z:PROC ; CCmdTarget::GetConnectionHook
EXTRN	?GetExtraConnectionPoints@CCmdTarget@@MAEHPAVCPtrArray@@@Z:PROC ; CCmdTarget::GetExtraConnectionPoints
EXTRN	?GetInterfaceHook@CCmdTarget@@UAEPAUIUnknown@@PBX@Z:PROC ; CCmdTarget::GetInterfaceHook
EXTRN	?OnCreateAggregates@CCmdTarget@@UAEHXZ:PROC	; CCmdTarget::OnCreateAggregates
EXTRN	?GetEventSinkMap@CCmdTarget@@MBEPBUAFX_EVENTSINKMAP@@XZ:PROC ; CCmdTarget::GetEventSinkMap
EXTRN	?GetInterfaceMap@CCmdTarget@@MBEPBUAFX_INTERFACEMAP@@XZ:PROC ; CCmdTarget::GetInterfaceMap
EXTRN	?GetConnectionMap@CCmdTarget@@MBEPBUAFX_CONNECTIONMAP@@XZ:PROC ; CCmdTarget::GetConnectionMap
EXTRN	?GetDispatchMap@CCmdTarget@@MBEPBUAFX_DISPMAP@@XZ:PROC ; CCmdTarget::GetDispatchMap
EXTRN	?GetCommandMap@CCmdTarget@@MBEPBUAFX_OLECMDMAP@@XZ:PROC ; CCmdTarget::GetCommandMap
EXTRN	?GetTypeLib@CCmdTarget@@UAEJKPAPAUITypeLib@@@Z:PROC ; CCmdTarget::GetTypeLib
EXTRN	?GetTypeLibCache@CCmdTarget@@UAEPAVCTypeLibCache@@XZ:PROC ; CCmdTarget::GetTypeLibCache
EXTRN	?GetTypeInfoCount@CCmdTarget@@UAEIXZ:PROC	; CCmdTarget::GetTypeInfoCount
EXTRN	?GetDispatchIID@CCmdTarget@@UAEHPAU_GUID@@@Z:PROC ; CCmdTarget::GetDispatchIID
EXTRN	?IsInvokeAllowed@CCmdTarget@@UAEHJ@Z:PROC	; CCmdTarget::IsInvokeAllowed
EXTRN	?OnFinalRelease@CCmdTarget@@UAEXXZ:PROC		; CCmdTarget::OnFinalRelease
EXTRN	?OnCmdMsg@CCmdTarget@@UAEHIHPAXPAUAFX_CMDHANDLERINFO@@@Z:PROC ; CCmdTarget::OnCmdMsg
EXTRN	?GetRuntimeClass@CWinApp@@UBEPAUCRuntimeClass@@XZ:PROC ; CWinApp::GetRuntimeClass
EXTRN	??1CDialogImpl@@MAE@XZ:PROC			; CDialogImpl::~CDialogImpl
EXTRN	?GetRuntimeClass@CBrush@@UBEPAUCRuntimeClass@@XZ:PROC ; CBrush::GetRuntimeClass
EXTRN	?GetRuntimeClass@CGdiObject@@UBEPAUCRuntimeClass@@XZ:PROC ; CGdiObject::GetRuntimeClass
EXTRN	?DeleteObject@CGdiObject@@QAEHXZ:PROC		; CGdiObject::DeleteObject
EXTRN	??_7type_info@@6B@:QWORD			; type_info::`vftable'
EXTRN	?AfxGetStringManager@@YGPAUIAtlStringMgr@ATL@@XZ:PROC ; AfxGetStringManager
EXTRN	___stdio_common_vswprintf:PROC
EXTRN	__errno:PROC
EXTRN	__invalid_parameter_noinfo:PROC
EXTRN	___stdio_common_vswprintf_s:PROC
EXTRN	?AfxThrowMemoryException@@YGXXZ:PROC		; AfxThrowMemoryException
EXTRN	?AfxThrowOleException@@YGXJ@Z:PROC		; AfxThrowOleException
EXTRN	?AfxMessageBox@@YGHPB_WII@Z:PROC		; AfxMessageBox
EXTRN	??1CDialog@@UAE@XZ:PROC				; CDialog::~CDialog
EXTRN	?DoModal@CDialog@@UAEHXZ:PROC			; CDialog::DoModal
EXTRN	?SetRegistryKey@CWinApp@@IAEXPB_W@Z:PROC	; CWinApp::SetRegistryKey
EXTRN	?classCMFCVisualManagerWindows@CMFCVisualManagerWindows@@2UCRuntimeClass@@B:BYTE ; CMFCVisualManagerWindows::classCMFCVisualManagerWindows
EXTRN	?SetDefaultManager@CMFCVisualManager@@SGXPAUCRuntimeClass@@@Z:PROC ; CMFCVisualManager::SetDefaultManager
EXTRN	??0CShellManager@@QAE@XZ:PROC			; CShellManager::CShellManager
EXTRN	__set_new_mode:PROC
EXTRN	?AfxEnableControlContainer@@YAXPAVCOccManager@@@Z:PROC ; AfxEnableControlContainer
EXTRN	?InitInstance@CWinApp@@UAEHXZ:PROC		; CWinApp::InitInstance
EXTRN	__imp__InitCommonControlsEx@4:PROC
EXTRN	__imp__ChangeWindowMessageFilter@8:PROC
EXTRN	_atexit:PROC
EXTRN	??3@YAXPAX@Z:PROC				; operator delete
EXTRN	??1CWinApp@@UAE@XZ:PROC				; CWinApp::~CWinApp
EXTRN	??0CWinApp@@QAE@PB_W@Z:PROC			; CWinApp::CWinApp
EXTRN	__imp__LocalFree@4:PROC
EXTRN	__imp__GetCommandLineW@0:PROC
EXTRN	__imp__CommandLineToArgvW@8:PROC
EXTRN	___std_terminate:PROC
EXTRN	??3@YAXPAXI@Z:PROC				; operator delete
EXTRN	??2@YAPAXI@Z:PROC				; operator new
EXTRN	?GetThisMessageMap@CWinApp@@KGPBUAFX_MSGMAP@@XZ:PROC ; CWinApp::GetThisMessageMap
EXTRN	?OnHelp@CWinApp@@IAEXXZ:PROC			; CWinApp::OnHelp
EXTRN	@__security_check_cookie@4:PROC
EXTRN	___CxxFrameHandler3:PROC
;	COMDAT ?_OptionsStorage@?1??__local_stdio_printf_options@@9@4_KA
_BSS	SEGMENT
?_OptionsStorage@?1??__local_stdio_printf_options@@9@4_KA DQ 01H DUP (?) ; `__local_stdio_printf_options'::`2'::_OptionsStorage
_BSS	ENDS
;	COMDAT ?_messageEntries@?1??GetThisMessageMap@CAESApp@@KGPBUAFX_MSGMAP@@XZ@4QBUAFX_MSGMAP_ENTRY@@B
CONST	SEGMENT
?_messageEntries@?1??GetThisMessageMap@CAESApp@@KGPBUAFX_MSGMAP@@XZ@4QBUAFX_MSGMAP_ENTRY@@B DD 0111H ; `CAESApp::GetThisMessageMap'::`2'::_messageEntries
	DD	00H
	DD	0e146H
	DD	0e146H
	DD	03aH
	DD	FLAT:?OnHelp@CWinApp@@IAEXXZ
	DD	00H
	DD	00H
	DD	00H
	DD	00H
	DD	00H
	DD	00H
CONST	ENDS
;	COMDAT ?messageMap@?1??GetThisMessageMap@CAESApp@@KGPBUAFX_MSGMAP@@XZ@4U3@B
CONST	SEGMENT
?messageMap@?1??GetThisMessageMap@CAESApp@@KGPBUAFX_MSGMAP@@XZ@4U3@B DD FLAT:?GetThisMessageMap@CWinApp@@KGPBUAFX_MSGMAP@@XZ ; `CAESApp::GetThisMessageMap'::`2'::messageMap
	DD	FLAT:?_messageEntries@?1??GetThisMessageMap@CAESApp@@KGPBUAFX_MSGMAP@@XZ@4QBUAFX_MSGMAP_ENTRY@@B
CONST	ENDS
;	COMDAT ??_7CAESApp@@6B@
CONST	SEGMENT
??_7CAESApp@@6B@ DD FLAT:??_R4CAESApp@@6B@		; CAESApp::`vftable'
	DD	FLAT:?GetRuntimeClass@CWinApp@@UBEPAUCRuntimeClass@@XZ
	DD	FLAT:??_ECAESApp@@UAEPAXI@Z
	DD	FLAT:?Serialize@CObject@@UAEXAAVCArchive@@@Z
	DD	FLAT:?OnCmdMsg@CCmdTarget@@UAEHIHPAXPAUAFX_CMDHANDLERINFO@@@Z
	DD	FLAT:?OnFinalRelease@CCmdTarget@@UAEXXZ
	DD	FLAT:?IsInvokeAllowed@CCmdTarget@@UAEHJ@Z
	DD	FLAT:?GetDispatchIID@CCmdTarget@@UAEHPAU_GUID@@@Z
	DD	FLAT:?GetTypeInfoCount@CCmdTarget@@UAEIXZ
	DD	FLAT:?GetTypeLibCache@CCmdTarget@@UAEPAVCTypeLibCache@@XZ
	DD	FLAT:?GetTypeLib@CCmdTarget@@UAEJKPAPAUITypeLib@@@Z
	DD	FLAT:?GetMessageMap@CAESApp@@MBEPBUAFX_MSGMAP@@XZ
	DD	FLAT:?GetCommandMap@CCmdTarget@@MBEPBUAFX_OLECMDMAP@@XZ
	DD	FLAT:?GetDispatchMap@CCmdTarget@@MBEPBUAFX_DISPMAP@@XZ
	DD	FLAT:?GetConnectionMap@CCmdTarget@@MBEPBUAFX_CONNECTIONMAP@@XZ
	DD	FLAT:?GetInterfaceMap@CCmdTarget@@MBEPBUAFX_INTERFACEMAP@@XZ
	DD	FLAT:?GetEventSinkMap@CCmdTarget@@MBEPBUAFX_EVENTSINKMAP@@XZ
	DD	FLAT:?OnCreateAggregates@CCmdTarget@@UAEHXZ
	DD	FLAT:?GetInterfaceHook@CCmdTarget@@UAEPAUIUnknown@@PBX@Z
	DD	FLAT:?GetExtraConnectionPoints@CCmdTarget@@MAEHPAVCPtrArray@@@Z
	DD	FLAT:?GetConnectionHook@CCmdTarget@@MAEPAUIConnectionPoint@@ABU_GUID@@@Z
	DD	FLAT:?InitInstance@CAESApp@@UAEHXZ
	DD	FLAT:?Run@CWinApp@@UAEHXZ
	DD	FLAT:?PreTranslateMessage@CWinThread@@UAEHPAUtagMSG@@@Z
	DD	FLAT:?PumpMessage@CWinThread@@UAEHXZ
	DD	FLAT:?OnIdle@CWinApp@@UAEHJ@Z
	DD	FLAT:?IsIdleMessage@CWinThread@@UAEHPAUtagMSG@@@Z
	DD	FLAT:?ExitInstance@CWinApp@@UAEHXZ
	DD	FLAT:?ProcessWndProcException@CWinApp@@UAEJPAVCException@@PBUtagMSG@@@Z
	DD	FLAT:?ProcessMessageFilter@CWinThread@@UAEHHPAUtagMSG@@@Z
	DD	FLAT:?GetMainWnd@CWinThread@@UAEPAVCWnd@@XZ
	DD	FLAT:?Delete@CWinThread@@UAEXXZ
	DD	FLAT:?GetProfileIntW@CWinApp@@UAEIPB_W0H@Z
	DD	FLAT:?WriteProfileInt@CWinApp@@UAEHPB_W0H@Z
	DD	FLAT:?GetProfileStringW@CWinApp@@UAE?AV?$CStringT@_WV?$StrTraitMFC@_WV?$ChTraitsCRT@_W@ATL@@@@@ATL@@PB_W00@Z
	DD	FLAT:?WriteProfileStringW@CWinApp@@UAEHPB_W00@Z
	DD	FLAT:?GetProfileBinary@CWinApp@@UAEHPB_W0PAPAEPAI@Z
	DD	FLAT:?WriteProfileBinary@CWinApp@@UAEHPB_W0PAEI@Z
	DD	FLAT:?InitLibId@CWinApp@@UAEXXZ
	DD	FLAT:?Register@CWinApp@@UAEHXZ
	DD	FLAT:?Unregister@CWinApp@@UAEHXZ
	DD	FLAT:?OpenDocumentFile@CWinApp@@UAEPAVCDocument@@PB_WH@Z
	DD	FLAT:?OpenDocumentFile@CWinApp@@UAEPAVCDocument@@PB_W@Z
	DD	FLAT:?AddToRecentFileList@CWinApp@@UAEXPB_W@Z
	DD	FLAT:?InitApplication@CWinApp@@UAEHXZ
	DD	FLAT:?SaveAllModified@CWinApp@@UAEHXZ
	DD	FLAT:?DoMessageBox@CWinApp@@UAEHPB_WII@Z
	DD	FLAT:?DoWaitCursor@CWinApp@@UAEXH@Z
	DD	FLAT:?OnDDECommand@CWinApp@@UAEHPA_W@Z
	DD	FLAT:?WinHelpW@CWinApp@@UAEXKI@Z
	DD	FLAT:?HtmlHelpW@CWinApp@@UAEXKI@Z
	DD	FLAT:?WinHelpInternal@CWinApp@@UAEXKI@Z
	DD	FLAT:?RegisterWithRestartManager@CWinApp@@UAEJPB_WKP6GKPAX@Z1KK@Z
	DD	FLAT:?RegisterWithRestartManager@CWinApp@@UAEJHABV?$CStringT@_WV?$StrTraitMFC@_WV?$ChTraitsCRT@_W@ATL@@@@@ATL@@@Z
	DD	FLAT:?ApplicationRecoveryCallback@CWinApp@@UAEKPAX@Z
	DD	FLAT:?SupportsRestartManager@CWinApp@@UBEHXZ
	DD	FLAT:?SupportsApplicationRecovery@CWinApp@@UBEHXZ
	DD	FLAT:?SupportsAutosaveAtRestart@CWinApp@@UBEHXZ
	DD	FLAT:?SupportsAutosaveAtInterval@CWinApp@@UBEHXZ
	DD	FLAT:?ReopenPreviousFilesAtRestart@CWinApp@@UBEHXZ
	DD	FLAT:?RestoreAutosavedFilesAtRestart@CWinApp@@UBEHXZ
	DD	FLAT:?GetApplicationRestartFlags@CWinApp@@UAEKXZ
	DD	FLAT:?GetApplicationRecoveryParameter@CWinApp@@UAEPAXXZ
	DD	FLAT:?GetApplicationRecoveryPingInterval@CWinApp@@UAEKXZ
	DD	FLAT:?GetDataRecoveryHandler@CWinApp@@UAEPAVCDataRecoveryHandler@@XZ
	DD	FLAT:?IsTaskbarInteractionEnabled@CWinApp@@UAEHXZ
	DD	FLAT:?RestartInstance@CWinApp@@UAEHXZ
	DD	FLAT:?LoadAppLangResourceDLL@CWinApp@@UAEPAUHINSTANCE__@@XZ
	DD	FLAT:?LoadSysPolicies@CWinApp@@UAEHXZ
CONST	ENDS
;	COMDAT ??_C@_1BK@CAEGKIAC@?$AA?$CF?$AAT?$AAs?$AA?5?$AA?$CI?$AA?$CF?$AAT?$AAs?$AA?3?$AA?$CF?$AAd?$AA?$CJ@
CONST	SEGMENT
??_C@_1BK@CAEGKIAC@?$AA?$CF?$AAT?$AAs?$AA?5?$AA?$CI?$AA?$CF?$AAT?$AAs?$AA?3?$AA?$CF?$AAd?$AA?$CJ@ DB '%'
	DB	00H, 'T', 00H, 's', 00H, ' ', 00H, '(', 00H, '%', 00H, 'T', 00H
	DB	's', 00H, ':', 00H, '%', 00H, 'd', 00H, ')', 00H, 00H, 00H ; `string'
CONST	ENDS
;	COMDAT ??_C@_1DO@DFDGGJKE@?$AAE?$AAx?$AAc?$AAe?$AAp?$AAt?$AAi?$AAo?$AAn?$AA?5?$AAt?$AAh?$AAr?$AAo?$AAw@
CONST	SEGMENT
??_C@_1DO@DFDGGJKE@?$AAE?$AAx?$AAc?$AAe?$AAp?$AAt?$AAi?$AAo?$AAn?$AA?5?$AAt?$AAh?$AAr?$AAo?$AAw@ DB 'E'
	DB	00H, 'x', 00H, 'c', 00H, 'e', 00H, 'p', 00H, 't', 00H, 'i', 00H
	DB	'o', 00H, 'n', 00H, ' ', 00H, 't', 00H, 'h', 00H, 'r', 00H, 'o'
	DB	00H, 'w', 00H, 'n', 00H, ' ', 00H, 'i', 00H, 'n', 00H, ' ', 00H
	DB	'd', 00H, 'e', 00H, 's', 00H, 't', 00H, 'r', 00H, 'u', 00H, 'c'
	DB	00H, 't', 00H, 'o', 00H, 'r', 00H, 00H, 00H	; `string'
CONST	ENDS
;	COMDAT ??_C@_1OI@KCHDAIJP@?$AAC?$AA?3?$AA?2?$AAP?$AAr?$AAo?$AAg?$AAr?$AAa?$AAm?$AA?5?$AAF?$AAi?$AAl?$AAe@
CONST	SEGMENT
??_C@_1OI@KCHDAIJP@?$AAC?$AA?3?$AA?2?$AAP?$AAr?$AAo?$AAg?$AAr?$AAa?$AAm?$AA?5?$AAF?$AAi?$AAl?$AAe@ DB 'C'
	DB	00H, ':', 00H, '\', 00H, 'P', 00H, 'r', 00H, 'o', 00H, 'g', 00H
	DB	'r', 00H, 'a', 00H, 'm', 00H, ' ', 00H, 'F', 00H, 'i', 00H, 'l'
	DB	00H, 'e', 00H, 's', 00H, ' ', 00H, '(', 00H, 'x', 00H, '8', 00H
	DB	'6', 00H, ')', 00H, '\', 00H, 'M', 00H, 'i', 00H, 'c', 00H, 'r'
	DB	00H, 'o', 00H, 's', 00H, 'o', 00H, 'f', 00H, 't', 00H, ' ', 00H
	DB	'V', 00H, 'i', 00H, 's', 00H, 'u', 00H, 'a', 00H, 'l', 00H, ' '
	DB	00H, 'S', 00H, 't', 00H, 'u', 00H, 'd', 00H, 'i', 00H, 'o', 00H
	DB	'\', 00H, '2', 00H, '0', 00H, '1', 00H, '9', 00H, '\', 00H, 'E'
	DB	00H, 'n', 00H, 't', 00H, 'e', 00H, 'r', 00H, 'p', 00H, 'r', 00H
	DB	'i', 00H, 's', 00H, 'e', 00H, '\', 00H, 'V', 00H, 'C', 00H, '\'
	DB	00H, 'T', 00H, 'o', 00H, 'o', 00H, 'l', 00H, 's', 00H, '\', 00H
	DB	'M', 00H, 'S', 00H, 'V', 00H, 'C', 00H, '\', 00H, '1', 00H, '4'
	DB	00H, '.', 00H, '2', 00H, '3', 00H, '.', 00H, '2', 00H, '8', 00H
	DB	'1', 00H, '0', 00H, '5', 00H, '\', 00H, 'a', 00H, 't', 00H, 'l'
	DB	00H, 'm', 00H, 'f', 00H, 'c', 00H, '\', 00H, 'i', 00H, 'n', 00H
	DB	'c', 00H, 'l', 00H, 'u', 00H, 'd', 00H, 'e', 00H, '\', 00H, 'a'
	DB	00H, 'f', 00H, 'x', 00H, 'w', 00H, 'i', 00H, 'n', 00H, '1', 00H
	DB	'.', 00H, 'i', 00H, 'n', 00H, 'l', 00H, 00H, 00H ; `string'
CONST	ENDS
;	COMDAT ??_C@_1CC@GGIAOFGJ@?$AA?$CF?$AAT?$AAs?$AA?5?$AA?$CI?$AA?$CF?$AAT?$AAs?$AA?3?$AA?$CF?$AAd?$AA?$CJ?$AA?6?$AA?$CF?$AAT@
CONST	SEGMENT
??_C@_1CC@GGIAOFGJ@?$AA?$CF?$AAT?$AAs?$AA?5?$AA?$CI?$AA?$CF?$AAT?$AAs?$AA?3?$AA?$CF?$AAd?$AA?$CJ?$AA?6?$AA?$CF?$AAT@ DB '%'
	DB	00H, 'T', 00H, 's', 00H, ' ', 00H, '(', 00H, '%', 00H, 'T', 00H
	DB	's', 00H, ':', 00H, '%', 00H, 'd', 00H, ')', 00H, 0aH, 00H, '%'
	DB	00H, 'T', 00H, 's', 00H, 00H, 00H		; `string'
CONST	ENDS
;	COMDAT ??_R0PAVCException@@@8
data$r	SEGMENT
??_R0PAVCException@@@8 DD FLAT:??_7type_info@@6B@	; CException * `RTTI Type Descriptor'
	DD	00H
	DB	'.PAVCException@@', 00H
data$r	ENDS
;	COMDAT ??_7CGdiObject@@6B@
CONST	SEGMENT
??_7CGdiObject@@6B@ DD FLAT:??_R4CGdiObject@@6B@	; CGdiObject::`vftable'
	DD	FLAT:?GetRuntimeClass@CGdiObject@@UBEPAUCRuntimeClass@@XZ
	DD	FLAT:??_ECGdiObject@@UAEPAXI@Z
	DD	FLAT:?Serialize@CObject@@UAEXAAVCArchive@@@Z
CONST	ENDS
;	COMDAT ??_R4CGdiObject@@6B@
rdata$r	SEGMENT
??_R4CGdiObject@@6B@ DD 00H				; CGdiObject::`RTTI Complete Object Locator'
	DD	00H
	DD	00H
	DD	FLAT:??_R0?AVCGdiObject@@@8
	DD	FLAT:??_R3CGdiObject@@8
rdata$r	ENDS
;	COMDAT ??_R3CGdiObject@@8
rdata$r	SEGMENT
??_R3CGdiObject@@8 DD 00H				; CGdiObject::`RTTI Class Hierarchy Descriptor'
	DD	00H
	DD	02H
	DD	FLAT:??_R2CGdiObject@@8
rdata$r	ENDS
;	COMDAT ??_R2CGdiObject@@8
rdata$r	SEGMENT
??_R2CGdiObject@@8 DD FLAT:??_R1A@?0A@EA@CGdiObject@@8	; CGdiObject::`RTTI Base Class Array'
	DD	FLAT:??_R1A@?0A@EA@CObject@@8
rdata$r	ENDS
;	COMDAT ??_R1A@?0A@EA@CObject@@8
rdata$r	SEGMENT
??_R1A@?0A@EA@CObject@@8 DD FLAT:??_R0?AVCObject@@@8	; CObject::`RTTI Base Class Descriptor at (0,-1,0,64)'
	DD	00H
	DD	00H
	DD	0ffffffffH
	DD	00H
	DD	040H
	DD	FLAT:??_R3CObject@@8
rdata$r	ENDS
;	COMDAT ??_R3CObject@@8
rdata$r	SEGMENT
??_R3CObject@@8 DD 00H					; CObject::`RTTI Class Hierarchy Descriptor'
	DD	00H
	DD	01H
	DD	FLAT:??_R2CObject@@8
rdata$r	ENDS
;	COMDAT ??_R2CObject@@8
rdata$r	SEGMENT
??_R2CObject@@8 DD FLAT:??_R1A@?0A@EA@CObject@@8	; CObject::`RTTI Base Class Array'
rdata$r	ENDS
;	COMDAT ??_R0?AVCObject@@@8
data$r	SEGMENT
??_R0?AVCObject@@@8 DD FLAT:??_7type_info@@6B@		; CObject `RTTI Type Descriptor'
	DD	00H
	DB	'.?AVCObject@@', 00H
data$r	ENDS
;	COMDAT ??_R1A@?0A@EA@CGdiObject@@8
rdata$r	SEGMENT
??_R1A@?0A@EA@CGdiObject@@8 DD FLAT:??_R0?AVCGdiObject@@@8 ; CGdiObject::`RTTI Base Class Descriptor at (0,-1,0,64)'
	DD	01H
	DD	00H
	DD	0ffffffffH
	DD	00H
	DD	040H
	DD	FLAT:??_R3CGdiObject@@8
rdata$r	ENDS
;	COMDAT ??_R0?AVCGdiObject@@@8
data$r	SEGMENT
??_R0?AVCGdiObject@@@8 DD FLAT:??_7type_info@@6B@	; CGdiObject `RTTI Type Descriptor'
	DD	00H
	DB	'.?AVCGdiObject@@', 00H
data$r	ENDS
;	COMDAT ??_7CBrush@@6B@
CONST	SEGMENT
??_7CBrush@@6B@ DD FLAT:??_R4CBrush@@6B@		; CBrush::`vftable'
	DD	FLAT:?GetRuntimeClass@CBrush@@UBEPAUCRuntimeClass@@XZ
	DD	FLAT:??_ECBrush@@UAEPAXI@Z
	DD	FLAT:?Serialize@CObject@@UAEXAAVCArchive@@@Z
CONST	ENDS
;	COMDAT ??_R4CBrush@@6B@
rdata$r	SEGMENT
??_R4CBrush@@6B@ DD 00H					; CBrush::`RTTI Complete Object Locator'
	DD	00H
	DD	00H
	DD	FLAT:??_R0?AVCBrush@@@8
	DD	FLAT:??_R3CBrush@@8
rdata$r	ENDS
;	COMDAT ??_R3CBrush@@8
rdata$r	SEGMENT
??_R3CBrush@@8 DD 00H					; CBrush::`RTTI Class Hierarchy Descriptor'
	DD	00H
	DD	03H
	DD	FLAT:??_R2CBrush@@8
rdata$r	ENDS
;	COMDAT ??_R2CBrush@@8
rdata$r	SEGMENT
??_R2CBrush@@8 DD FLAT:??_R1A@?0A@EA@CBrush@@8		; CBrush::`RTTI Base Class Array'
	DD	FLAT:??_R1A@?0A@EA@CGdiObject@@8
	DD	FLAT:??_R1A@?0A@EA@CObject@@8
rdata$r	ENDS
;	COMDAT ??_R1A@?0A@EA@CBrush@@8
rdata$r	SEGMENT
??_R1A@?0A@EA@CBrush@@8 DD FLAT:??_R0?AVCBrush@@@8	; CBrush::`RTTI Base Class Descriptor at (0,-1,0,64)'
	DD	02H
	DD	00H
	DD	0ffffffffH
	DD	00H
	DD	040H
	DD	FLAT:??_R3CBrush@@8
rdata$r	ENDS
;	COMDAT ??_R0?AVCBrush@@@8
data$r	SEGMENT
??_R0?AVCBrush@@@8 DD FLAT:??_7type_info@@6B@		; CBrush `RTTI Type Descriptor'
	DD	00H
	DB	'.?AVCBrush@@', 00H
data$r	ENDS
;	COMDAT ??_R4CAESApp@@6B@
rdata$r	SEGMENT
??_R4CAESApp@@6B@ DD 00H				; CAESApp::`RTTI Complete Object Locator'
	DD	00H
	DD	00H
	DD	FLAT:??_R0?AVCAESApp@@@8
	DD	FLAT:??_R3CAESApp@@8
rdata$r	ENDS
;	COMDAT ??_R0?AVCAESApp@@@8
data$r	SEGMENT
??_R0?AVCAESApp@@@8 DD FLAT:??_7type_info@@6B@		; CAESApp `RTTI Type Descriptor'
	DD	00H
	DB	'.?AVCAESApp@@', 00H
data$r	ENDS
;	COMDAT ??_R3CAESApp@@8
rdata$r	SEGMENT
??_R3CAESApp@@8 DD 00H					; CAESApp::`RTTI Class Hierarchy Descriptor'
	DD	00H
	DD	05H
	DD	FLAT:??_R2CAESApp@@8
rdata$r	ENDS
;	COMDAT ??_R0?AVCWinThread@@@8
data$r	SEGMENT
??_R0?AVCWinThread@@@8 DD FLAT:??_7type_info@@6B@	; CWinThread `RTTI Type Descriptor'
	DD	00H
	DB	'.?AVCWinThread@@', 00H
data$r	ENDS
;	COMDAT ??_R3CWinThread@@8
rdata$r	SEGMENT
??_R3CWinThread@@8 DD 00H				; CWinThread::`RTTI Class Hierarchy Descriptor'
	DD	00H
	DD	03H
	DD	FLAT:??_R2CWinThread@@8
rdata$r	ENDS
;	COMDAT ??_R0?AVCWinApp@@@8
data$r	SEGMENT
??_R0?AVCWinApp@@@8 DD FLAT:??_7type_info@@6B@		; CWinApp `RTTI Type Descriptor'
	DD	00H
	DB	'.?AVCWinApp@@', 00H
data$r	ENDS
;	COMDAT ??_R3CWinApp@@8
rdata$r	SEGMENT
??_R3CWinApp@@8 DD 00H					; CWinApp::`RTTI Class Hierarchy Descriptor'
	DD	00H
	DD	04H
	DD	FLAT:??_R2CWinApp@@8
rdata$r	ENDS
;	COMDAT ??_R1A@?0A@EA@CWinThread@@8
rdata$r	SEGMENT
??_R1A@?0A@EA@CWinThread@@8 DD FLAT:??_R0?AVCWinThread@@@8 ; CWinThread::`RTTI Base Class Descriptor at (0,-1,0,64)'
	DD	02H
	DD	00H
	DD	0ffffffffH
	DD	00H
	DD	040H
	DD	FLAT:??_R3CWinThread@@8
rdata$r	ENDS
;	COMDAT ??_R1A@?0A@EA@CCmdTarget@@8
rdata$r	SEGMENT
??_R1A@?0A@EA@CCmdTarget@@8 DD FLAT:??_R0?AVCCmdTarget@@@8 ; CCmdTarget::`RTTI Base Class Descriptor at (0,-1,0,64)'
	DD	01H
	DD	00H
	DD	0ffffffffH
	DD	00H
	DD	040H
	DD	FLAT:??_R3CCmdTarget@@8
rdata$r	ENDS
;	COMDAT ??_R3CCmdTarget@@8
rdata$r	SEGMENT
??_R3CCmdTarget@@8 DD 00H				; CCmdTarget::`RTTI Class Hierarchy Descriptor'
	DD	00H
	DD	02H
	DD	FLAT:??_R2CCmdTarget@@8
rdata$r	ENDS
;	COMDAT ??_R2CCmdTarget@@8
rdata$r	SEGMENT
??_R2CCmdTarget@@8 DD FLAT:??_R1A@?0A@EA@CCmdTarget@@8	; CCmdTarget::`RTTI Base Class Array'
	DD	FLAT:??_R1A@?0A@EA@CObject@@8
rdata$r	ENDS
;	COMDAT ??_R0?AVCCmdTarget@@@8
data$r	SEGMENT
??_R0?AVCCmdTarget@@@8 DD FLAT:??_7type_info@@6B@	; CCmdTarget `RTTI Type Descriptor'
	DD	00H
	DB	'.?AVCCmdTarget@@', 00H
data$r	ENDS
;	COMDAT ??_R1A@?0A@EA@CWinApp@@8
rdata$r	SEGMENT
??_R1A@?0A@EA@CWinApp@@8 DD FLAT:??_R0?AVCWinApp@@@8	; CWinApp::`RTTI Base Class Descriptor at (0,-1,0,64)'
	DD	03H
	DD	00H
	DD	0ffffffffH
	DD	00H
	DD	040H
	DD	FLAT:??_R3CWinApp@@8
rdata$r	ENDS
;	COMDAT ??_R1A@?0A@EA@CAESApp@@8
rdata$r	SEGMENT
??_R1A@?0A@EA@CAESApp@@8 DD FLAT:??_R0?AVCAESApp@@@8	; CAESApp::`RTTI Base Class Descriptor at (0,-1,0,64)'
	DD	04H
	DD	00H
	DD	0ffffffffH
	DD	00H
	DD	040H
	DD	FLAT:??_R3CAESApp@@8
rdata$r	ENDS
;	COMDAT ??_R2CWinThread@@8
rdata$r	SEGMENT
??_R2CWinThread@@8 DD FLAT:??_R1A@?0A@EA@CWinThread@@8	; CWinThread::`RTTI Base Class Array'
	DD	FLAT:??_R1A@?0A@EA@CCmdTarget@@8
	DD	FLAT:??_R1A@?0A@EA@CObject@@8
rdata$r	ENDS
;	COMDAT ??_R2CWinApp@@8
rdata$r	SEGMENT
??_R2CWinApp@@8 DD FLAT:??_R1A@?0A@EA@CWinApp@@8	; CWinApp::`RTTI Base Class Array'
	DD	FLAT:??_R1A@?0A@EA@CWinThread@@8
	DD	FLAT:??_R1A@?0A@EA@CCmdTarget@@8
	DD	FLAT:??_R1A@?0A@EA@CObject@@8
rdata$r	ENDS
;	COMDAT ??_R2CAESApp@@8
rdata$r	SEGMENT
??_R2CAESApp@@8 DD FLAT:??_R1A@?0A@EA@CAESApp@@8	; CAESApp::`RTTI Base Class Array'
	DD	FLAT:??_R1A@?0A@EA@CWinApp@@8
	DD	FLAT:??_R1A@?0A@EA@CWinThread@@8
	DD	FLAT:??_R1A@?0A@EA@CCmdTarget@@8
	DD	FLAT:??_R1A@?0A@EA@CObject@@8
rdata$r	ENDS
;	COMDAT ??_C@_1O@ENKDEAMH@?$AAM?$AAy?$AA?5?$AAA?$AAE?$AAS@
CONST	SEGMENT
??_C@_1O@ENKDEAMH@?$AAM?$AAy?$AA?5?$AAA?$AAE?$AAS@ DB 'M', 00H, 'y', 00H, ' '
	DB	00H, 'A', 00H, 'E', 00H, 'S', 00H, 00H, 00H	; `string'
CONST	ENDS
PUBLIC	??3CObject@@SGXPAX@Z				; CObject::operator delete
PUBLIC	??2CObject@@SGPAXI@Z				; CObject::operator new
PUBLIC	??1?$CStringT@_WV?$StrTraitMFC@_WV?$ChTraitsCRT@_W@ATL@@@@@ATL@@QAE@XZ ; ATL::CStringT<wchar_t,StrTraitMFC<wchar_t,ATL::ChTraitsCRT<wchar_t> > >::~CStringT<wchar_t,StrTraitMFC<wchar_t,ATL::ChTraitsCRT<wchar_t> > >
PUBLIC	??1?$CSimpleStringT@_W$0A@@ATL@@QAE@XZ		; ATL::CSimpleStringT<wchar_t,0>::~CSimpleStringT<wchar_t,0>
PUBLIC	?Release@CStringData@ATL@@QAEXXZ		; ATL::CStringData::Release
PUBLIC	?GetData@?$CSimpleStringT@_W$0A@@ATL@@ABEPAUCStringData@2@XZ ; ATL::CSimpleStringT<wchar_t,0>::GetData
PUBLIC	??1CBrush@@UAE@XZ				; CBrush::~CBrush
PUBLIC	??1CGdiObject@@UAE@XZ				; CGdiObject::~CGdiObject
PUBLIC	??1CObject@@UAE@XZ				; CObject::~CObject
PUBLIC	??B?$CSimpleStringT@_W$0A@@ATL@@QBEPB_WXZ	; ATL::CSimpleStringT<wchar_t,0>::operator wchar_t const *
PUBLIC	?Format@?$CStringT@_WV?$StrTraitMFC@_WV?$ChTraitsCRT@_W@ATL@@@@@ATL@@QAAXPB_WZZ ; ATL::CStringT<wchar_t,StrTraitMFC<wchar_t,ATL::ChTraitsCRT<wchar_t> > >::Format
PUBLIC	?FormatV@?$CStringT@_WV?$StrTraitMFC@_WV?$ChTraitsCRT@_W@ATL@@@@@ATL@@QAEXPB_WPAD@Z ; ATL::CStringT<wchar_t,StrTraitMFC<wchar_t,ATL::ChTraitsCRT<wchar_t> > >::FormatV
PUBLIC	?ReleaseBufferSetLength@?$CSimpleStringT@_W$0A@@ATL@@QAEXH@Z ; ATL::CSimpleStringT<wchar_t,0>::ReleaseBufferSetLength
PUBLIC	?SetLength@?$CSimpleStringT@_W$0A@@ATL@@AAEXH@Z	; ATL::CSimpleStringT<wchar_t,0>::SetLength
PUBLIC	?AtlThrowImpl@ATL@@YGXJ@Z			; ATL::AtlThrowImpl
PUBLIC	?Format@?$ChTraitsCRT@_W@ATL@@SAHPA_WIPB_WPAD@Z	; ATL::ChTraitsCRT<wchar_t>::Format
PUBLIC	___local_stdio_printf_options
PUBLIC	?GetBuffer@?$CSimpleStringT@_W$0A@@ATL@@QAEPA_WH@Z ; ATL::CSimpleStringT<wchar_t,0>::GetBuffer
PUBLIC	?PrepareWrite@?$CSimpleStringT@_W$0A@@ATL@@AAEPA_WH@Z ; ATL::CSimpleStringT<wchar_t,0>::PrepareWrite
PUBLIC	?PrepareWrite2@?$CSimpleStringT@_W$0A@@ATL@@AAEXH@Z ; ATL::CSimpleStringT<wchar_t,0>::PrepareWrite2
PUBLIC	?Reallocate@?$CSimpleStringT@_W$0A@@ATL@@AAEXH@Z ; ATL::CSimpleStringT<wchar_t,0>::Reallocate
PUBLIC	?Attach@?$CSimpleStringT@_W$0A@@ATL@@AAEXPAUCStringData@2@@Z ; ATL::CSimpleStringT<wchar_t,0>::Attach
PUBLIC	?data@CStringData@ATL@@QAEPAXXZ			; ATL::CStringData::data
PUBLIC	?ThrowMemoryException@?$CSimpleStringT@_W$0A@@ATL@@KAXXZ ; ATL::CSimpleStringT<wchar_t,0>::ThrowMemoryException
PUBLIC	?Fork@?$CSimpleStringT@_W$0A@@ATL@@AAEXH@Z	; ATL::CSimpleStringT<wchar_t,0>::Fork
PUBLIC	?CopyChars@?$CSimpleStringT@_W$0A@@ATL@@SAXPA_WIPB_WH@Z ; ATL::CSimpleStringT<wchar_t,0>::CopyChars
PUBLIC	?IsShared@CStringData@ATL@@QBE_NXZ		; ATL::CStringData::IsShared
PUBLIC	?GetFormattedLength@?$ChTraitsCRT@_W@ATL@@SAHPB_WPAD@Z ; ATL::ChTraitsCRT<wchar_t>::GetFormattedLength
PUBLIC	??0?$CStringT@_WV?$StrTraitMFC@_WV?$ChTraitsCRT@_W@ATL@@@@@ATL@@QAE@XZ ; ATL::CStringT<wchar_t,StrTraitMFC<wchar_t,ATL::ChTraitsCRT<wchar_t> > >::CStringT<wchar_t,StrTraitMFC<wchar_t,ATL::ChTraitsCRT<wchar_t> > >
PUBLIC	?GetDefaultManager@?$StrTraitMFC@_WV?$ChTraitsCRT@_W@ATL@@@@SAPAUIAtlStringMgr@ATL@@XZ ; StrTraitMFC<wchar_t,ATL::ChTraitsCRT<wchar_t> >::GetDefaultManager
PUBLIC	??0?$CSimpleStringT@_W$0A@@ATL@@QAE@PAUIAtlStringMgr@1@@Z ; ATL::CSimpleStringT<wchar_t,0>::CSimpleStringT<wchar_t,0>
PUBLIC	?__autoclassinit2@?$CStringT@_WV?$StrTraitMFC@_WV?$ChTraitsCRT@_W@ATL@@@@@ATL@@QAEXI@Z ; ATL::CStringT<wchar_t,StrTraitMFC<wchar_t,ATL::ChTraitsCRT<wchar_t> > >::__autoclassinit2
PUBLIC	?Serialize@CObject@@UAEXAAVCArchive@@@Z		; CObject::Serialize
PUBLIC	??_GCGdiObject@@UAEPAXI@Z			; CGdiObject::`scalar deleting destructor'
PUBLIC	??_GCBrush@@UAEPAXI@Z				; CBrush::`scalar deleting destructor'
PUBLIC	?SupportsRestartManager@CWinApp@@UBEHXZ		; CWinApp::SupportsRestartManager
PUBLIC	?SupportsApplicationRecovery@CWinApp@@UBEHXZ	; CWinApp::SupportsApplicationRecovery
PUBLIC	?SupportsAutosaveAtRestart@CWinApp@@UBEHXZ	; CWinApp::SupportsAutosaveAtRestart
PUBLIC	?SupportsAutosaveAtInterval@CWinApp@@UBEHXZ	; CWinApp::SupportsAutosaveAtInterval
PUBLIC	?ReopenPreviousFilesAtRestart@CWinApp@@UBEHXZ	; CWinApp::ReopenPreviousFilesAtRestart
PUBLIC	?RestoreAutosavedFilesAtRestart@CWinApp@@UBEHXZ	; CWinApp::RestoreAutosavedFilesAtRestart
PUBLIC	?GetApplicationRestartFlags@CWinApp@@UAEKXZ	; CWinApp::GetApplicationRestartFlags
PUBLIC	?GetApplicationRecoveryParameter@CWinApp@@UAEPAXXZ ; CWinApp::GetApplicationRecoveryParameter
PUBLIC	?GetApplicationRecoveryPingInterval@CWinApp@@UAEKXZ ; CWinApp::GetApplicationRecoveryPingInterval
PUBLIC	?__empty_global_delete@@YAXPAXI@Z		; __empty_global_delete
PUBLIC	?__empty_global_delete@@YAXPAX@Z		; __empty_global_delete
PUBLIC	??1CDialogEx@@UAE@XZ				; CDialogEx::~CDialogEx
PUBLIC	?__autoclassinit2@CAESDlg@@QAEXI@Z		; CAESDlg::__autoclassinit2
PUBLIC	??1CAESDlg@@UAE@XZ				; CAESDlg::~CAESDlg
PUBLIC	?__autoclassinit2@CShellManager@@QAEXI@Z	; CShellManager::__autoclassinit2
PUBLIC	?InitInstance@CAESApp@@UAEHXZ			; CAESApp::InitInstance
PUBLIC	?__autoclassinit2@CAESApp@@QAEXI@Z		; CAESApp::__autoclassinit2
PUBLIC	??1CAESApp@@UAE@XZ				; CAESApp::~CAESApp
PUBLIC	??_GCAESApp@@UAEPAXI@Z				; CAESApp::`scalar deleting destructor'
PUBLIC	??0CAESApp@@QAE@XZ				; CAESApp::CAESApp
PUBLIC	??_GAnalyse_back_groung@@QAEPAXI@Z		; Analyse_back_groung::`scalar deleting destructor'
PUBLIC	?__autoclassinit2@Analyse_back_groung@@QAEXI@Z	; Analyse_back_groung::__autoclassinit2
PUBLIC	?Interactif@CAESApp@@AAEHXZ			; CAESApp::Interactif
PUBLIC	??_GSendTo@@QAEPAXI@Z				; SendTo::`scalar deleting destructor'
PUBLIC	?__autoclassinit2@SendTo@@QAEXI@Z		; SendTo::__autoclassinit2
PUBLIC	?SendTo_App@CAESApp@@AAEHXZ			; CAESApp::SendTo_App
PUBLIC	?GetThisMessageMap@CAESApp@@KGPBUAFX_MSGMAP@@XZ	; CAESApp::GetThisMessageMap
PUBLIC	?GetMessageMap@CAESApp@@MBEPBUAFX_MSGMAP@@XZ	; CAESApp::GetMessageMap
PUBLIC	?theApp@@3VCAESApp@@A				; theApp
EXTRN	?__global_delete@@YAXPAXI@Z:PROC		; __global_delete
EXTRN	??_ECGdiObject@@UAEPAXI@Z:PROC			; CGdiObject::`vector deleting destructor'
EXTRN	??_ECBrush@@UAEPAXI@Z:PROC			; CBrush::`vector deleting destructor'
EXTRN	??_ECAESApp@@UAEPAXI@Z:PROC			; CAESApp::`vector deleting destructor'
EXTRN	__allmul:PROC
EXTRN	_memcpy:PROC
EXTRN	_memmove:PROC
EXTRN	_memset:PROC
EXTRN	___security_cookie:DWORD
EXTRN	__tls_array:DWORD
EXTRN	__tls_index:DWORD
?theApp@@3VCAESApp@@A DB 0d0H DUP (?)			; theApp
_BSS	ENDS
CRT$XCU	SEGMENT
?theApp$initializer$@@3P6AXXZA DD FLAT:??__EtheApp@@YAXXZ ; theApp$initializer$
;	COMDAT xdata$x
xdata$x	SEGMENT
__unwindtable$?SendTo_App@CAESApp@@AAEHXZ DD 0ffffffffH
	DD	FLAT:__unwindfunclet$?SendTo_App@CAESApp@@AAEHXZ$0
__ehfuncinfo$?SendTo_App@CAESApp@@AAEHXZ DD 019930522H
	DD	01H
	DD	FLAT:__unwindtable$?SendTo_App@CAESApp@@AAEHXZ
	DD	2 DUP(00H)
	DD	2 DUP(00H)
	DD	00H
	DD	01H
xdata$x	ENDS
;	COMDAT xdata$x
xdata$x	SEGMENT
__unwindtable$?Interactif@CAESApp@@AAEHXZ DD 0ffffffffH
	DD	FLAT:__unwindfunclet$?Interactif@CAESApp@@AAEHXZ$0
__ehfuncinfo$?Interactif@CAESApp@@AAEHXZ DD 019930522H
	DD	01H
	DD	FLAT:__unwindtable$?Interactif@CAESApp@@AAEHXZ
	DD	2 DUP(00H)
	DD	2 DUP(00H)
	DD	00H
	DD	01H
xdata$x	ENDS
;	COMDAT xdata$x
xdata$x	SEGMENT
__ehfuncinfo$?InitInstance@CAESApp@@UAEHXZ DD 019930522H
	DD	0bH
	DD	FLAT:__unwindtable$?InitInstance@CAESApp@@UAEHXZ
	DD	2 DUP(00H)
	DD	2 DUP(00H)
	DD	00H
	DD	01H
__unwindtable$?InitInstance@CAESApp@@UAEHXZ DD 0ffffffffH
	DD	FLAT:__unwindfunclet$?InitInstance@CAESApp@@UAEHXZ$0
	DD	0ffffffffH
	DD	FLAT:__unwindfunclet$?InitInstance@CAESApp@@UAEHXZ$2
	DD	0ffffffffH
	DD	FLAT:__unwindfunclet$?InitInstance@CAESApp@@UAEHXZ$3
	DD	02H
	DD	FLAT:__unwindfunclet$?InitInstance@CAESApp@@UAEHXZ$4
	DD	03H
	DD	FLAT:__unwindfunclet$?InitInstance@CAESApp@@UAEHXZ$5
	DD	04H
	DD	FLAT:__unwindfunclet$?InitInstance@CAESApp@@UAEHXZ$6
	DD	05H
	DD	FLAT:__unwindfunclet$?InitInstance@CAESApp@@UAEHXZ$7
	DD	06H
	DD	FLAT:__unwindfunclet$?InitInstance@CAESApp@@UAEHXZ$11
	DD	07H
	DD	FLAT:__unwindfunclet$?InitInstance@CAESApp@@UAEHXZ$12
	DD	06H
	DD	FLAT:__unwindfunclet$?InitInstance@CAESApp@@UAEHXZ$8
	DD	0ffffffffH
	DD	FLAT:__unwindfunclet$?InitInstance@CAESApp@@UAEHXZ$1
xdata$x	ENDS
;	COMDAT xdata$x
xdata$x	SEGMENT
__ehfuncinfo$??1CAESDlg@@UAE@XZ DD 019930522H
	DD	00H
	DD	00H
	DD	2 DUP(00H)
	DD	2 DUP(00H)
	DD	00H
	DD	05H
xdata$x	ENDS
;	COMDAT xdata$x
xdata$x	SEGMENT
__catchsym$??1CGdiObject@@UAE@XZ$3 DD 00H
	DD	FLAT:??_R0PAVCException@@@8
	DD	0fffffbe4H
	DD	FLAT:__catch$??1CGdiObject@@UAE@XZ$0
__tryblocktable$??1CGdiObject@@UAE@XZ DD 00H
	DD	00H
	DD	02H
	DD	01H
	DD	FLAT:__catchsym$??1CGdiObject@@UAE@XZ$3
__unwindtable$??1CGdiObject@@UAE@XZ DD 0ffffffffH
	DD	00H
	DD	0ffffffffH
	DD	00H
	DD	01H
	DD	FLAT:__unwindfunclet$??1CGdiObject@@UAE@XZ$2
__ehfuncinfo$??1CGdiObject@@UAE@XZ DD 019930522H
	DD	03H
	DD	FLAT:__unwindtable$??1CGdiObject@@UAE@XZ
	DD	01H
	DD	FLAT:__tryblocktable$??1CGdiObject@@UAE@XZ
	DD	2 DUP(00H)
	DD	00H
	DD	05H
xdata$x	ENDS
CRT$XCU	ENDS
; Function compile flags: /Ogtp
; File I:\Projets\AES\AES\AES\AES.cpp
;	COMDAT ?GetMessageMap@CAESApp@@MBEPBUAFX_MSGMAP@@XZ
_TEXT	SEGMENT
?GetMessageMap@CAESApp@@MBEPBUAFX_MSGMAP@@XZ PROC	; CAESApp::GetMessageMap, COMDAT
; _this$ = ecx

; 18   : BEGIN_MESSAGE_MAP(CAESApp, CWinApp)

	mov	eax, OFFSET ?messageMap@?1??GetThisMessageMap@CAESApp@@KGPBUAFX_MSGMAP@@XZ@4U3@B
	ret	0
?GetMessageMap@CAESApp@@MBEPBUAFX_MSGMAP@@XZ ENDP	; CAESApp::GetMessageMap
_TEXT	ENDS
; Function compile flags: /Ogtp
; File I:\Projets\AES\AES\AES\AES.cpp
;	COMDAT ?GetThisMessageMap@CAESApp@@KGPBUAFX_MSGMAP@@XZ
_TEXT	SEGMENT
?GetThisMessageMap@CAESApp@@KGPBUAFX_MSGMAP@@XZ PROC	; CAESApp::GetThisMessageMap, COMDAT

; 19   : 	
; 20   : 	ON_COMMAND(ID_HELP, &CWinApp::OnHelp)
; 21   : 
; 22   : END_MESSAGE_MAP()

	mov	eax, OFFSET ?messageMap@?1??GetThisMessageMap@CAESApp@@KGPBUAFX_MSGMAP@@XZ@4U3@B
	ret	0
?GetThisMessageMap@CAESApp@@KGPBUAFX_MSGMAP@@XZ ENDP	; CAESApp::GetThisMessageMap
_TEXT	ENDS
; Function compile flags: /Ogtp
; File I:\Projets\AES\AES\AES\AES.cpp
;	COMDAT ?SendTo_App@CAESApp@@AAEHXZ
_TEXT	SEGMENT
$T1 = -16						; size = 4
__$EHRec$ = -12						; size = 12
?SendTo_App@CAESApp@@AAEHXZ PROC			; CAESApp::SendTo_App, COMDAT
; _this$dead$ = ecx

; 27   : {

	push	ebp
	mov	ebp, esp
	push	-1
	push	__ehhandler$?SendTo_App@CAESApp@@AAEHXZ
	mov	eax, DWORD PTR fs:0
	push	eax
	push	ecx
	push	esi
	mov	eax, DWORD PTR ___security_cookie
	xor	eax, ebp
	push	eax
	lea	eax, DWORD PTR __$EHRec$[ebp]
	mov	DWORD PTR fs:0, eax

; 28   : 
; 29   : 	SendTo *pt_send = new SendTo;

	push	32					; 00000020H
	call	??2@YAPAXI@Z				; operator new
	add	esp, 4
	mov	DWORD PTR $T1[ebp], eax
	mov	DWORD PTR __$EHRec$[ebp+8], 0
	test	eax, eax
	je	SHORT $LN14@SendTo_App
	xorps	xmm0, xmm0
	mov	ecx, eax
	movups	XMMWORD PTR [eax], xmm0
	movups	XMMWORD PTR [eax+16], xmm0
	call	??0SendTo@@QAE@XZ			; SendTo::SendTo
	mov	esi, eax

; 30   : 	delete pt_send;

	test	esi, esi
	je	SHORT $LN14@SendTo_App
	mov	ecx, esi
	call	??1SendTo@@QAE@XZ			; SendTo::~SendTo
	push	32					; 00000020H
	push	esi
	call	??3@YAXPAXI@Z				; operator delete
	add	esp, 8
$LN14@SendTo_App:

; 31   : 	return TRUE;
; 32   : }

	mov	eax, 1
	mov	ecx, DWORD PTR __$EHRec$[ebp]
	mov	DWORD PTR fs:0, ecx
	pop	ecx
	pop	esi
	mov	esp, ebp
	pop	ebp
	ret	0
_TEXT	ENDS
;	COMDAT text$x
text$x	SEGMENT
__unwindfunclet$?SendTo_App@CAESApp@@AAEHXZ$0:
	push	32					; 00000020H
	mov	eax, DWORD PTR $T1[ebp]
	push	eax
	call	??3@YAXPAXI@Z				; operator delete
	add	esp, 8
	ret	0
__ehhandler$?SendTo_App@CAESApp@@AAEHXZ:
	mov	edx, DWORD PTR [esp+8]
	lea	eax, DWORD PTR [edx+12]
	mov	ecx, DWORD PTR [edx-12]
	xor	ecx, eax
	call	@__security_check_cookie@4
	mov	eax, OFFSET __ehfuncinfo$?SendTo_App@CAESApp@@AAEHXZ
	jmp	___CxxFrameHandler3
text$x	ENDS
?SendTo_App@CAESApp@@AAEHXZ ENDP			; CAESApp::SendTo_App
; Function compile flags: /Ogtp
;	COMDAT ?__autoclassinit2@SendTo@@QAEXI@Z
_TEXT	SEGMENT
_classSize$dead$ = 8					; size = 4
?__autoclassinit2@SendTo@@QAEXI@Z PROC			; SendTo::__autoclassinit2, COMDAT
; _this$ = ecx
	xorps	xmm0, xmm0
	movups	XMMWORD PTR [ecx], xmm0
	movups	XMMWORD PTR [ecx+16], xmm0
	ret	4
?__autoclassinit2@SendTo@@QAEXI@Z ENDP			; SendTo::__autoclassinit2
_TEXT	ENDS
; Function compile flags: /Ogtp
;	COMDAT ??_GSendTo@@QAEPAXI@Z
_TEXT	SEGMENT
___flags$dead$ = 8					; size = 4
??_GSendTo@@QAEPAXI@Z PROC				; SendTo::`scalar deleting destructor', COMDAT
; _this$ = ecx
	push	esi
	mov	esi, ecx
	call	??1SendTo@@QAE@XZ			; SendTo::~SendTo
	push	32					; 00000020H
	push	esi
	call	??3@YAXPAXI@Z				; operator delete
	add	esp, 8
	mov	eax, esi
	pop	esi
	ret	4
??_GSendTo@@QAEPAXI@Z ENDP				; SendTo::`scalar deleting destructor'
_TEXT	ENDS
; Function compile flags: /Ogtp
; File I:\Projets\AES\AES\AES\AES.cpp
; File I:\Projets\AES\AES\AES\Analyse_back_groung.cpp
; File C:\Program Files (x86)\Microsoft Visual Studio\2019\Enterprise\VC\Tools\MSVC\14.23.28105\atlmfc\include\afxcoll.inl
; File I:\Projets\AES\AES\AES\Analyse_back_groung.cpp
; File C:\Program Files (x86)\Microsoft Visual Studio\2019\Enterprise\VC\Tools\MSVC\14.23.28105\atlmfc\include\afxcoll.inl
; File I:\Projets\AES\AES\AES\Analyse_back_groung.cpp
; File C:\Program Files (x86)\Microsoft Visual Studio\2019\Enterprise\VC\Tools\MSVC\14.23.28105\atlmfc\include\atlsimpstr.h
; File I:\Projets\AES\AES\AES\Analyse_back_groung.cpp
; File C:\Program Files (x86)\Microsoft Visual Studio\2019\Enterprise\VC\Tools\MSVC\14.23.28105\atlmfc\include\afxcoll.inl
; File I:\Projets\AES\AES\AES\Analyse_back_groung.cpp
; File C:\Program Files (x86)\Microsoft Visual Studio\2019\Enterprise\VC\Tools\MSVC\14.23.28105\atlmfc\include\afxcoll.inl
; File I:\Projets\AES\AES\AES\Analyse_back_groung.cpp
; File I:\Projets\AES\AES\AES\AES.cpp
; File C:\Program Files (x86)\Microsoft Visual Studio\2019\Enterprise\VC\Tools\MSVC\14.23.28105\atlmfc\include\afxcoll.inl
; File C:\Program Files (x86)\Microsoft Visual Studio\2019\Enterprise\VC\Tools\MSVC\14.23.28105\atlmfc\include\atlsimpstr.h
; File I:\Projets\AES\AES\AES\AES.cpp
;	COMDAT ?Interactif@CAESApp@@AAEHXZ
_TEXT	SEGMENT
_this$GSCopy$1$ = -40					; size = 4
tv439 = -36						; size = 4
tv433 = -32						; size = 4
_szArglist$1$ = -28					; size = 4
_this$ = -24						; size = 4
$T1 = -24						; size = 4
_Count$ = -20						; size = 4
__$ArrayPad$ = -16					; size = 4
__$EHRec$ = -12						; size = 12
?Interactif@CAESApp@@AAEHXZ PROC			; CAESApp::Interactif, COMDAT
; _this$ = ecx

; 35   : {

	push	ebp
	mov	ebp, esp
	push	-1
	push	__ehhandler$?Interactif@CAESApp@@AAEHXZ
	mov	eax, DWORD PTR fs:0
	push	eax
	sub	esp, 28					; 0000001cH
	mov	eax, DWORD PTR ___security_cookie
	xor	eax, ebp
	mov	DWORD PTR __$ArrayPad$[ebp], eax
	push	ebx
	push	esi
	push	edi
	push	eax
	lea	eax, DWORD PTR __$EHRec$[ebp]
	mov	DWORD PTR fs:0, eax
	mov	eax, ecx
	mov	DWORD PTR _this$GSCopy$1$[ebp], eax

; 36   : 	Status = FALSE;
; 37   : 	Analyse_back_groung  *pt_analyse = new Analyse_back_groung;

	push	48					; 00000030H
	mov	DWORD PTR [eax+204], 0
	call	??2@YAPAXI@Z				; operator new
	mov	esi, eax
	add	esp, 4
	mov	DWORD PTR $T1[ebp], esi
	mov	DWORD PTR __$EHRec$[ebp+8], 0
	test	esi, esi
	je	SHORT $LN3@Interactif
	push	48					; 00000030H
	push	0
	push	esi
	call	_memset
	add	esp, 12					; 0000000cH
	mov	ecx, esi
	call	??0Analyse_back_groung@@QAE@XZ		; Analyse_back_groung::Analyse_back_groung
	mov	edi, eax
	jmp	SHORT $LN4@Interactif
$LN3@Interactif:
	xor	edi, edi
$LN4@Interactif:

; 38   : 	int Count;
; 39   : 	LPTSTR *szArglist = ::CommandLineToArgvW(::GetCommandLine(), &Count);

	lea	eax, DWORD PTR _Count$[ebp]
	mov	DWORD PTR __$EHRec$[ebp+8], -1
	push	eax
	call	DWORD PTR __imp__GetCommandLineW@0
	push	eax
	call	DWORD PTR __imp__CommandLineToArgvW@8

; 40   : 	Status = pt_analyse->Run(szArglist, Count);

	mov	ebx, DWORD PTR _Count$[ebp]
	mov	ecx, eax
	mov	DWORD PTR _szArglist$1$[ebp], ecx
	cmp	ebx, 1
; File I:\Projets\AES\AES\AES\Analyse_back_groung.cpp

; 35   : 	if (Count == 1) return (FALSE);

	jne	SHORT $LN17@Interactif
	xor	ecx, ecx
	jmp	$LN10@Interactif
$LN17@Interactif:

; 38   : 	for (int i = 1; i < Count; i++)

	mov	esi, 1
	jle	SHORT $LN70@Interactif
	lea	eax, DWORD PTR [edi+8]
$LL13@Interactif:
; File C:\Program Files (x86)\Microsoft Visual Studio\2019\Enterprise\VC\Tools\MSVC\14.23.28105\atlmfc\include\afxcoll.inl

; 316  : 		SetAtGrow(nIndex, newElement);

	push	DWORD PTR [ecx+esi*4]
	mov	ecx, eax
	push	DWORD PTR [edi+16]
	call	?SetAtGrow@CStringArray@@QAEXHPB_W@Z	; CStringArray::SetAtGrow
; File I:\Projets\AES\AES\AES\Analyse_back_groung.cpp

; 38   : 	for (int i = 1; i < Count; i++)

	mov	ecx, DWORD PTR _szArglist$1$[ebp]
	lea	eax, DWORD PTR [edi+8]
	inc	esi
	cmp	esi, ebx
	jl	SHORT $LL13@Interactif
$LN70@Interactif:

; 39   : 	{
; 40   : 
; 41   : 	 // le premier parametre n'est pas mémorisé
; 42   : 	// Car il contient le chemin complet ainsi que le nom du programme
; 43   : 	liste_fichier.Add(pt_chaine[i]);
; 44   : 
; 45   : 	}
; 46   : 
; 47   : 	for (int i = 0; i < liste_fichier.GetSize(); i++)

	mov	eax, DWORD PTR [edi+16]
	xor	ebx, ebx
	test	eax, eax
	jle	$LN15@Interactif
; File C:\Program Files (x86)\Microsoft Visual Studio\2019\Enterprise\VC\Tools\MSVC\14.23.28105\atlmfc\include\afxcoll.inl

; 289  : 		if( nIndex < 0 || nIndex >= m_nSize )

	cmp	ebx, eax
	jge	$LN26@Interactif
$LN77@Interactif:

; 291  : 		return m_pData[nIndex]; }

	mov	eax, DWORD PTR [edi+12]
; File I:\Projets\AES\AES\AES\Analyse_back_groung.cpp

; 49   : 	   Traitement_fichier(liste_fichier.GetAt(i));

	push	ecx
	mov	DWORD PTR _this$[ebp], esp
; File C:\Program Files (x86)\Microsoft Visual Studio\2019\Enterprise\VC\Tools\MSVC\14.23.28105\atlmfc\include\atlsimpstr.h

; 800  : 		return( reinterpret_cast< CStringData* >( m_pszData )-1 );

	mov	eax, DWORD PTR [eax+ebx*4]

; 882  : 		IAtlStringMgr* pNewStringMgr = pData->pStringMgr->Clone();

	mov	ecx, DWORD PTR [eax-16]

; 800  : 		return( reinterpret_cast< CStringData* >( m_pszData )-1 );

	lea	esi, DWORD PTR [eax-16]
	mov	DWORD PTR tv439[ebp], eax

; 882  : 		IAtlStringMgr* pNewStringMgr = pData->pStringMgr->Clone();

	mov	eax, DWORD PTR [ecx]
	call	DWORD PTR [eax+16]

; 69   : 		return nRefs < 0;

	cmp	DWORD PTR [esi+12], 0

; 882  : 		IAtlStringMgr* pNewStringMgr = pData->pStringMgr->Clone();

	mov	edx, eax

; 69   : 		return nRefs < 0;

	lea	eax, DWORD PTR [esi+12]

; 883  : 		if( !pData->IsLocked() && (pNewStringMgr == pData->pStringMgr) )

	jl	SHORT $LN73@Interactif
	cmp	edx, DWORD PTR [esi]
	jne	SHORT $LN73@Interactif

; 65   : 		_InterlockedIncrement(&nRefs);

	lock	 inc	 DWORD PTR [eax]

; 887  : 		}

	jmp	SHORT $LN38@Interactif
$LN73@Interactif:

; 888  : 		else
; 889  : 		{
; 890  : 			pNewData = pNewStringMgr->Allocate( pData->nDataLength, sizeof( XCHAR ) );

	mov	eax, DWORD PTR [edx]
	lea	ecx, DWORD PTR [esi+4]
	push	2
	push	DWORD PTR [ecx]
	mov	DWORD PTR tv433[ebp], ecx
	mov	ecx, edx
	call	DWORD PTR [eax]
	mov	esi, eax

; 891  : 			if( pNewData == NULL )

	test	esi, esi
	je	$LN64@Interactif

; 894  : 			}
; 895  : 			pNewData->nDataLength = pData->nDataLength;

	mov	eax, DWORD PTR tv433[ebp]
	mov	ecx, DWORD PTR [eax]
	mov	DWORD PTR [esi+4], ecx

; 896  : 			CopyChars( PXSTR( pNewData->data() ), pData->nDataLength+1,

	mov	ecx, DWORD PTR [eax]

; 59   : 		return (this+1);

	lea	eax, DWORD PTR [esi+16]

; 896  : 			CopyChars( PXSTR( pNewData->data() ), pData->nDataLength+1,

	inc	ecx
	push	ecx
	push	DWORD PTR tv439[ebp]
	push	ecx
	push	eax
	call	?CopyChars@?$CSimpleStringT@_W$0A@@ATL@@SAXPA_WIPB_WH@Z ; ATL::CSimpleStringT<wchar_t,0>::CopyChars
	add	esp, 16					; 00000010H
$LN38@Interactif:

; 780  : 		m_pszData = static_cast< PXSTR >( pData->data() );

	mov	ecx, DWORD PTR _this$[ebp]

; 59   : 		return (this+1);

	lea	eax, DWORD PTR [esi+16]

; 780  : 		m_pszData = static_cast< PXSTR >( pData->data() );

	mov	DWORD PTR [ecx], eax
; File I:\Projets\AES\AES\AES\Analyse_back_groung.cpp

; 49   : 	   Traitement_fichier(liste_fichier.GetAt(i));

	mov	ecx, edi
	call	?Traitement_fichier@Analyse_back_groung@@QAE_NV?$CStringT@_WV?$StrTraitMFC@_WV?$ChTraitsCRT@_W@ATL@@@@@ATL@@@Z ; Analyse_back_groung::Traitement_fichier
	mov	eax, DWORD PTR [edi+16]
	inc	ebx
	cmp	ebx, eax
	jl	SHORT $LN77@Interactif
$LN15@Interactif:
; File C:\Program Files (x86)\Microsoft Visual Studio\2019\Enterprise\VC\Tools\MSVC\14.23.28105\atlmfc\include\afxcoll.inl

; 286  : 	{ SetSize(0); }

	push	-1
	push	0
; File I:\Projets\AES\AES\AES\Analyse_back_groung.cpp

; 52   : 	liste_fichier.RemoveAll();

	lea	ecx, DWORD PTR [edi+8]
; File C:\Program Files (x86)\Microsoft Visual Studio\2019\Enterprise\VC\Tools\MSVC\14.23.28105\atlmfc\include\afxcoll.inl

; 286  : 	{ SetSize(0); }

	call	?SetSize@CStringArray@@QAEXHH@Z		; CStringArray::SetSize
; File I:\Projets\AES\AES\AES\Analyse_back_groung.cpp

; 54   :      return (TRUE);

	mov	ecx, 1
$LN10@Interactif:
; File I:\Projets\AES\AES\AES\AES.cpp

; 40   : 	Status = pt_analyse->Run(szArglist, Count);

	mov	esi, DWORD PTR _this$GSCopy$1$[ebp]

; 41   : 	LocalFree(szArglist);

	push	DWORD PTR _szArglist$1$[ebp]
	mov	DWORD PTR [esi+204], ecx
	call	DWORD PTR __imp__LocalFree@4

; 42   : 	delete pt_analyse;

	test	edi, edi
	je	SHORT $LN59@Interactif
	mov	ecx, edi
	call	??1Analyse_back_groung@@QAE@XZ		; Analyse_back_groung::~Analyse_back_groung
	push	48					; 00000030H
	push	edi
	call	??3@YAXPAXI@Z				; operator delete
	add	esp, 8
$LN59@Interactif:

; 43   : 
; 44   : 	return Status;

	mov	eax, DWORD PTR [esi+204]

; 45   : }

	mov	ecx, DWORD PTR __$EHRec$[ebp]
	mov	DWORD PTR fs:0, ecx
	pop	ecx
	pop	edi
	pop	esi
	pop	ebx
	mov	ecx, DWORD PTR __$ArrayPad$[ebp]
	xor	ecx, ebp
	call	@__security_check_cookie@4
	mov	esp, ebp
	pop	ebp
	ret	0
$LN26@Interactif:
; File C:\Program Files (x86)\Microsoft Visual Studio\2019\Enterprise\VC\Tools\MSVC\14.23.28105\atlmfc\include\afxcoll.inl

; 290  : 			AfxThrowInvalidArgException();

	call	?AfxThrowInvalidArgException@@YGXXZ	; AfxThrowInvalidArgException
$LN64@Interactif:
; File C:\Program Files (x86)\Microsoft Visual Studio\2019\Enterprise\VC\Tools\MSVC\14.23.28105\atlmfc\include\atlsimpstr.h

; 893  : 				ThrowMemoryException();

	call	?ThrowMemoryException@?$CSimpleStringT@_W$0A@@ATL@@KAXXZ ; ATL::CSimpleStringT<wchar_t,0>::ThrowMemoryException
$LN75@Interactif:
	int	3
_TEXT	ENDS
;	COMDAT text$x
text$x	SEGMENT
__unwindfunclet$?Interactif@CAESApp@@AAEHXZ$0:
	push	48					; 00000030H
	mov	eax, DWORD PTR $T1[ebp]
	push	eax
	call	??3@YAXPAXI@Z				; operator delete
	add	esp, 8
	ret	0
__ehhandler$?Interactif@CAESApp@@AAEHXZ:
	mov	edx, DWORD PTR [esp+8]
	lea	eax, DWORD PTR [edx+12]
	mov	ecx, DWORD PTR [edx-44]
	xor	ecx, eax
	call	@__security_check_cookie@4
	mov	ecx, DWORD PTR [edx-4]
	xor	ecx, eax
	call	@__security_check_cookie@4
	mov	eax, OFFSET __ehfuncinfo$?Interactif@CAESApp@@AAEHXZ
	jmp	___CxxFrameHandler3
text$x	ENDS
?Interactif@CAESApp@@AAEHXZ ENDP			; CAESApp::Interactif
; Function compile flags: /Ogtp
;	COMDAT ?__autoclassinit2@Analyse_back_groung@@QAEXI@Z
_TEXT	SEGMENT
_classSize$dead$ = 8					; size = 4
?__autoclassinit2@Analyse_back_groung@@QAEXI@Z PROC	; Analyse_back_groung::__autoclassinit2, COMDAT
; _this$ = ecx
	push	48					; 00000030H
	push	0
	push	ecx
	call	_memset
	add	esp, 12					; 0000000cH
	ret	4
?__autoclassinit2@Analyse_back_groung@@QAEXI@Z ENDP	; Analyse_back_groung::__autoclassinit2
_TEXT	ENDS
; Function compile flags: /Ogtp
;	COMDAT ??_GAnalyse_back_groung@@QAEPAXI@Z
_TEXT	SEGMENT
___flags$dead$ = 8					; size = 4
??_GAnalyse_back_groung@@QAEPAXI@Z PROC			; Analyse_back_groung::`scalar deleting destructor', COMDAT
; _this$ = ecx
	push	esi
	mov	esi, ecx
	call	??1Analyse_back_groung@@QAE@XZ		; Analyse_back_groung::~Analyse_back_groung
	push	48					; 00000030H
	push	esi
	call	??3@YAXPAXI@Z				; operator delete
	add	esp, 8
	mov	eax, esi
	pop	esi
	ret	4
??_GAnalyse_back_groung@@QAEPAXI@Z ENDP			; Analyse_back_groung::`scalar deleting destructor'
_TEXT	ENDS
; Function compile flags: /Ogtp
; File I:\Projets\AES\AES\AES\AES.cpp
;	COMDAT ??0CAESApp@@QAE@XZ
_TEXT	SEGMENT
??0CAESApp@@QAE@XZ PROC					; CAESApp::CAESApp, COMDAT
; _this$dead$ = ecx

; 48   : {

	push	ebp
	mov	ebp, esp
	push	ecx
	push	0
	mov	ecx, OFFSET ?theApp@@3VCAESApp@@A	; theApp
	call	??0CWinApp@@QAE@PB_W@Z			; CWinApp::CWinApp
	mov	DWORD PTR ?theApp@@3VCAESApp@@A, OFFSET ??_7CAESApp@@6B@

; 49   : 	// prend en charge le Gestionnaire de redémarrage
; 50   : 	m_dwRestartManagerSupportFlags = AFX_RESTART_MANAGER_SUPPORT_RESTART;
; 51   : 
; 52   : 	// TODO: ajoutez ici du code de construction,
; 53   : 	// Placez toutes les initialisations significatives dans InitInstance
; 54   : }

	mov	eax, OFFSET ?theApp@@3VCAESApp@@A	; theApp
	mov	DWORD PTR ?theApp@@3VCAESApp@@A+204, 0
	mov	DWORD PTR ?theApp@@3VCAESApp@@A+172, 1
	mov	esp, ebp
	pop	ebp
	ret	0
??0CAESApp@@QAE@XZ ENDP					; CAESApp::CAESApp
_TEXT	ENDS
; Function compile flags: /Ogtp
; File C:\Program Files (x86)\Microsoft Visual Studio\2019\Enterprise\VC\Tools\MSVC\14.23.28105\atlmfc\include\afx.inl
;	COMDAT ??_GCAESApp@@UAEPAXI@Z
_TEXT	SEGMENT
___flags$ = 8						; size = 4
??_GCAESApp@@UAEPAXI@Z PROC				; CAESApp::`scalar deleting destructor', COMDAT
; _this$ = ecx
	push	ebp
	mov	ebp, esp
	push	esi
	mov	esi, ecx
	call	??1CWinApp@@UAE@XZ			; CWinApp::~CWinApp
	mov	eax, DWORD PTR ___flags$[ebp]
	test	al, 1
	je	SHORT $LN12@scalar
	test	al, 4
	jne	SHORT $LN3@scalar

; 102  : 	{ ::operator delete(p); }

	push	esi
	call	??3@YAXPAX@Z				; operator delete
	add	esp, 4
	mov	eax, esi
	pop	esi
	pop	ebp
	ret	4
$LN3@scalar:
	push	208					; 000000d0H
	push	esi
	call	?__global_delete@@YAXPAXI@Z		; __global_delete
	add	esp, 8
$LN12@scalar:
	mov	eax, esi
	pop	esi
	pop	ebp
	ret	4
??_GCAESApp@@UAEPAXI@Z ENDP				; CAESApp::`scalar deleting destructor'
_TEXT	ENDS
; Function compile flags: /Ogtp
;	COMDAT ??1CAESApp@@UAE@XZ
_TEXT	SEGMENT
??1CAESApp@@UAE@XZ PROC					; CAESApp::~CAESApp, COMDAT
; _this$ = ecx
	jmp	??1CWinApp@@UAE@XZ			; CWinApp::~CWinApp
??1CAESApp@@UAE@XZ ENDP					; CAESApp::~CAESApp
_TEXT	ENDS
; Function compile flags: /Ogtp
; File I:\Projets\AES\AES\AES\AES.cpp
; File I:\Projets\AES\AES\AES\AES.h
; File I:\Projets\AES\AES\AES\AES.cpp
;	COMDAT ??__EtheApp@@YAXXZ
text$di	SEGMENT
??__EtheApp@@YAXXZ PROC					; `dynamic initializer for 'theApp'', COMDAT

; 48   : {

	push	0
	mov	ecx, OFFSET ?theApp@@3VCAESApp@@A	; theApp
	call	??0CWinApp@@QAE@PB_W@Z			; CWinApp::CWinApp

; 59   : CAESApp theApp;

	push	OFFSET ??__FtheApp@@YAXXZ		; `dynamic atexit destructor for 'theApp''

; 48   : {

	mov	DWORD PTR ?theApp@@3VCAESApp@@A, OFFSET ??_7CAESApp@@6B@
; File I:\Projets\AES\AES\AES\AES.h

; 24   : 	BOOL Status = NULL;

	mov	DWORD PTR ?theApp@@3VCAESApp@@A+204, 0
; File I:\Projets\AES\AES\AES\AES.cpp

; 50   : 	m_dwRestartManagerSupportFlags = AFX_RESTART_MANAGER_SUPPORT_RESTART;

	mov	DWORD PTR ?theApp@@3VCAESApp@@A+172, 1

; 59   : CAESApp theApp;

	call	_atexit
	pop	ecx
	ret	0
??__EtheApp@@YAXXZ ENDP					; `dynamic initializer for 'theApp''
text$di	ENDS
; Function compile flags: /Ogtp
;	COMDAT ??__FtheApp@@YAXXZ
text$yd	SEGMENT
??__FtheApp@@YAXXZ PROC					; `dynamic atexit destructor for 'theApp'', COMDAT
	mov	ecx, OFFSET ?theApp@@3VCAESApp@@A	; theApp
	jmp	??1CWinApp@@UAE@XZ			; CWinApp::~CWinApp
??__FtheApp@@YAXXZ ENDP					; `dynamic atexit destructor for 'theApp''
text$yd	ENDS
; Function compile flags: /Ogtp
;	COMDAT ?__autoclassinit2@CAESApp@@QAEXI@Z
_TEXT	SEGMENT
_classSize$dead$ = 8					; size = 4
?__autoclassinit2@CAESApp@@QAEXI@Z PROC			; CAESApp::__autoclassinit2, COMDAT
; _this$dead$ = ecx
	push	208					; 000000d0H
	push	0
	push	OFFSET ?theApp@@3VCAESApp@@A		; theApp
	call	_memset
	add	esp, 12					; 0000000cH
	ret	4
?__autoclassinit2@CAESApp@@QAEXI@Z ENDP			; CAESApp::__autoclassinit2
_TEXT	ENDS
; Function compile flags: /Ogtp
; File I:\Projets\AES\AES\AES\AES.cpp
; File C:\Program Files (x86)\Microsoft Visual Studio\2019\Enterprise\VC\Tools\MSVC\14.23.28105\atlmfc\include\afx.inl
; File I:\Projets\AES\AES\AES\AES.cpp
; File I:\Projets\AES\AES\AES\AESDlg.cpp
; File I:\Projets\AES\AES\AES\AESDlg.h
; File C:\Program Files (x86)\Microsoft Visual Studio\2019\Enterprise\VC\Tools\MSVC\14.23.28105\atlmfc\include\afxstr.h
; File C:\Program Files (x86)\Microsoft Visual Studio\2019\Enterprise\VC\Tools\MSVC\14.23.28105\atlmfc\include\atlsimpstr.h
; File C:\Program Files (x86)\Microsoft Visual Studio\2019\Enterprise\VC\Tools\MSVC\14.23.28105\atlmfc\include\afxwin2.inl
; File I:\Projets\AES\AES\AES\AESDlg.cpp
; File C:\Program Files (x86)\Microsoft Visual Studio\2019\Enterprise\VC\Tools\MSVC\14.23.28105\atlmfc\include\afxwin2.inl
; File I:\Projets\AES\AES\AES\MyButton.cpp
; File I:\Projets\AES\AES\AES\MyButton.h
; File I:\Projets\AES\AES\AES\AESDlg.cpp
; File C:\Program Files (x86)\Microsoft Visual Studio\2019\Enterprise\VC\Tools\MSVC\14.23.28105\atlmfc\include\afxwin2.inl
; File I:\Projets\AES\AES\AES\AESDlg.cpp
; File C:\Program Files (x86)\Microsoft Visual Studio\2019\Enterprise\VC\Tools\MSVC\14.23.28105\atlmfc\include\afxwin2.inl
; File I:\Projets\AES\AES\AES\ColorStatic.cpp
; File C:\Program Files (x86)\Microsoft Visual Studio\2019\Enterprise\VC\Tools\MSVC\14.23.28105\atlmfc\include\afxwin1.inl
; File I:\Projets\AES\AES\AES\ColorStatic.cpp
; File C:\Program Files (x86)\Microsoft Visual Studio\2019\Enterprise\VC\Tools\MSVC\14.23.28105\atlmfc\include\afxwin1.inl
; File I:\Projets\AES\AES\AES\ColorStatic.cpp
; File C:\Program Files (x86)\Microsoft Visual Studio\2019\Enterprise\VC\Tools\MSVC\14.23.28105\atlmfc\include\afxwin1.inl
; File I:\Projets\AES\AES\AES\AESDlg.cpp
; File C:\Program Files (x86)\Microsoft Visual Studio\2019\Enterprise\VC\Tools\MSVC\14.23.28105\atlmfc\include\afxwin1.inl
; File C:\Program Files (x86)\Microsoft Visual Studio\2019\Enterprise\VC\Tools\MSVC\14.23.28105\atlmfc\include\afxwin2.inl
; File C:\Program Files (x86)\Microsoft Visual Studio\2019\Enterprise\VC\Tools\MSVC\14.23.28105\atlmfc\include\afxwin1.inl
; File C:\Program Files (x86)\Microsoft Visual Studio\2019\Enterprise\VC\Tools\MSVC\14.23.28105\atlmfc\include\afxwin2.inl
; File I:\Projets\AES\AES\AES\AESDlg.cpp
; File I:\Projets\AES\AES\AES\AES.cpp
; File C:\Program Files (x86)\Microsoft Visual Studio\2019\Enterprise\VC\Tools\MSVC\14.23.28105\atlmfc\include\atlsimpstr.h
; File I:\Projets\AES\AES\AES\AES.cpp
;	COMDAT ?InitInstance@CAESApp@@UAEHXZ
_TEXT	SEGMENT
_this$ = -872						; size = 4
$T3 = -872						; size = 4
$T12 = -868						; size = 4
$T1 = -868						; size = 4
_dlg$ = -864						; size = 840
_InitCtrls$ = -24					; size = 8
__$ArrayPad$ = -16					; size = 4
__$EHRec$ = -12						; size = 12
?InitInstance@CAESApp@@UAEHXZ PROC			; CAESApp::InitInstance, COMDAT
; _this$ = ecx

; 64   : {

	push	ebp
	mov	ebp, esp
	push	-1
	push	__ehhandler$?InitInstance@CAESApp@@UAEHXZ
	mov	eax, DWORD PTR fs:0
	push	eax
	sub	esp, 860				; 0000035cH
	mov	eax, DWORD PTR ___security_cookie
	xor	eax, ebp
	mov	DWORD PTR __$ArrayPad$[ebp], eax
	push	esi
	push	edi
	push	eax
	lea	eax, DWORD PTR __$EHRec$[ebp]
	mov	DWORD PTR fs:0, eax
	mov	edi, ecx

; 65   : 	// InitCommonControlsEx() est requis sur Windows XP si le manifeste de l'application
; 66   : 	// spécifie l'utilisation de ComCtl32.dll version 6 ou ultérieure pour activer les
; 67   : 	// styles visuels.  Dans le cas contraire, la création de fenêtres échouera.
; 68   : 	ChangeWindowMessageFilter(WM_DROPFILES, MSGFLT_ADD);

	push	1
	push	563					; 00000233H
	call	DWORD PTR __imp__ChangeWindowMessageFilter@8

; 69   : 	
; 70   : 	INITCOMMONCONTROLSEX InitCtrls;
; 71   : 	InitCtrls.dwSize = sizeof(InitCtrls);
; 72   : 	// À définir pour inclure toutes les classes de contrôles communs à utiliser
; 73   : 	// dans votre application.
; 74   : 	InitCtrls.dwICC = ICC_WIN95_CLASSES;
; 75   : 	InitCommonControlsEx(&InitCtrls);

	lea	eax, DWORD PTR _InitCtrls$[ebp]
	mov	DWORD PTR _InitCtrls$[ebp], 8
	push	eax
	mov	DWORD PTR _InitCtrls$[ebp+4], 255	; 000000ffH
	call	DWORD PTR __imp__InitCommonControlsEx@4

; 76   : 	CWinApp::InitInstance();

	mov	ecx, edi
	call	?InitInstance@CWinApp@@UAEHXZ		; CWinApp::InitInstance

; 77   : 	AfxEnableControlContainer();

	push	0
	call	?AfxEnableControlContainer@@YAXPAVCOccManager@@@Z ; AfxEnableControlContainer

; 78   : 	_set_new_mode(1);

	push	1
	call	__set_new_mode
; File C:\Program Files (x86)\Microsoft Visual Studio\2019\Enterprise\VC\Tools\MSVC\14.23.28105\atlmfc\include\afx.inl

; 106  : 	{ return ::operator new(nSize); }

	push	12					; 0000000cH
	call	??2@YAPAXI@Z				; operator new
	add	esp, 12					; 0000000cH
; File I:\Projets\AES\AES\AES\AES.cpp

; 81   : 	CShellManager *pShellManager = new CShellManager;

	mov	DWORD PTR $T1[ebp], eax
	mov	DWORD PTR __$EHRec$[ebp+8], 0
	test	eax, eax
	je	SHORT $LN10@InitInstan
	xorps	xmm0, xmm0
	mov	ecx, eax
	movq	QWORD PTR [eax], xmm0
	mov	DWORD PTR [eax+8], 0
	call	??0CShellManager@@QAE@XZ		; CShellManager::CShellManager
	jmp	SHORT $LN89@InitInstan
$LN10@InitInstan:
	xor	eax, eax
$LN89@InitInstan:

; 82   : 
; 83   : 	// Active le gestionnaire visuel "natif Windows" pour activer les thèmes dans les contrôles MFC
; 84   : 	CMFCVisualManager::SetDefaultManager(RUNTIME_CLASS(CMFCVisualManagerWindows));

	push	OFFSET ?classCMFCVisualManagerWindows@CMFCVisualManagerWindows@@2UCRuntimeClass@@B ; CMFCVisualManagerWindows::classCMFCVisualManagerWindows
	mov	DWORD PTR $T12[ebp], eax
	mov	DWORD PTR __$EHRec$[ebp+8], -1
	call	?SetDefaultManager@CMFCVisualManager@@SGXPAUCRuntimeClass@@@Z ; CMFCVisualManager::SetDefaultManager

; 85   : 
; 86   : 	// Initialisation standard
; 87   : 	// Si vous n'utilisez pas ces fonctionnalités et que vous souhaitez réduire la taille
; 88   : 	// de votre exécutable final, vous devez supprimer ci-dessous
; 89   : 	// les routines d'initialisation spécifiques dont vous n'avez pas besoin.
; 90   : 	// Changez la clé de Registre sous laquelle nos paramètres sont enregistrés
; 91   : 	// TODO: modifiez cette chaîne avec des informations appropriées,
; 92   : 	// telles que le nom de votre société ou organisation
; 93   : 	SetRegistryKey(_T("My AES"));

	push	OFFSET ??_C@_1O@ENKDEAMH@?$AAM?$AAy?$AA?5?$AAA?$AAE?$AAS@
	mov	ecx, edi
	call	?SetRegistryKey@CWinApp@@IAEXPB_W@Z	; CWinApp::SetRegistryKey

; 29   : 	SendTo *pt_send = new SendTo;

	push	32					; 00000020H
	call	??2@YAPAXI@Z				; operator new
	add	esp, 4
	mov	DWORD PTR $T3[ebp], eax
	mov	DWORD PTR __$EHRec$[ebp+8], 1
	test	eax, eax
	je	SHORT $LN22@InitInstan
	xorps	xmm0, xmm0
	mov	ecx, eax
	movups	XMMWORD PTR [eax], xmm0
	movups	XMMWORD PTR [eax+16], xmm0
	call	??0SendTo@@QAE@XZ			; SendTo::SendTo
	mov	esi, eax
	jmp	SHORT $LN23@InitInstan
$LN22@InitInstan:
	xor	esi, esi
$LN23@InitInstan:
	mov	DWORD PTR __$EHRec$[ebp+8], -1

; 30   : 	delete pt_send;

	test	esi, esi
	je	SHORT $LN30@InitInstan
	mov	ecx, esi
	call	??1SendTo@@QAE@XZ			; SendTo::~SendTo
	push	32					; 00000020H
	push	esi
	call	??3@YAXPAXI@Z				; operator delete
	add	esp, 8
$LN30@InitInstan:

; 94   : 	SendTo_App();
; 95   : 
; 96   : 	// On regarde si c'est pas une commande en interactif
; 97   : 	Status = Interactif();

	mov	ecx, edi
	call	?Interactif@CAESApp@@AAEHXZ		; CAESApp::Interactif
	mov	DWORD PTR [edi+204], eax

; 98   : 	if (Status == TRUE) return FALSE;

	cmp	eax, 1
	je	$LN90@InitInstan
	push	840					; 00000348H
	lea	eax, DWORD PTR _dlg$[ebp]
	push	0
	push	eax
	call	_memset
	add	esp, 12					; 0000000cH
; File I:\Projets\AES\AES\AES\AESDlg.cpp

; 28   : 	: CDialogEx(CAESDlg::IDD, pParent)

	lea	ecx, DWORD PTR _dlg$[ebp]
	push	0
	push	102					; 00000066H
	call	??0CDialogEx@@QAE@IPAVCWnd@@@Z		; CDialogEx::CDialogEx
	mov	DWORD PTR __$EHRec$[ebp+8], 2

; 29   : {

	mov	DWORD PTR _dlg$[ebp], OFFSET ??_7CAESDlg@@6B@
; File I:\Projets\AES\AES\AES\AESDlg.h

; 30   : 	int   Ordre = _Encode;

	mov	DWORD PTR _dlg$[ebp+212], 0
; File C:\Program Files (x86)\Microsoft Visual Studio\2019\Enterprise\VC\Tools\MSVC\14.23.28105\atlmfc\include\afxstr.h

; 52   : 		return( AfxGetStringManager() );

	call	?AfxGetStringManager@@YGPAUIAtlStringMgr@ATL@@XZ ; AfxGetStringManager
	mov	ecx, eax
; File C:\Program Files (x86)\Microsoft Visual Studio\2019\Enterprise\VC\Tools\MSVC\14.23.28105\atlmfc\include\atlsimpstr.h

; 205  : 		ATLENSURE( pStringMgr != NULL );

	test	ecx, ecx
	je	$LN92@InitInstan

; 206  : 		CStringData* pData = pStringMgr->GetNilString();

	mov	eax, DWORD PTR [ecx]
	mov	eax, DWORD PTR [eax+12]
	call	eax

; 59   : 		return (this+1);

	add	eax, 16					; 00000010H

; 780  : 		m_pszData = static_cast< PXSTR >( pData->data() );

	mov	DWORD PTR _dlg$[ebp+216], eax
; File C:\Program Files (x86)\Microsoft Visual Studio\2019\Enterprise\VC\Tools\MSVC\14.23.28105\atlmfc\include\afxwin2.inl

; 622  : 	{ }

	lea	ecx, DWORD PTR _dlg$[ebp+232]
; File I:\Projets\AES\AES\AES\AESDlg.cpp

; 29   : {

	mov	BYTE PTR __$EHRec$[ebp+8], 3
; File C:\Program Files (x86)\Microsoft Visual Studio\2019\Enterprise\VC\Tools\MSVC\14.23.28105\atlmfc\include\afxwin2.inl

; 622  : 	{ }

	call	??0CWnd@@QAE@XZ				; CWnd::CWnd
; File I:\Projets\AES\AES\AES\MyButton.cpp

; 6    : {

	mov	DWORD PTR _dlg$[ebp+232], OFFSET ??_7CMyButton@@6B@
; File I:\Projets\AES\AES\AES\MyButton.h

; 19   : 	COLORREF  m_color = 0;

	mov	DWORD PTR _dlg$[ebp+360], 0

; 20   : 	COLORREF  m_Bkcolor= 0;

	mov	DWORD PTR _dlg$[ebp+364], 0

; 21   : 	bool m_bOverControl = false;

	mov	BYTE PTR _dlg$[ebp+368], 0
; File I:\Projets\AES\AES\AES\AESDlg.cpp

; 29   : {

	lea	ecx, DWORD PTR _dlg$[ebp+376]
	mov	BYTE PTR __$EHRec$[ebp+8], 4
	call	??0CColorRadioButton@@QAE@XZ		; CColorRadioButton::CColorRadioButton
	lea	ecx, DWORD PTR _dlg$[ebp+536]
	mov	BYTE PTR __$EHRec$[ebp+8], 5
	call	??0CColorRadioButton@@QAE@XZ		; CColorRadioButton::CColorRadioButton
	lea	eax, DWORD PTR _dlg$[ebp+696]
	mov	BYTE PTR __$EHRec$[ebp+8], 6
; File C:\Program Files (x86)\Microsoft Visual Studio\2019\Enterprise\VC\Tools\MSVC\14.23.28105\atlmfc\include\afxwin2.inl

; 603  : 	{ }

	mov	ecx, eax
; File I:\Projets\AES\AES\AES\AESDlg.cpp

; 29   : {

	mov	DWORD PTR _this$[ebp], eax
; File C:\Program Files (x86)\Microsoft Visual Studio\2019\Enterprise\VC\Tools\MSVC\14.23.28105\atlmfc\include\afxwin2.inl

; 603  : 	{ }

	call	??0CWnd@@QAE@XZ				; CWnd::CWnd
; File I:\Projets\AES\AES\AES\ColorStatic.cpp

; 39   : {

	mov	DWORD PTR _dlg$[ebp+696], OFFSET ??_7CColorStatic@@6B@
; File C:\Program Files (x86)\Microsoft Visual Studio\2019\Enterprise\VC\Tools\MSVC\14.23.28105\atlmfc\include\afxwin1.inl

; 70   : 	{ m_hObject = NULL; }

	mov	DWORD PTR _dlg$[ebp+828], 0

; 128  : 	{ }

	mov	DWORD PTR _dlg$[ebp+824], OFFSET ??_7CBrush@@6B@
; File I:\Projets\AES\AES\AES\ColorStatic.cpp

; 40   : 	m_crBkColor = ::GetSysColor(COLOR_3DFACE); // Initializing the Background Color to the system face color.

	push	15					; 0000000fH
	mov	BYTE PTR __$EHRec$[ebp+8], 8
	call	DWORD PTR __imp__GetSysColor@4
; File C:\Program Files (x86)\Microsoft Visual Studio\2019\Enterprise\VC\Tools\MSVC\14.23.28105\atlmfc\include\afxwin1.inl

; 132  : 	{ return Attach(::CreateSolidBrush(crColor)); }

	push	eax
; File I:\Projets\AES\AES\AES\ColorStatic.cpp

; 40   : 	m_crBkColor = ::GetSysColor(COLOR_3DFACE); // Initializing the Background Color to the system face color.

	mov	DWORD PTR _dlg$[ebp+832], eax

; 41   : 	m_crTextColor = BLACK; // Initializing the text to Black

	mov	DWORD PTR _dlg$[ebp+836], 0
; File C:\Program Files (x86)\Microsoft Visual Studio\2019\Enterprise\VC\Tools\MSVC\14.23.28105\atlmfc\include\afxwin1.inl

; 132  : 	{ return Attach(::CreateSolidBrush(crColor)); }

	call	DWORD PTR __imp__CreateSolidBrush@4
	push	eax
	lea	ecx, DWORD PTR _dlg$[ebp+824]
	call	?Attach@CGdiObject@@QAEHPAX@Z		; CGdiObject::Attach
; File I:\Projets\AES\AES\AES\AESDlg.cpp

; 29   : {

	mov	BYTE PTR __$EHRec$[ebp+8], 9
; File C:\Program Files (x86)\Microsoft Visual Studio\2019\Enterprise\VC\Tools\MSVC\14.23.28105\atlmfc\include\afxwin1.inl

; 19   : 	{ return afxCurrentWinApp; }

	call	?AfxGetModuleState@@YGPAVAFX_MODULE_STATE@@XZ ; AfxGetModuleState

; 25   : 		return afxCurrentResourceHandle; }

	call	?AfxGetModuleState@@YGPAVAFX_MODULE_STATE@@XZ ; AfxGetModuleState
; File C:\Program Files (x86)\Microsoft Visual Studio\2019\Enterprise\VC\Tools\MSVC\14.23.28105\atlmfc\include\afxwin2.inl

; 1054 : 	{ return ::LoadIconW(AfxFindResourceHandle(ATL_MAKEINTRESOURCE(nIDResource),

	push	128					; 00000080H
; File C:\Program Files (x86)\Microsoft Visual Studio\2019\Enterprise\VC\Tools\MSVC\14.23.28105\atlmfc\include\afxwin1.inl

; 25   : 		return afxCurrentResourceHandle; }

	mov	eax, DWORD PTR [eax+12]
; File C:\Program Files (x86)\Microsoft Visual Studio\2019\Enterprise\VC\Tools\MSVC\14.23.28105\atlmfc\include\afxwin2.inl

; 1054 : 	{ return ::LoadIconW(AfxFindResourceHandle(ATL_MAKEINTRESOURCE(nIDResource),

	push	eax
	call	DWORD PTR __imp__LoadIconW@8
; File I:\Projets\AES\AES\AES\AESDlg.cpp

; 30   : 	m_hIcon = AfxGetApp()->LoadIcon(IDR_MAINFRAME);

	mov	DWORD PTR _dlg$[ebp+208], eax
; File I:\Projets\AES\AES\AES\AES.cpp

; 101  : 	m_pMainWnd = &dlg;

	lea	eax, DWORD PTR _dlg$[ebp]
	mov	DWORD PTR __$EHRec$[ebp+8], 10		; 0000000aH

; 102  : 	INT_PTR nResponse = dlg.DoModal();

	mov	ecx, eax
	mov	DWORD PTR [edi+32], eax
	call	?DoModal@CDialog@@UAEHXZ		; CDialog::DoModal

; 103  : 	if (nResponse == IDOK)
; 104  : 	{
; 105  : 		// TODO: placez ici le code définissant le comportement lorsque la boîte de dialogue est
; 106  : 		//  fermée avec OK
; 107  : 	}
; 108  : 	else if (nResponse == IDCANCEL)
; 109  : 	{
; 110  : 		// TODO: placez ici le code définissant le comportement lorsque la boîte de dialogue est
; 111  : 		//  fermée avec Annuler
; 112  : 	}
; 113  : 	else if (nResponse == -1)
; 114  : 	{
; 115  : 		TRACE(traceAppMsg, 0, "Avertissement : échec de création de la boîte de dialogue, par conséquent, l'application s'arrête de manière inattendue.\n");
; 116  : 		TRACE(traceAppMsg, 0, "Avertissement : si vous utilisez les contrôles MFC de la boîte de dialogue, vous ne pouvez pas exécuter #define _AFX_NO_MFC_CONTROLS_IN_DIALOGS.\n");
; 117  : 	}
; 118  : 
; 119  : 	// Supprimer le gestionnaire de shell créé ci-dessus.
; 120  : 	if (pShellManager != NULL)

	mov	ecx, DWORD PTR $T12[ebp]
	test	ecx, ecx
	je	SHORT $LN12@InitInstan

; 121  : 	{
; 122  : 		delete pShellManager;

	mov	eax, DWORD PTR [ecx]
	push	1
	call	DWORD PTR [eax+4]
$LN12@InitInstan:

; 123  : 	}
; 124  : 
; 125  : 	// Lorsque la boîte de dialogue est fermée, retourner FALSE afin de quitter
; 126  : 	//  l'application, plutôt que de démarrer la pompe de messages de l'application.
; 127  : 	return FALSE;

	lea	ecx, DWORD PTR _dlg$[ebp]
	call	??1CAESDlg@@UAE@XZ
$LN90@InitInstan:

; 128  : }

	xor	eax, eax
	mov	ecx, DWORD PTR __$EHRec$[ebp]
	mov	DWORD PTR fs:0, ecx
	pop	ecx
	pop	edi
	pop	esi
	mov	ecx, DWORD PTR __$ArrayPad$[ebp]
	xor	ecx, ebp
	call	@__security_check_cookie@4
	mov	esp, ebp
	pop	ebp
	ret	0
$LN92@InitInstan:
; File C:\Program Files (x86)\Microsoft Visual Studio\2019\Enterprise\VC\Tools\MSVC\14.23.28105\atlmfc\include\atlsimpstr.h

; 205  : 		ATLENSURE( pStringMgr != NULL );

	push	-2147467259				; 80004005H
	call	?AtlThrowImpl@ATL@@YGXJ@Z		; ATL::AtlThrowImpl
$LN88@InitInstan:
	int	3
_TEXT	ENDS
;	COMDAT text$x
text$x	SEGMENT
__unwindfunclet$?InitInstance@CAESApp@@UAEHXZ$0:
	mov	eax, DWORD PTR $T1[ebp]
	push	eax
	call	??3CObject@@SGXPAX@Z			; CObject::operator delete
	ret	0
__unwindfunclet$?InitInstance@CAESApp@@UAEHXZ$2:
	push	32					; 00000020H
	mov	eax, DWORD PTR $T3[ebp]
	push	eax
	call	??3@YAXPAXI@Z				; operator delete
	add	esp, 8
	ret	0
__unwindfunclet$?InitInstance@CAESApp@@UAEHXZ$3:
	lea	ecx, DWORD PTR _dlg$[ebp]
	jmp	??1CDialogEx@@UAE@XZ
__unwindfunclet$?InitInstance@CAESApp@@UAEHXZ$4:
	lea	ecx, DWORD PTR _dlg$[ebp+216]
	jmp	??1?$CStringT@_WV?$StrTraitMFC@_WV?$ChTraitsCRT@_W@ATL@@@@@ATL@@QAE@XZ ; ATL::CStringT<wchar_t,StrTraitMFC<wchar_t,ATL::ChTraitsCRT<wchar_t> > >::~CStringT<wchar_t,StrTraitMFC<wchar_t,ATL::ChTraitsCRT<wchar_t> > >
__unwindfunclet$?InitInstance@CAESApp@@UAEHXZ$5:
	lea	ecx, DWORD PTR _dlg$[ebp+232]
	jmp	??1CMyButton@@UAE@XZ			; CMyButton::~CMyButton
__unwindfunclet$?InitInstance@CAESApp@@UAEHXZ$6:
	lea	ecx, DWORD PTR _dlg$[ebp+376]
	jmp	??1CColorRadioButton@@UAE@XZ		; CColorRadioButton::~CColorRadioButton
__unwindfunclet$?InitInstance@CAESApp@@UAEHXZ$7:
	lea	ecx, DWORD PTR _dlg$[ebp+536]
	jmp	??1CColorRadioButton@@UAE@XZ		; CColorRadioButton::~CColorRadioButton
__unwindfunclet$?InitInstance@CAESApp@@UAEHXZ$11:
	mov	ecx, DWORD PTR _this$[ebp]
	jmp	??1CStatic@@UAE@XZ			; CStatic::~CStatic
__unwindfunclet$?InitInstance@CAESApp@@UAEHXZ$12:
	mov	ecx, DWORD PTR _this$[ebp]
	add	ecx, 128				; 00000080H
	jmp	??1CBrush@@UAE@XZ			; CBrush::~CBrush
__unwindfunclet$?InitInstance@CAESApp@@UAEHXZ$8:
	lea	ecx, DWORD PTR _dlg$[ebp+696]
	jmp	??1CColorStatic@@UAE@XZ			; CColorStatic::~CColorStatic
__unwindfunclet$?InitInstance@CAESApp@@UAEHXZ$1:
	lea	ecx, DWORD PTR _dlg$[ebp]
	jmp	??1CAESDlg@@UAE@XZ
__ehhandler$?InitInstance@CAESApp@@UAEHXZ:
	mov	edx, DWORD PTR [esp+8]
	lea	eax, DWORD PTR [edx+12]
	mov	ecx, DWORD PTR [edx-872]
	xor	ecx, eax
	call	@__security_check_cookie@4
	mov	ecx, DWORD PTR [edx-4]
	xor	ecx, eax
	call	@__security_check_cookie@4
	mov	eax, OFFSET __ehfuncinfo$?InitInstance@CAESApp@@UAEHXZ
	jmp	___CxxFrameHandler3
text$x	ENDS
?InitInstance@CAESApp@@UAEHXZ ENDP			; CAESApp::InitInstance
; Function compile flags: /Ogtp
;	COMDAT ?__autoclassinit2@CShellManager@@QAEXI@Z
_TEXT	SEGMENT
_classSize$dead$ = 8					; size = 4
?__autoclassinit2@CShellManager@@QAEXI@Z PROC		; CShellManager::__autoclassinit2, COMDAT
; _this$ = ecx
	xorps	xmm0, xmm0
	movq	QWORD PTR [ecx], xmm0
	mov	DWORD PTR [ecx+8], 0
	ret	4
?__autoclassinit2@CShellManager@@QAEXI@Z ENDP		; CShellManager::__autoclassinit2
_TEXT	ENDS
; Function compile flags: /Ogtp
; File I:\Projets\AES\AES\AES\ColorStatic.cpp
; File C:\Program Files (x86)\Microsoft Visual Studio\2019\Enterprise\VC\Tools\MSVC\14.23.28105\atlmfc\include\afxwin1.inl
; File I:\Projets\AES\AES\AES\ColorStatic.cpp
; File I:\Projets\AES\AES\AES\ColorRadioButton.cpp
; File C:\Program Files (x86)\Microsoft Visual Studio\2019\Enterprise\VC\Tools\MSVC\14.23.28105\atlmfc\include\afxwin1.inl
; File I:\Projets\AES\AES\AES\ColorRadioButton.cpp
; File C:\Program Files (x86)\Microsoft Visual Studio\2019\Enterprise\VC\Tools\MSVC\14.23.28105\atlmfc\include\afxwin1.inl
; File I:\Projets\AES\AES\AES\ColorRadioButton.cpp
; File I:\Projets\AES\AES\AES\MyButton.cpp
; File C:\Program Files (x86)\Microsoft Visual Studio\2019\Enterprise\VC\Tools\MSVC\14.23.28105\atlmfc\include\atlsimpstr.h
; File C:\Program Files (x86)\Microsoft Visual Studio\2019\Enterprise\VC\Tools\MSVC\14.23.28105\atlmfc\include\afxwin1.inl
;	COMDAT ??1CAESDlg@@UAE@XZ
_TEXT	SEGMENT
__$EHRec$ = -12						; size = 12
??1CAESDlg@@UAE@XZ PROC					; CAESDlg::~CAESDlg, COMDAT
; _this$ = ecx
	push	ebp
	mov	ebp, esp
	push	-1
	push	__ehhandler$??1CAESDlg@@UAE@XZ
	mov	eax, DWORD PTR fs:0
	push	eax
	push	esi
	push	edi
	mov	eax, DWORD PTR ___security_cookie
	xor	eax, ebp
	push	eax
	lea	eax, DWORD PTR __$EHRec$[ebp]
	mov	DWORD PTR fs:0, eax
	mov	edi, ecx
; File I:\Projets\AES\AES\AES\ColorStatic.cpp

; 47   : }

	lea	ecx, DWORD PTR [edi+824]
	mov	DWORD PTR [edi+696], OFFSET ??_7CColorStatic@@6B@
; File C:\Program Files (x86)\Microsoft Visual Studio\2019\Enterprise\VC\Tools\MSVC\14.23.28105\atlmfc\include\afxwin1.inl

; 130  : 	{ }

	mov	DWORD PTR [ecx], OFFSET ??_7CBrush@@6B@
	call	??1CGdiObject@@UAE@XZ			; CGdiObject::~CGdiObject
; File I:\Projets\AES\AES\AES\ColorStatic.cpp

; 47   : }

	lea	ecx, DWORD PTR [edi+696]
	call	??1CStatic@@UAE@XZ			; CStatic::~CStatic
; File I:\Projets\AES\AES\AES\ColorRadioButton.cpp

; 49   : }

	lea	ecx, DWORD PTR [edi+668]
	mov	DWORD PTR [edi+536], OFFSET ??_7CColorRadioButton@@6B@
; File C:\Program Files (x86)\Microsoft Visual Studio\2019\Enterprise\VC\Tools\MSVC\14.23.28105\atlmfc\include\afxwin1.inl

; 130  : 	{ }

	mov	DWORD PTR [ecx], OFFSET ??_7CBrush@@6B@
	call	??1CGdiObject@@UAE@XZ			; CGdiObject::~CGdiObject
; File I:\Projets\AES\AES\AES\ColorRadioButton.cpp

; 49   : }

	lea	ecx, DWORD PTR [edi+536]
	call	??1CButton@@UAE@XZ			; CButton::~CButton
	lea	ecx, DWORD PTR [edi+508]
	mov	DWORD PTR [edi+376], OFFSET ??_7CColorRadioButton@@6B@
; File C:\Program Files (x86)\Microsoft Visual Studio\2019\Enterprise\VC\Tools\MSVC\14.23.28105\atlmfc\include\afxwin1.inl

; 130  : 	{ }

	mov	DWORD PTR [ecx], OFFSET ??_7CBrush@@6B@
	call	??1CGdiObject@@UAE@XZ			; CGdiObject::~CGdiObject
; File I:\Projets\AES\AES\AES\ColorRadioButton.cpp

; 49   : }

	lea	ecx, DWORD PTR [edi+376]
	call	??1CButton@@UAE@XZ			; CButton::~CButton
	lea	ecx, DWORD PTR [edi+232]
; File I:\Projets\AES\AES\AES\MyButton.cpp

; 12   : {

	mov	DWORD PTR [ecx], OFFSET ??_7CMyButton@@6B@

; 13   : }

	call	??1CButton@@UAE@XZ			; CButton::~CButton
; File C:\Program Files (x86)\Microsoft Visual Studio\2019\Enterprise\VC\Tools\MSVC\14.23.28105\atlmfc\include\atlsimpstr.h

; 800  : 		return( reinterpret_cast< CStringData* >( m_pszData )-1 );

	mov	edx, DWORD PTR [edi+216]

; 88   : 		if( _InterlockedDecrement( &nRefs ) <= 0 )

	or	eax, -1

; 800  : 		return( reinterpret_cast< CStringData* >( m_pszData )-1 );

	sub	edx, 16					; 00000010H

; 88   : 		if( _InterlockedDecrement( &nRefs ) <= 0 )

	lock	 xadd	 DWORD PTR [edx+12], eax
	dec	eax
	test	eax, eax
	jg	SHORT $LN31@CAESDlg

; 89   : 		{
; 90   : 			pStringMgr->Free( this );

	mov	ecx, DWORD PTR [edx]
	push	edx
	mov	eax, DWORD PTR [ecx]
	call	DWORD PTR [eax+4]
$LN31@CAESDlg:
	lea	ecx, DWORD PTR [edi+192]
	call	??1CDialogImpl@@MAE@XZ			; CDialogImpl::~CDialogImpl
	lea	ecx, DWORD PTR [edi+180]
; File C:\Program Files (x86)\Microsoft Visual Studio\2019\Enterprise\VC\Tools\MSVC\14.23.28105\atlmfc\include\afxwin1.inl

; 130  : 	{ }

	mov	DWORD PTR [ecx], OFFSET ??_7CBrush@@6B@
	call	??1CGdiObject@@UAE@XZ			; CGdiObject::~CGdiObject
	mov	ecx, edi
	call	??1CDialog@@UAE@XZ			; CDialog::~CDialog
	mov	ecx, DWORD PTR __$EHRec$[ebp]
	mov	DWORD PTR fs:0, ecx
	pop	ecx
	pop	edi
	pop	esi
	mov	esp, ebp
	pop	ebp
	ret	0
_TEXT	ENDS
;	COMDAT text$x
text$x	SEGMENT
__ehhandler$??1CAESDlg@@UAE@XZ:
	mov	edx, DWORD PTR [esp+8]
	lea	eax, DWORD PTR [edx+12]
	mov	ecx, DWORD PTR [edx-12]
	xor	ecx, eax
	call	@__security_check_cookie@4
	mov	eax, OFFSET __ehfuncinfo$??1CAESDlg@@UAE@XZ
	jmp	___CxxFrameHandler3
text$x	ENDS
??1CAESDlg@@UAE@XZ ENDP					; CAESDlg::~CAESDlg
; Function compile flags: /Ogtp
;	COMDAT ?__autoclassinit2@CAESDlg@@QAEXI@Z
_TEXT	SEGMENT
_classSize$dead$ = 8					; size = 4
?__autoclassinit2@CAESDlg@@QAEXI@Z PROC			; CAESDlg::__autoclassinit2, COMDAT
; _this$ = ecx
	push	840					; 00000348H
	push	0
	push	ecx
	call	_memset
	add	esp, 12					; 0000000cH
	ret	4
?__autoclassinit2@CAESDlg@@QAEXI@Z ENDP			; CAESDlg::__autoclassinit2
_TEXT	ENDS
; Function compile flags: /Ogtp
; File C:\Program Files (x86)\Microsoft Visual Studio\2019\Enterprise\VC\Tools\MSVC\14.23.28105\atlmfc\include\afxwin1.inl
;	COMDAT ??1CDialogEx@@UAE@XZ
_TEXT	SEGMENT
??1CDialogEx@@UAE@XZ PROC				; CDialogEx::~CDialogEx, COMDAT
; _this$ = ecx

; 130  : 	{ }

	push	esi
	mov	esi, ecx
	lea	ecx, DWORD PTR [esi+192]
	call	??1CDialogImpl@@MAE@XZ			; CDialogImpl::~CDialogImpl
	lea	ecx, DWORD PTR [esi+180]
	mov	DWORD PTR [ecx], OFFSET ??_7CBrush@@6B@
	call	??1CGdiObject@@UAE@XZ			; CGdiObject::~CGdiObject
	mov	ecx, esi
	pop	esi
	jmp	??1CDialog@@UAE@XZ			; CDialog::~CDialog
??1CDialogEx@@UAE@XZ ENDP				; CDialogEx::~CDialogEx
_TEXT	ENDS
; Function compile flags: /Ogtp
; File I:\Projets\AES\AES\AES\AES.cpp
;	COMDAT ?__empty_global_delete@@YAXPAX@Z
_TEXT	SEGMENT
___formal$ = 8						; size = 4
?__empty_global_delete@@YAXPAX@Z PROC			; __empty_global_delete, COMDAT

	ret	0
?__empty_global_delete@@YAXPAX@Z ENDP			; __empty_global_delete
_TEXT	ENDS
; Function compile flags: /Ogtp
; File I:\Projets\AES\AES\AES\AES.cpp
;	COMDAT ?__empty_global_delete@@YAXPAXI@Z
_TEXT	SEGMENT
___formal$ = 8						; size = 4
___formal$ = 12						; size = 4
?__empty_global_delete@@YAXPAXI@Z PROC			; __empty_global_delete, COMDAT

	ret	0
?__empty_global_delete@@YAXPAXI@Z ENDP			; __empty_global_delete
_TEXT	ENDS
; Function compile flags: /Ogtp
; File C:\Program Files (x86)\Microsoft Visual Studio\2019\Enterprise\VC\Tools\MSVC\14.23.28105\atlmfc\include\afxwin.h
;	COMDAT ?GetApplicationRecoveryPingInterval@CWinApp@@UAEKXZ
_TEXT	SEGMENT
?GetApplicationRecoveryPingInterval@CWinApp@@UAEKXZ PROC ; CWinApp::GetApplicationRecoveryPingInterval, COMDAT
; _this$ = ecx

; 5370 : 	virtual DWORD GetApplicationRecoveryPingInterval() { return RECOVERY_DEFAULT_PING_INTERVAL; }  // Ping interval for RegisterApplicationRecoveryCallback

	mov	eax, 5000				; 00001388H
	ret	0
?GetApplicationRecoveryPingInterval@CWinApp@@UAEKXZ ENDP ; CWinApp::GetApplicationRecoveryPingInterval
_TEXT	ENDS
; Function compile flags: /Ogtp
; File C:\Program Files (x86)\Microsoft Visual Studio\2019\Enterprise\VC\Tools\MSVC\14.23.28105\atlmfc\include\afxwin.h
;	COMDAT ?GetApplicationRecoveryParameter@CWinApp@@UAEPAXXZ
_TEXT	SEGMENT
?GetApplicationRecoveryParameter@CWinApp@@UAEPAXXZ PROC	; CWinApp::GetApplicationRecoveryParameter, COMDAT
; _this$ = ecx

; 5369 : 	virtual LPVOID GetApplicationRecoveryParameter() { return NULL; }  // Parameter to be passed along to RegisterApplicationRecoveryCallback

	xor	eax, eax
	ret	0
?GetApplicationRecoveryParameter@CWinApp@@UAEPAXXZ ENDP	; CWinApp::GetApplicationRecoveryParameter
_TEXT	ENDS
; Function compile flags: /Ogtp
; File C:\Program Files (x86)\Microsoft Visual Studio\2019\Enterprise\VC\Tools\MSVC\14.23.28105\atlmfc\include\afxwin.h
;	COMDAT ?GetApplicationRestartFlags@CWinApp@@UAEKXZ
_TEXT	SEGMENT
?GetApplicationRestartFlags@CWinApp@@UAEKXZ PROC	; CWinApp::GetApplicationRestartFlags, COMDAT
; _this$ = ecx

; 5368 : 	virtual DWORD GetApplicationRestartFlags() { return 0; }  // Flags for RegisterApplicationRestart: default is none of RESTART_NO_CRASH/RESTART_NO_HANG/RESTART_NO_PATCH/RESTART_NO_REBOOT

	xor	eax, eax
	ret	0
?GetApplicationRestartFlags@CWinApp@@UAEKXZ ENDP	; CWinApp::GetApplicationRestartFlags
_TEXT	ENDS
; Function compile flags: /Ogtp
; File C:\Program Files (x86)\Microsoft Visual Studio\2019\Enterprise\VC\Tools\MSVC\14.23.28105\atlmfc\include\afxwin.h
;	COMDAT ?RestoreAutosavedFilesAtRestart@CWinApp@@UBEHXZ
_TEXT	SEGMENT
?RestoreAutosavedFilesAtRestart@CWinApp@@UBEHXZ PROC	; CWinApp::RestoreAutosavedFilesAtRestart, COMDAT
; _this$ = ecx

; 5366 : 	virtual BOOL RestoreAutosavedFilesAtRestart() const { return m_dwRestartManagerSupportFlags & AFX_RESTART_MANAGER_RESTORE_AUTOSAVED_FILES; }

	mov	eax, DWORD PTR [ecx+172]
	and	eax, 32					; 00000020H
	ret	0
?RestoreAutosavedFilesAtRestart@CWinApp@@UBEHXZ ENDP	; CWinApp::RestoreAutosavedFilesAtRestart
_TEXT	ENDS
; Function compile flags: /Ogtp
; File C:\Program Files (x86)\Microsoft Visual Studio\2019\Enterprise\VC\Tools\MSVC\14.23.28105\atlmfc\include\afxwin.h
;	COMDAT ?ReopenPreviousFilesAtRestart@CWinApp@@UBEHXZ
_TEXT	SEGMENT
?ReopenPreviousFilesAtRestart@CWinApp@@UBEHXZ PROC	; CWinApp::ReopenPreviousFilesAtRestart, COMDAT
; _this$ = ecx

; 5365 : 	virtual BOOL ReopenPreviousFilesAtRestart() const { return m_dwRestartManagerSupportFlags & AFX_RESTART_MANAGER_REOPEN_PREVIOUS_FILES; }

	mov	eax, DWORD PTR [ecx+172]
	and	eax, 16					; 00000010H
	ret	0
?ReopenPreviousFilesAtRestart@CWinApp@@UBEHXZ ENDP	; CWinApp::ReopenPreviousFilesAtRestart
_TEXT	ENDS
; Function compile flags: /Ogtp
; File C:\Program Files (x86)\Microsoft Visual Studio\2019\Enterprise\VC\Tools\MSVC\14.23.28105\atlmfc\include\afxwin.h
;	COMDAT ?SupportsAutosaveAtInterval@CWinApp@@UBEHXZ
_TEXT	SEGMENT
?SupportsAutosaveAtInterval@CWinApp@@UBEHXZ PROC	; CWinApp::SupportsAutosaveAtInterval, COMDAT
; _this$ = ecx

; 5364 : 	virtual BOOL SupportsAutosaveAtInterval() const { return m_dwRestartManagerSupportFlags & AFX_RESTART_MANAGER_AUTOSAVE_AT_INTERVAL; }

	mov	eax, DWORD PTR [ecx+172]
	and	eax, 8
	ret	0
?SupportsAutosaveAtInterval@CWinApp@@UBEHXZ ENDP	; CWinApp::SupportsAutosaveAtInterval
_TEXT	ENDS
; Function compile flags: /Ogtp
; File C:\Program Files (x86)\Microsoft Visual Studio\2019\Enterprise\VC\Tools\MSVC\14.23.28105\atlmfc\include\afxwin.h
;	COMDAT ?SupportsAutosaveAtRestart@CWinApp@@UBEHXZ
_TEXT	SEGMENT
?SupportsAutosaveAtRestart@CWinApp@@UBEHXZ PROC		; CWinApp::SupportsAutosaveAtRestart, COMDAT
; _this$ = ecx

; 5363 : 	virtual BOOL SupportsAutosaveAtRestart() const { return m_dwRestartManagerSupportFlags & AFX_RESTART_MANAGER_AUTOSAVE_AT_RESTART; }

	mov	eax, DWORD PTR [ecx+172]
	and	eax, 4
	ret	0
?SupportsAutosaveAtRestart@CWinApp@@UBEHXZ ENDP		; CWinApp::SupportsAutosaveAtRestart
_TEXT	ENDS
; Function compile flags: /Ogtp
; File C:\Program Files (x86)\Microsoft Visual Studio\2019\Enterprise\VC\Tools\MSVC\14.23.28105\atlmfc\include\afxwin.h
;	COMDAT ?SupportsApplicationRecovery@CWinApp@@UBEHXZ
_TEXT	SEGMENT
?SupportsApplicationRecovery@CWinApp@@UBEHXZ PROC	; CWinApp::SupportsApplicationRecovery, COMDAT
; _this$ = ecx

; 5362 : 	virtual BOOL SupportsApplicationRecovery() const { return m_dwRestartManagerSupportFlags & AFX_RESTART_MANAGER_SUPPORT_RECOVERY; }

	mov	eax, DWORD PTR [ecx+172]
	and	eax, 2
	ret	0
?SupportsApplicationRecovery@CWinApp@@UBEHXZ ENDP	; CWinApp::SupportsApplicationRecovery
_TEXT	ENDS
; Function compile flags: /Ogtp
; File C:\Program Files (x86)\Microsoft Visual Studio\2019\Enterprise\VC\Tools\MSVC\14.23.28105\atlmfc\include\afxwin.h
;	COMDAT ?SupportsRestartManager@CWinApp@@UBEHXZ
_TEXT	SEGMENT
?SupportsRestartManager@CWinApp@@UBEHXZ PROC		; CWinApp::SupportsRestartManager, COMDAT
; _this$ = ecx

; 5361 : 	virtual BOOL SupportsRestartManager() const { return m_dwRestartManagerSupportFlags & AFX_RESTART_MANAGER_SUPPORT_RESTART; }

	mov	eax, DWORD PTR [ecx+172]
	and	eax, 1
	ret	0
?SupportsRestartManager@CWinApp@@UBEHXZ ENDP		; CWinApp::SupportsRestartManager
_TEXT	ENDS
; Function compile flags: /Ogtp
; File C:\Program Files (x86)\Microsoft Visual Studio\2019\Enterprise\VC\Tools\MSVC\14.23.28105\atlmfc\include\afxwin1.inl
; File C:\Program Files (x86)\Microsoft Visual Studio\2019\Enterprise\VC\Tools\MSVC\14.23.28105\atlmfc\include\afx.inl
;	COMDAT ??_GCBrush@@UAEPAXI@Z
_TEXT	SEGMENT
___flags$ = 8						; size = 4
??_GCBrush@@UAEPAXI@Z PROC				; CBrush::`scalar deleting destructor', COMDAT
; _this$ = ecx
	push	ebp
	mov	ebp, esp
; File C:\Program Files (x86)\Microsoft Visual Studio\2019\Enterprise\VC\Tools\MSVC\14.23.28105\atlmfc\include\afxwin1.inl

; 130  : 	{ }

	push	esi
	mov	esi, ecx
	mov	DWORD PTR [esi], OFFSET ??_7CBrush@@6B@
	call	??1CGdiObject@@UAE@XZ			; CGdiObject::~CGdiObject
	mov	eax, DWORD PTR ___flags$[ebp]
	test	al, 1
	je	SHORT $LN12@scalar
	test	al, 4
	jne	SHORT $LN3@scalar
; File C:\Program Files (x86)\Microsoft Visual Studio\2019\Enterprise\VC\Tools\MSVC\14.23.28105\atlmfc\include\afx.inl

; 102  : 	{ ::operator delete(p); }

	push	esi
	call	??3@YAXPAX@Z				; operator delete
	add	esp, 4
	mov	eax, esi
	pop	esi
	pop	ebp
	ret	4
$LN3@scalar:
	push	8
	push	esi
	call	?__global_delete@@YAXPAXI@Z		; __global_delete
	add	esp, 8
$LN12@scalar:
	mov	eax, esi
	pop	esi
	pop	ebp
	ret	4
??_GCBrush@@UAEPAXI@Z ENDP				; CBrush::`scalar deleting destructor'
_TEXT	ENDS
; Function compile flags: /Ogtp
; File C:\Program Files (x86)\Microsoft Visual Studio\2019\Enterprise\VC\Tools\MSVC\14.23.28105\atlmfc\include\afx.inl
;	COMDAT ??_GCGdiObject@@UAEPAXI@Z
_TEXT	SEGMENT
___flags$ = 8						; size = 4
??_GCGdiObject@@UAEPAXI@Z PROC				; CGdiObject::`scalar deleting destructor', COMDAT
; _this$ = ecx
	push	ebp
	mov	ebp, esp
	push	esi
	mov	esi, ecx
	call	??1CGdiObject@@UAE@XZ			; CGdiObject::~CGdiObject
	mov	eax, DWORD PTR ___flags$[ebp]
	test	al, 1
	je	SHORT $LN9@scalar
	test	al, 4
	jne	SHORT $LN3@scalar

; 102  : 	{ ::operator delete(p); }

	push	esi
	call	??3@YAXPAX@Z				; operator delete
	add	esp, 4
	mov	eax, esi
	pop	esi
	pop	ebp
	ret	4
$LN3@scalar:
	push	8
	push	esi
	call	?__global_delete@@YAXPAXI@Z		; __global_delete
	add	esp, 8
$LN9@scalar:
	mov	eax, esi
	pop	esi
	pop	ebp
	ret	4
??_GCGdiObject@@UAEPAXI@Z ENDP				; CGdiObject::`scalar deleting destructor'
_TEXT	ENDS
; Function compile flags: /Ogtp
; File C:\Program Files (x86)\Microsoft Visual Studio\2019\Enterprise\VC\Tools\MSVC\14.23.28105\atlmfc\include\afx.inl
;	COMDAT ?Serialize@CObject@@UAEXAAVCArchive@@@Z
_TEXT	SEGMENT
___formal$ = 8						; size = 4
?Serialize@CObject@@UAEXAAVCArchive@@@Z PROC		; CObject::Serialize, COMDAT
; _this$ = ecx

; 96   : 	{ /* CObject does not serialize anything by default */ }

	ret	4
?Serialize@CObject@@UAEXAAVCArchive@@@Z ENDP		; CObject::Serialize
_TEXT	ENDS
; Function compile flags: /Ogtp
;	COMDAT ?__autoclassinit2@?$CStringT@_WV?$StrTraitMFC@_WV?$ChTraitsCRT@_W@ATL@@@@@ATL@@QAEXI@Z
_TEXT	SEGMENT
_classSize$dead$ = 8					; size = 4
?__autoclassinit2@?$CStringT@_WV?$StrTraitMFC@_WV?$ChTraitsCRT@_W@ATL@@@@@ATL@@QAEXI@Z PROC ; ATL::CStringT<wchar_t,StrTraitMFC<wchar_t,ATL::ChTraitsCRT<wchar_t> > >::__autoclassinit2, COMDAT
; _this$ = ecx
	mov	DWORD PTR [ecx], 0
	ret	4
?__autoclassinit2@?$CStringT@_WV?$StrTraitMFC@_WV?$ChTraitsCRT@_W@ATL@@@@@ATL@@QAEXI@Z ENDP ; ATL::CStringT<wchar_t,StrTraitMFC<wchar_t,ATL::ChTraitsCRT<wchar_t> > >::__autoclassinit2
_TEXT	ENDS
; Function compile flags: /Ogtp
; File C:\Program Files (x86)\Microsoft Visual Studio\2019\Enterprise\VC\Tools\MSVC\14.23.28105\atlmfc\include\atlsimpstr.h
;	COMDAT ??0?$CSimpleStringT@_W$0A@@ATL@@QAE@PAUIAtlStringMgr@1@@Z
_TEXT	SEGMENT
_pStringMgr$ = 8					; size = 4
??0?$CSimpleStringT@_W$0A@@ATL@@QAE@PAUIAtlStringMgr@1@@Z PROC ; ATL::CSimpleStringT<wchar_t,0>::CSimpleStringT<wchar_t,0>, COMDAT
; _this$ = ecx

; 203  : 	explicit CSimpleStringT(_Inout_ IAtlStringMgr* pStringMgr)

	push	ebp
	mov	ebp, esp
	push	esi
	mov	esi, ecx

; 204  : 	{
; 205  : 		ATLENSURE( pStringMgr != NULL );

	mov	ecx, DWORD PTR _pStringMgr$[ebp]
	test	ecx, ecx
	je	SHORT $LN16@CSimpleStr

; 206  : 		CStringData* pData = pStringMgr->GetNilString();

	mov	eax, DWORD PTR [ecx]
	call	DWORD PTR [eax+12]

; 59   : 		return (this+1);

	add	eax, 16					; 00000010H

; 780  : 		m_pszData = static_cast< PXSTR >( pData->data() );

	mov	DWORD PTR [esi], eax

; 207  : 		Attach( pData );
; 208  : 	}

	mov	eax, esi
	pop	esi
	pop	ebp
	ret	4
$LN16@CSimpleStr:

; 204  : 	{
; 205  : 		ATLENSURE( pStringMgr != NULL );

	push	-2147467259				; 80004005H
	call	?AtlThrowImpl@ATL@@YGXJ@Z		; ATL::AtlThrowImpl
$LN14@CSimpleStr:
	int	3
??0?$CSimpleStringT@_W$0A@@ATL@@QAE@PAUIAtlStringMgr@1@@Z ENDP ; ATL::CSimpleStringT<wchar_t,0>::CSimpleStringT<wchar_t,0>
_TEXT	ENDS
; Function compile flags: /Ogtp
; File C:\Program Files (x86)\Microsoft Visual Studio\2019\Enterprise\VC\Tools\MSVC\14.23.28105\atlmfc\include\afxstr.h
;	COMDAT ?GetDefaultManager@?$StrTraitMFC@_WV?$ChTraitsCRT@_W@ATL@@@@SAPAUIAtlStringMgr@ATL@@XZ
_TEXT	SEGMENT
?GetDefaultManager@?$StrTraitMFC@_WV?$ChTraitsCRT@_W@ATL@@@@SAPAUIAtlStringMgr@ATL@@XZ PROC ; StrTraitMFC<wchar_t,ATL::ChTraitsCRT<wchar_t> >::GetDefaultManager, COMDAT

; 52   : 		return( AfxGetStringManager() );

	jmp	?AfxGetStringManager@@YGPAUIAtlStringMgr@ATL@@XZ ; AfxGetStringManager
?GetDefaultManager@?$StrTraitMFC@_WV?$ChTraitsCRT@_W@ATL@@@@SAPAUIAtlStringMgr@ATL@@XZ ENDP ; StrTraitMFC<wchar_t,ATL::ChTraitsCRT<wchar_t> >::GetDefaultManager
_TEXT	ENDS
; Function compile flags: /Ogtp
; File C:\Program Files (x86)\Microsoft Visual Studio\2019\Enterprise\VC\Tools\MSVC\14.23.28105\atlmfc\include\cstringt.h
; File C:\Program Files (x86)\Microsoft Visual Studio\2019\Enterprise\VC\Tools\MSVC\14.23.28105\atlmfc\include\afxstr.h
; File C:\Program Files (x86)\Microsoft Visual Studio\2019\Enterprise\VC\Tools\MSVC\14.23.28105\atlmfc\include\cstringt.h
; File C:\Program Files (x86)\Microsoft Visual Studio\2019\Enterprise\VC\Tools\MSVC\14.23.28105\atlmfc\include\atlsimpstr.h
; File C:\Program Files (x86)\Microsoft Visual Studio\2019\Enterprise\VC\Tools\MSVC\14.23.28105\atlmfc\include\cstringt.h
; File C:\Program Files (x86)\Microsoft Visual Studio\2019\Enterprise\VC\Tools\MSVC\14.23.28105\atlmfc\include\atlsimpstr.h
; File C:\Program Files (x86)\Microsoft Visual Studio\2019\Enterprise\VC\Tools\MSVC\14.23.28105\atlmfc\include\cstringt.h
;	COMDAT ??0?$CStringT@_WV?$StrTraitMFC@_WV?$ChTraitsCRT@_W@ATL@@@@@ATL@@QAE@XZ
_TEXT	SEGMENT
??0?$CStringT@_WV?$StrTraitMFC@_WV?$ChTraitsCRT@_W@ATL@@@@@ATL@@QAE@XZ PROC ; ATL::CStringT<wchar_t,StrTraitMFC<wchar_t,ATL::ChTraitsCRT<wchar_t> > >::CStringT<wchar_t,StrTraitMFC<wchar_t,ATL::ChTraitsCRT<wchar_t> > >, COMDAT
; _this$ = ecx

; 1007 : 	{

	push	esi
	mov	esi, ecx
; File C:\Program Files (x86)\Microsoft Visual Studio\2019\Enterprise\VC\Tools\MSVC\14.23.28105\atlmfc\include\afxstr.h

; 52   : 		return( AfxGetStringManager() );

	call	?AfxGetStringManager@@YGPAUIAtlStringMgr@ATL@@XZ ; AfxGetStringManager
; File C:\Program Files (x86)\Microsoft Visual Studio\2019\Enterprise\VC\Tools\MSVC\14.23.28105\atlmfc\include\cstringt.h

; 1006 : 		CThisSimpleString( StringTraits::GetDefaultManager() )

	mov	ecx, eax
; File C:\Program Files (x86)\Microsoft Visual Studio\2019\Enterprise\VC\Tools\MSVC\14.23.28105\atlmfc\include\atlsimpstr.h

; 205  : 		ATLENSURE( pStringMgr != NULL );

	test	ecx, ecx
	je	SHORT $LN21@CStringT

; 206  : 		CStringData* pData = pStringMgr->GetNilString();

	mov	eax, DWORD PTR [ecx]
	call	DWORD PTR [eax+12]

; 59   : 		return (this+1);

	add	eax, 16					; 00000010H

; 780  : 		m_pszData = static_cast< PXSTR >( pData->data() );

	mov	DWORD PTR [esi], eax
; File C:\Program Files (x86)\Microsoft Visual Studio\2019\Enterprise\VC\Tools\MSVC\14.23.28105\atlmfc\include\cstringt.h

; 1008 : 	}

	mov	eax, esi
	pop	esi
	ret	0
$LN21@CStringT:
; File C:\Program Files (x86)\Microsoft Visual Studio\2019\Enterprise\VC\Tools\MSVC\14.23.28105\atlmfc\include\atlsimpstr.h

; 205  : 		ATLENSURE( pStringMgr != NULL );

	push	-2147467259				; 80004005H
	call	?AtlThrowImpl@ATL@@YGXJ@Z		; ATL::AtlThrowImpl
$LN19@CStringT:
	int	3
??0?$CStringT@_WV?$StrTraitMFC@_WV?$ChTraitsCRT@_W@ATL@@@@@ATL@@QAE@XZ ENDP ; ATL::CStringT<wchar_t,StrTraitMFC<wchar_t,ATL::ChTraitsCRT<wchar_t> > >::CStringT<wchar_t,StrTraitMFC<wchar_t,ATL::ChTraitsCRT<wchar_t> > >
_TEXT	ENDS
; Function compile flags: /Ogtp
; File C:\Program Files (x86)\Microsoft Visual Studio\2019\Enterprise\VC\Tools\MSVC\14.23.28105\atlmfc\include\cstringt.h
;	COMDAT ?GetFormattedLength@?$ChTraitsCRT@_W@ATL@@SAHPB_WPAD@Z
_TEXT	SEGMENT
_pszFormat$ = 8						; size = 4
_args$ = 12						; size = 4
?GetFormattedLength@?$ChTraitsCRT@_W@ATL@@SAHPB_WPAD@Z PROC ; ATL::ChTraitsCRT<wchar_t>::GetFormattedLength, COMDAT

; 678  : 	{

	push	ebp
	mov	ebp, esp
	and	esp, -8					; fffffff8H

; 679  : #if _MSC_VER < 1900
; 680  : 		return _vscwprintf(pszFormat, args);
; 681  : #else
; 682  : 		// Explicitly request the legacy wide format specifiers mode from the CRT,
; 683  : 		// for compatibility with previous versions.  While the CRT supports two
; 684  : 		// modes, the ATL and MFC functions that accept format strings only support
; 685  : 		// legacy mode format strings.
; 686  : 		int const result = __stdio_common_vswprintf(

	push	DWORD PTR _args$[ebp]
	push	0
	push	DWORD PTR _pszFormat$[ebp]
	push	0
	push	0
	call	___local_stdio_printf_options
	mov	ecx, DWORD PTR [eax]
	push	DWORD PTR [eax+4]
	or	ecx, 6
	push	ecx
	call	___stdio_common_vswprintf

; 687  : 			_CRT_INTERNAL_LOCAL_PRINTF_OPTIONS |
; 688  : 			_CRT_INTERNAL_PRINTF_STANDARD_SNPRINTF_BEHAVIOR |
; 689  : 			_CRT_INTERNAL_PRINTF_LEGACY_WIDE_SPECIFIERS,
; 690  : 			NULL, 0, pszFormat, NULL, args);
; 691  : 
; 692  : 		return result < 0 ? -1 : result;

	or	ecx, -1
	add	esp, 28					; 0000001cH
	test	eax, eax
	cmovs	eax, ecx

; 693  : #endif
; 694  : 	}

	mov	esp, ebp
	pop	ebp
	ret	0
?GetFormattedLength@?$ChTraitsCRT@_W@ATL@@SAHPB_WPAD@Z ENDP ; ATL::ChTraitsCRT<wchar_t>::GetFormattedLength
_TEXT	ENDS
; Function compile flags: /Ogtp
; File C:\Program Files (x86)\Microsoft Visual Studio\2019\Enterprise\VC\Tools\MSVC\14.23.28105\atlmfc\include\atlsimpstr.h
;	COMDAT ?IsShared@CStringData@ATL@@QBE_NXZ
_TEXT	SEGMENT
?IsShared@CStringData@ATL@@QBE_NXZ PROC			; ATL::CStringData::IsShared, COMDAT
; _this$ = ecx

; 73   : 		return( nRefs > 1 );

	cmp	DWORD PTR [ecx+12], 1
	setg	al

; 74   : 	}

	ret	0
?IsShared@CStringData@ATL@@QBE_NXZ ENDP			; ATL::CStringData::IsShared
_TEXT	ENDS
; Function compile flags: /Ogtp
; File C:\Program Files (x86)\Windows Kits\10\Include\10.0.18362.0\ucrt\corecrt_memcpy_s.h
;	COMDAT _memcpy_s
_TEXT	SEGMENT
__Source$ = 8						; size = 4
__SourceSize$ = 12					; size = 4
_memcpy_s PROC						; COMDAT
; __Destination$ = ecx
; __DestinationSize$ = edx

; 41   :     {

	push	ebp
	mov	ebp, esp
	push	esi

; 42   :         if (_SourceSize == 0)

	mov	esi, DWORD PTR __SourceSize$[ebp]
	push	edi
	mov	edi, edx
	test	esi, esi
	jne	SHORT $LN2@memcpy_s

; 43   :         {
; 44   :             return 0;

	pop	edi
	xor	eax, eax

; 61   :     }

	pop	esi
	pop	ebp
	ret	0
$LN2@memcpy_s:

; 45   :         }
; 46   : 
; 47   :         _CRT_MEMCPY_S_VALIDATE_RETURN_ERRCODE(_Destination != NULL, EINVAL);

	test	ecx, ecx
	jne	SHORT $LN3@memcpy_s
	call	__errno
	mov	DWORD PTR [eax], 22			; 00000016H
	call	__invalid_parameter_noinfo
	pop	edi
	mov	eax, 22					; 00000016H

; 61   :     }

	pop	esi
	pop	ebp
	ret	0
$LN3@memcpy_s:
	push	ebx

; 48   :         if (_Source == NULL || _DestinationSize < _SourceSize)

	mov	ebx, DWORD PTR __Source$[ebp]
	test	ebx, ebx
	je	SHORT $LN5@memcpy_s
	cmp	edi, esi
	jb	SHORT $LN5@memcpy_s

; 57   :         }
; 58   : #pragma warning(suppress:4996) // Deprecation
; 59   :         memcpy(_Destination, _Source, _SourceSize);

	push	esi
	push	ebx
	push	ecx
	call	_memcpy
	add	esp, 12					; 0000000cH

; 60   :         return 0;

	xor	eax, eax
	pop	ebx
	pop	edi

; 61   :     }

	pop	esi
	pop	ebp
	ret	0
$LN5@memcpy_s:

; 49   :         {
; 50   :             memset(_Destination, 0, _DestinationSize);

	push	edi
	push	0
	push	ecx
	call	_memset
	add	esp, 12					; 0000000cH

; 51   : 
; 52   :             _CRT_MEMCPY_S_VALIDATE_RETURN_ERRCODE(_Source != NULL,                 EINVAL);

	test	ebx, ebx
	jne	SHORT $LN6@memcpy_s
	call	__errno
	mov	DWORD PTR [eax], 22			; 00000016H
	call	__invalid_parameter_noinfo
$LN7@memcpy_s:

; 54   : 
; 55   :             // Unreachable, but required to suppress /analyze warnings:
; 56   :             return EINVAL;

	pop	ebx
	pop	edi
	mov	eax, 22					; 00000016H

; 61   :     }

	pop	esi
	pop	ebp
	ret	0
$LN6@memcpy_s:

; 53   :             _CRT_MEMCPY_S_VALIDATE_RETURN_ERRCODE(_DestinationSize >= _SourceSize, ERANGE);

	cmp	edi, esi
	jae	SHORT $LN7@memcpy_s
	call	__errno
	mov	DWORD PTR [eax], 34			; 00000022H
	call	__invalid_parameter_noinfo
	pop	ebx
	pop	edi
	mov	eax, 34					; 00000022H

; 61   :     }

	pop	esi
	pop	ebp
	ret	0
_memcpy_s ENDP
_TEXT	ENDS
; Function compile flags: /Ogtp
; File C:\Program Files (x86)\Microsoft Visual Studio\2019\Enterprise\VC\Tools\MSVC\14.23.28105\atlmfc\include\atlsimpstr.h
; File C:\Program Files (x86)\Windows Kits\10\Include\10.0.18362.0\ucrt\corecrt_memcpy_s.h
; File C:\Program Files (x86)\Microsoft Visual Studio\2019\Enterprise\VC\Tools\MSVC\14.23.28105\atlmfc\include\atlsimpstr.h
; File C:\Program Files (x86)\Windows Kits\10\Include\10.0.18362.0\ucrt\corecrt_memcpy_s.h
; File C:\Program Files (x86)\Microsoft Visual Studio\2019\Enterprise\VC\Tools\MSVC\14.23.28105\atlmfc\include\atlsimpstr.h
; File C:\Program Files (x86)\Windows Kits\10\Include\10.0.18362.0\ucrt\corecrt_memcpy_s.h
; File C:\Program Files (x86)\Microsoft Visual Studio\2019\Enterprise\VC\Tools\MSVC\14.23.28105\atlmfc\include\atlsimpstr.h
; File C:\Program Files (x86)\Windows Kits\10\Include\10.0.18362.0\ucrt\corecrt_memcpy_s.h
; File C:\Program Files (x86)\Microsoft Visual Studio\2019\Enterprise\VC\Tools\MSVC\14.23.28105\atlmfc\include\atlsimpstr.h
; File C:\Program Files (x86)\Windows Kits\10\Include\10.0.18362.0\ucrt\corecrt_memcpy_s.h
; File C:\Program Files (x86)\Microsoft Visual Studio\2019\Enterprise\VC\Tools\MSVC\14.23.28105\atlmfc\include\atlsimpstr.h
; File C:\Program Files (x86)\Windows Kits\10\Include\10.0.18362.0\ucrt\corecrt_memcpy_s.h
; File C:\Program Files (x86)\Microsoft Visual Studio\2019\Enterprise\VC\Tools\MSVC\14.23.28105\atlmfc\include\atlsimpstr.h
; File C:\Program Files (x86)\Windows Kits\10\Include\10.0.18362.0\ucrt\corecrt_memcpy_s.h
; File C:\Program Files (x86)\Microsoft Visual Studio\2019\Enterprise\VC\Tools\MSVC\14.23.28105\atlmfc\include\atlsimpstr.h
; File C:\Program Files (x86)\Windows Kits\10\Include\10.0.18362.0\ucrt\corecrt_memcpy_s.h
; File C:\Program Files (x86)\Microsoft Visual Studio\2019\Enterprise\VC\Tools\MSVC\14.23.28105\atlmfc\include\atlsimpstr.h
;	COMDAT ?CopyChars@?$CSimpleStringT@_W$0A@@ATL@@SAXPA_WIPB_WH@Z
_TEXT	SEGMENT
_pchDest$ = 8						; size = 4
_nDestLen$ = 12						; size = 4
_pchSrc$ = 16						; size = 4
_nChars$ = 20						; size = 4
?CopyChars@?$CSimpleStringT@_W$0A@@ATL@@SAXPA_WIPB_WH@Z PROC ; ATL::CSimpleStringT<wchar_t,0>::CopyChars, COMDAT

; 695  : 	{

	push	ebp
	mov	ebp, esp

; 696  : 		memcpy_s( pchDest, nDestLen*sizeof( XCHAR ),

	mov	eax, DWORD PTR _nChars$[ebp]
	push	ebx
	push	esi
	lea	esi, DWORD PTR [eax+eax]
	mov	eax, DWORD PTR _nDestLen$[ebp]
	lea	ebx, DWORD PTR [eax+eax]
; File C:\Program Files (x86)\Windows Kits\10\Include\10.0.18362.0\ucrt\corecrt_memcpy_s.h

; 42   :         if (_SourceSize == 0)

	test	esi, esi
	je	SHORT $LN9@CopyChars

; 47   :         _CRT_MEMCPY_S_VALIDATE_RETURN_ERRCODE(_Destination != NULL, EINVAL);

	mov	eax, DWORD PTR _pchDest$[ebp]
	test	eax, eax
	jne	SHORT $LN5@CopyChars
	call	__errno
	pop	esi
; File C:\Program Files (x86)\Microsoft Visual Studio\2019\Enterprise\VC\Tools\MSVC\14.23.28105\atlmfc\include\atlsimpstr.h

; 698  : 	}

	pop	ebx
; File C:\Program Files (x86)\Windows Kits\10\Include\10.0.18362.0\ucrt\corecrt_memcpy_s.h

; 47   :         _CRT_MEMCPY_S_VALIDATE_RETURN_ERRCODE(_Destination != NULL, EINVAL);

	mov	DWORD PTR [eax], 22			; 00000016H
; File C:\Program Files (x86)\Microsoft Visual Studio\2019\Enterprise\VC\Tools\MSVC\14.23.28105\atlmfc\include\atlsimpstr.h

; 698  : 	}

	pop	ebp
; File C:\Program Files (x86)\Windows Kits\10\Include\10.0.18362.0\ucrt\corecrt_memcpy_s.h

; 47   :         _CRT_MEMCPY_S_VALIDATE_RETURN_ERRCODE(_Destination != NULL, EINVAL);

	jmp	__invalid_parameter_noinfo
$LN5@CopyChars:
	push	edi

; 48   :         if (_Source == NULL || _DestinationSize < _SourceSize)

	mov	edi, DWORD PTR _pchSrc$[ebp]
	test	edi, edi
	je	SHORT $LN7@CopyChars
	cmp	ebx, esi
	jb	SHORT $LN7@CopyChars

; 54   : 
; 55   :             // Unreachable, but required to suppress /analyze warnings:
; 56   :             return EINVAL;
; 57   :         }
; 58   : #pragma warning(suppress:4996) // Deprecation
; 59   :         memcpy(_Destination, _Source, _SourceSize);

	push	esi
	push	edi
	push	eax
	call	_memcpy
	add	esp, 12					; 0000000cH
$LN11@CopyChars:
	pop	edi
$LN9@CopyChars:
	pop	esi
; File C:\Program Files (x86)\Microsoft Visual Studio\2019\Enterprise\VC\Tools\MSVC\14.23.28105\atlmfc\include\atlsimpstr.h

; 698  : 	}

	pop	ebx
	pop	ebp
	ret	0
$LN7@CopyChars:
; File C:\Program Files (x86)\Windows Kits\10\Include\10.0.18362.0\ucrt\corecrt_memcpy_s.h

; 50   :             memset(_Destination, 0, _DestinationSize);

	push	ebx
	push	0
	push	eax
	call	_memset
	add	esp, 12					; 0000000cH

; 52   :             _CRT_MEMCPY_S_VALIDATE_RETURN_ERRCODE(_Source != NULL,                 EINVAL);

	test	edi, edi
	jne	SHORT $LN8@CopyChars
	call	__errno
	pop	edi
	pop	esi
; File C:\Program Files (x86)\Microsoft Visual Studio\2019\Enterprise\VC\Tools\MSVC\14.23.28105\atlmfc\include\atlsimpstr.h

; 698  : 	}

	pop	ebx
; File C:\Program Files (x86)\Windows Kits\10\Include\10.0.18362.0\ucrt\corecrt_memcpy_s.h

; 52   :             _CRT_MEMCPY_S_VALIDATE_RETURN_ERRCODE(_Source != NULL,                 EINVAL);

	mov	DWORD PTR [eax], 22			; 00000016H
; File C:\Program Files (x86)\Microsoft Visual Studio\2019\Enterprise\VC\Tools\MSVC\14.23.28105\atlmfc\include\atlsimpstr.h

; 698  : 	}

	pop	ebp
; File C:\Program Files (x86)\Windows Kits\10\Include\10.0.18362.0\ucrt\corecrt_memcpy_s.h

; 52   :             _CRT_MEMCPY_S_VALIDATE_RETURN_ERRCODE(_Source != NULL,                 EINVAL);

	jmp	__invalid_parameter_noinfo
$LN8@CopyChars:

; 53   :             _CRT_MEMCPY_S_VALIDATE_RETURN_ERRCODE(_DestinationSize >= _SourceSize, ERANGE);

	cmp	ebx, esi
	jae	SHORT $LN11@CopyChars
	call	__errno
	pop	edi
	pop	esi
; File C:\Program Files (x86)\Microsoft Visual Studio\2019\Enterprise\VC\Tools\MSVC\14.23.28105\atlmfc\include\atlsimpstr.h

; 698  : 	}

	pop	ebx
; File C:\Program Files (x86)\Windows Kits\10\Include\10.0.18362.0\ucrt\corecrt_memcpy_s.h

; 53   :             _CRT_MEMCPY_S_VALIDATE_RETURN_ERRCODE(_DestinationSize >= _SourceSize, ERANGE);

	mov	DWORD PTR [eax], 34			; 00000022H
; File C:\Program Files (x86)\Microsoft Visual Studio\2019\Enterprise\VC\Tools\MSVC\14.23.28105\atlmfc\include\atlsimpstr.h

; 698  : 	}

	pop	ebp
; File C:\Program Files (x86)\Windows Kits\10\Include\10.0.18362.0\ucrt\corecrt_memcpy_s.h

; 53   :             _CRT_MEMCPY_S_VALIDATE_RETURN_ERRCODE(_DestinationSize >= _SourceSize, ERANGE);

	jmp	__invalid_parameter_noinfo
?CopyChars@?$CSimpleStringT@_W$0A@@ATL@@SAXPA_WIPB_WH@Z ENDP ; ATL::CSimpleStringT<wchar_t,0>::CopyChars
_TEXT	ENDS
; Function compile flags: /Ogtp
; File C:\Program Files (x86)\Microsoft Visual Studio\2019\Enterprise\VC\Tools\MSVC\14.23.28105\atlmfc\include\atlsimpstr.h
;	COMDAT ?Fork@?$CSimpleStringT@_W$0A@@ATL@@AAEXH@Z
_TEXT	SEGMENT
_this$1$ = -12						; size = 4
_nOldLength$1$ = -8					; size = 4
tv225 = -4						; size = 4
_pNewData$1$ = 8					; size = 4
_nLength$ = 8						; size = 4
?Fork@?$CSimpleStringT@_W$0A@@ATL@@AAEXH@Z PROC		; ATL::CSimpleStringT<wchar_t,0>::Fork, COMDAT
; _this$ = ecx

; 783  : 	{

	push	ebp
	mov	ebp, esp
	sub	esp, 12					; 0000000cH
	mov	eax, ecx
	push	ebx
	mov	DWORD PTR _this$1$[ebp], eax
	push	esi

; 800  : 		return( reinterpret_cast< CStringData* >( m_pszData )-1 );

	mov	eax, DWORD PTR [eax]

; 784  : 		CStringData* pOldData = GetData();
; 785  : 		int nOldLength = pOldData->nDataLength;
; 786  : 		CStringData* pNewData = pOldData->pStringMgr->Clone()->Allocate( nLength, sizeof( XCHAR ) );

	mov	ecx, DWORD PTR [eax-16]
	mov	ebx, DWORD PTR [eax-12]
	push	edi

; 800  : 		return( reinterpret_cast< CStringData* >( m_pszData )-1 );

	lea	edi, DWORD PTR [eax-16]
	mov	DWORD PTR tv225[ebp], eax

; 784  : 		CStringData* pOldData = GetData();
; 785  : 		int nOldLength = pOldData->nDataLength;
; 786  : 		CStringData* pNewData = pOldData->pStringMgr->Clone()->Allocate( nLength, sizeof( XCHAR ) );

	mov	eax, DWORD PTR [ecx]
	mov	DWORD PTR _nOldLength$1$[ebp], ebx
	call	DWORD PTR [eax+16]
	mov	esi, DWORD PTR _nLength$[ebp]
	mov	ecx, eax
	push	2
	push	esi
	mov	edx, DWORD PTR [eax]
	call	DWORD PTR [edx]
	mov	DWORD PTR _pNewData$1$[ebp], eax

; 787  : 		if( pNewData == NULL )

	test	eax, eax
	je	SHORT $LN19@Fork

; 790  : 		}
; 791  : 		int nCharsToCopy = ((nOldLength < nLength) ? nOldLength : nLength)+1;  // Copy '\0'

	cmp	ebx, esi
	cmovl	esi, ebx

; 59   : 		return (this+1);

	lea	ebx, DWORD PTR [eax+16]

; 790  : 		}
; 791  : 		int nCharsToCopy = ((nOldLength < nLength) ? nOldLength : nLength)+1;  // Copy '\0'

	inc	esi

; 792  : 		CopyChars( PXSTR( pNewData->data() ), nCharsToCopy,

	push	esi
	push	DWORD PTR tv225[ebp]
	push	esi
	push	ebx
	call	?CopyChars@?$CSimpleStringT@_W$0A@@ATL@@SAXPA_WIPB_WH@Z ; ATL::CSimpleStringT<wchar_t,0>::CopyChars

; 793  : 			PCXSTR( pOldData->data() ), nCharsToCopy );
; 794  : 		pNewData->nDataLength = nOldLength;

	mov	ecx, DWORD PTR _pNewData$1$[ebp]
	add	esp, 16					; 00000010H
	mov	eax, DWORD PTR _nOldLength$1$[ebp]
	mov	DWORD PTR [ecx+4], eax

; 88   : 		if( _InterlockedDecrement( &nRefs ) <= 0 )

	or	eax, -1
	lock	 xadd	 DWORD PTR [edi+12], eax
	dec	eax
	test	eax, eax
	jg	SHORT $LN11@Fork

; 89   : 		{
; 90   : 			pStringMgr->Free( this );

	mov	ecx, DWORD PTR [edi]
	push	edi
	mov	eax, DWORD PTR [ecx]
	call	DWORD PTR [eax+4]
$LN11@Fork:

; 780  : 		m_pszData = static_cast< PXSTR >( pData->data() );

	mov	eax, DWORD PTR _this$1$[ebp]
	pop	edi
	pop	esi
	mov	DWORD PTR [eax], ebx
	pop	ebx

; 795  : 		pOldData->Release();
; 796  : 		Attach( pNewData );
; 797  : 	}

	mov	esp, ebp
	pop	ebp
	ret	4
$LN19@Fork:

; 788  : 		{
; 789  : 			ThrowMemoryException();

	call	?ThrowMemoryException@?$CSimpleStringT@_W$0A@@ATL@@KAXXZ ; ATL::CSimpleStringT<wchar_t,0>::ThrowMemoryException
$LN17@Fork:
	int	3
?Fork@?$CSimpleStringT@_W$0A@@ATL@@AAEXH@Z ENDP		; ATL::CSimpleStringT<wchar_t,0>::Fork
_TEXT	ENDS
; Function compile flags: /Ogtp
; File C:\Program Files (x86)\Microsoft Visual Studio\2019\Enterprise\VC\Tools\MSVC\14.23.28105\atlmfc\include\atlsimpstr.h
;	COMDAT ?ThrowMemoryException@?$CSimpleStringT@_W$0A@@ATL@@KAXXZ
_TEXT	SEGMENT
?ThrowMemoryException@?$CSimpleStringT@_W$0A@@ATL@@KAXXZ PROC ; ATL::CSimpleStringT<wchar_t,0>::ThrowMemoryException, COMDAT

; 773  : 		AtlThrow( E_OUTOFMEMORY );

	push	-2147024882				; 8007000eH
	call	?AtlThrowImpl@ATL@@YGXJ@Z		; ATL::AtlThrowImpl
$LN3@ThrowMemor:
	int	3
?ThrowMemoryException@?$CSimpleStringT@_W$0A@@ATL@@KAXXZ ENDP ; ATL::CSimpleStringT<wchar_t,0>::ThrowMemoryException
_TEXT	ENDS
; Function compile flags: /Ogtp
; File C:\Program Files (x86)\Microsoft Visual Studio\2019\Enterprise\VC\Tools\MSVC\14.23.28105\atlmfc\include\atlsimpstr.h
;	COMDAT ?data@CStringData@ATL@@QAEPAXXZ
_TEXT	SEGMENT
?data@CStringData@ATL@@QAEPAXXZ PROC			; ATL::CStringData::data, COMDAT
; _this$ = ecx

; 59   : 		return (this+1);

	lea	eax, DWORD PTR [ecx+16]

; 60   : 	}

	ret	0
?data@CStringData@ATL@@QAEPAXXZ ENDP			; ATL::CStringData::data
_TEXT	ENDS
; Function compile flags: /Ogtp
; File C:\Program Files (x86)\Microsoft Visual Studio\2019\Enterprise\VC\Tools\MSVC\14.23.28105\atlmfc\include\atlsimpstr.h
;	COMDAT ?Attach@?$CSimpleStringT@_W$0A@@ATL@@AAEXPAUCStringData@2@@Z
_TEXT	SEGMENT
_pData$ = 8						; size = 4
?Attach@?$CSimpleStringT@_W$0A@@ATL@@AAEXPAUCStringData@2@@Z PROC ; ATL::CSimpleStringT<wchar_t,0>::Attach, COMDAT
; _this$ = ecx

; 779  : 	{

	push	ebp
	mov	ebp, esp

; 59   : 		return (this+1);

	mov	eax, DWORD PTR _pData$[ebp]
	add	eax, 16					; 00000010H

; 780  : 		m_pszData = static_cast< PXSTR >( pData->data() );

	mov	DWORD PTR [ecx], eax

; 781  : 	}

	pop	ebp
	ret	4
?Attach@?$CSimpleStringT@_W$0A@@ATL@@AAEXPAUCStringData@2@@Z ENDP ; ATL::CSimpleStringT<wchar_t,0>::Attach
_TEXT	ENDS
; Function compile flags: /Ogtp
; File C:\Program Files (x86)\Microsoft Visual Studio\2019\Enterprise\VC\Tools\MSVC\14.23.28105\atlmfc\include\atlsimpstr.h
;	COMDAT ?Reallocate@?$CSimpleStringT@_W$0A@@ATL@@AAEXH@Z
_TEXT	SEGMENT
_nLength$ = 8						; size = 4
?Reallocate@?$CSimpleStringT@_W$0A@@ATL@@AAEXH@Z PROC	; ATL::CSimpleStringT<wchar_t,0>::Reallocate, COMDAT
; _this$ = ecx

; 849  : 	{

	push	ebp
	mov	ebp, esp
	push	esi

; 850  : 		CStringData* pOldData = GetData();
; 851  : 		ATLASSERT( pOldData->nAllocLength < nLength );
; 852  : 		IAtlStringMgr* pStringMgr = pOldData->pStringMgr;
; 853  : 		if ( pOldData->nAllocLength >= nLength || nLength <= 0)

	mov	esi, DWORD PTR _nLength$[ebp]
	push	edi
	mov	edi, ecx

; 800  : 		return( reinterpret_cast< CStringData* >( m_pszData )-1 );

	mov	edx, DWORD PTR [edi]
	sub	edx, 16					; 00000010H

; 850  : 		CStringData* pOldData = GetData();
; 851  : 		ATLASSERT( pOldData->nAllocLength < nLength );
; 852  : 		IAtlStringMgr* pStringMgr = pOldData->pStringMgr;
; 853  : 		if ( pOldData->nAllocLength >= nLength || nLength <= 0)

	cmp	DWORD PTR [edx+8], esi
	jge	SHORT $LN3@Reallocate
	test	esi, esi
	jle	SHORT $LN3@Reallocate

; 856  : 			return;
; 857  : 		}
; 858  : 		CStringData* pNewData = pStringMgr->Reallocate( pOldData, nLength, sizeof( XCHAR ) );

	mov	ecx, DWORD PTR [edx]
	push	2
	push	esi
	push	edx
	mov	eax, DWORD PTR [ecx]
	call	DWORD PTR [eax+8]

; 859  : 		if( pNewData == NULL )

	test	eax, eax
	je	SHORT $LN3@Reallocate

; 59   : 		return (this+1);

	add	eax, 16					; 00000010H

; 780  : 		m_pszData = static_cast< PXSTR >( pData->data() );

	mov	DWORD PTR [edi], eax
	pop	edi
	pop	esi

; 860  : 		{
; 861  : 			ThrowMemoryException();
; 862  : 		}
; 863  : 		Attach( pNewData );
; 864  : 	}

	pop	ebp
	ret	4
$LN3@Reallocate:

; 854  : 		{
; 855  : 			ThrowMemoryException();

	call	?ThrowMemoryException@?$CSimpleStringT@_W$0A@@ATL@@KAXXZ ; ATL::CSimpleStringT<wchar_t,0>::ThrowMemoryException
$LN12@Reallocate:
	int	3
?Reallocate@?$CSimpleStringT@_W$0A@@ATL@@AAEXH@Z ENDP	; ATL::CSimpleStringT<wchar_t,0>::Reallocate
_TEXT	ENDS
; Function compile flags: /Ogtp
; File C:\Program Files (x86)\Microsoft Visual Studio\2019\Enterprise\VC\Tools\MSVC\14.23.28105\atlmfc\include\atlsimpstr.h
;	COMDAT ?PrepareWrite2@?$CSimpleStringT@_W$0A@@ATL@@AAEXH@Z
_TEXT	SEGMENT
_nLength$ = 8						; size = 4
?PrepareWrite2@?$CSimpleStringT@_W$0A@@ATL@@AAEXH@Z PROC ; ATL::CSimpleStringT<wchar_t,0>::PrepareWrite2, COMDAT
; _this$ = ecx

; 818  : 	{

	push	ebp
	mov	ebp, esp
	push	esi

; 819  : 		CStringData* pOldData = GetData();
; 820  : 		if( pOldData->nDataLength > nLength )

	mov	esi, DWORD PTR _nLength$[ebp]
	push	edi
	mov	edi, ecx

; 800  : 		return( reinterpret_cast< CStringData* >( m_pszData )-1 );

	mov	ecx, DWORD PTR [edi]

; 819  : 		CStringData* pOldData = GetData();
; 820  : 		if( pOldData->nDataLength > nLength )

	cmp	DWORD PTR [ecx-12], esi
	cmovg	esi, DWORD PTR [ecx-12]

; 73   : 		return( nRefs > 1 );

	cmp	DWORD PTR [ecx-4], 1

; 821  : 		{
; 822  : 			nLength = pOldData->nDataLength;
; 823  : 		}
; 824  : 		if( pOldData->IsShared() )

	jle	SHORT $LN3@PrepareWri

; 825  : 		{
; 826  : 			Fork( nLength );

	push	esi
	mov	ecx, edi
	call	?Fork@?$CSimpleStringT@_W$0A@@ATL@@AAEXH@Z ; ATL::CSimpleStringT<wchar_t,0>::Fork
	pop	edi

; 846  : 		}
; 847  : 	}

	pop	esi
	pop	ebp
	ret	4
$LN3@PrepareWri:

; 827  : 		}
; 828  : 		else if( pOldData->nAllocLength < nLength )

	mov	ecx, DWORD PTR [ecx-8]
	cmp	ecx, esi
	jge	SHORT $LN5@PrepareWri

; 829  : 		{
; 830  : 			// Grow exponentially, until we hit 1G, then by 1M thereafter.
; 831  : 			int nNewLength = pOldData->nAllocLength;
; 832  : 			if( nNewLength > 1024 * 1024 * 1024 )

	cmp	ecx, 1073741824				; 40000000H
	jle	SHORT $LN6@PrepareWri

; 833  : 			{
; 834  : 				nNewLength += 1024 * 1024;

	mov	eax, 1048576				; 00100000H

; 835  : 			}

	jmp	SHORT $LN7@PrepareWri
$LN6@PrepareWri:

; 836  : 			else
; 837  : 			{
; 838  : 				// Exponential growth factor is 1.5.
; 839  : 				nNewLength = nNewLength + nNewLength / 2;

	mov	eax, ecx
	cdq
	sub	eax, edx
	sar	eax, 1
$LN7@PrepareWri:

; 840  : 			}
; 841  : 			if( nNewLength < nLength )

	add	eax, ecx

; 842  : 			{
; 843  : 				nNewLength = nLength;
; 844  : 			}
; 845  : 			Reallocate( nNewLength );

	mov	ecx, edi
	cmp	eax, esi
	cmovge	esi, eax
	push	esi
	call	?Reallocate@?$CSimpleStringT@_W$0A@@ATL@@AAEXH@Z ; ATL::CSimpleStringT<wchar_t,0>::Reallocate
$LN5@PrepareWri:

; 846  : 		}
; 847  : 	}

	pop	edi
	pop	esi
	pop	ebp
	ret	4
?PrepareWrite2@?$CSimpleStringT@_W$0A@@ATL@@AAEXH@Z ENDP ; ATL::CSimpleStringT<wchar_t,0>::PrepareWrite2
_TEXT	ENDS
; Function compile flags: /Ogtp
; File C:\Program Files (x86)\Microsoft Visual Studio\2019\Enterprise\VC\Tools\MSVC\14.23.28105\atlmfc\include\atlsimpstr.h
;	COMDAT ?PrepareWrite@?$CSimpleStringT@_W$0A@@ATL@@AAEPA_WH@Z
_TEXT	SEGMENT
_nLength$ = 8						; size = 4
?PrepareWrite@?$CSimpleStringT@_W$0A@@ATL@@AAEPA_WH@Z PROC ; ATL::CSimpleStringT<wchar_t,0>::PrepareWrite, COMDAT
; _this$ = ecx

; 803  : 	{

	push	ebp
	mov	ebp, esp
	push	esi

; 804  : 		if (nLength < 0)

	mov	esi, DWORD PTR _nLength$[ebp]
	push	edi
	mov	edi, ecx
	test	esi, esi
	js	SHORT $LN9@PrepareWri

; 800  : 		return( reinterpret_cast< CStringData* >( m_pszData )-1 );

	mov	edx, DWORD PTR [edi]

; 806  : 
; 807  : 		CStringData* pOldData = GetData();
; 808  : 		int nShared = 1-pOldData->nRefs;  // nShared < 0 means true, >= 0 means false

	mov	ecx, 1

; 809  : 		int nTooShort = pOldData->nAllocLength-nLength;  // nTooShort < 0 means true, >= 0 means false

	mov	eax, DWORD PTR [edx-8]
	sub	ecx, DWORD PTR [edx-4]
	sub	eax, esi

; 810  : 		if( (nShared|nTooShort) < 0 )  // If either sign bit is set (i.e. either is less than zero), we need to copy data

	or	ecx, eax
	jge	SHORT $LN3@PrepareWri

; 811  : 		{
; 812  : 			PrepareWrite2( nLength );

	push	esi
	mov	ecx, edi
	call	?PrepareWrite2@?$CSimpleStringT@_W$0A@@ATL@@AAEXH@Z ; ATL::CSimpleStringT<wchar_t,0>::PrepareWrite2
	mov	edx, DWORD PTR [edi]
$LN3@PrepareWri:

; 813  : 		}
; 814  : 
; 815  : 		return( m_pszData );

	pop	edi
	mov	eax, edx
	pop	esi

; 816  : 	}

	pop	ebp
	ret	4
$LN9@PrepareWri:

; 805  : 			AtlThrow(E_INVALIDARG);

	push	-2147024809				; 80070057H
	call	?AtlThrowImpl@ATL@@YGXJ@Z		; ATL::AtlThrowImpl
$LN7@PrepareWri:
	int	3
?PrepareWrite@?$CSimpleStringT@_W$0A@@ATL@@AAEPA_WH@Z ENDP ; ATL::CSimpleStringT<wchar_t,0>::PrepareWrite
_TEXT	ENDS
; Function compile flags: /Ogtp
; File C:\Program Files (x86)\Microsoft Visual Studio\2019\Enterprise\VC\Tools\MSVC\14.23.28105\atlmfc\include\atlsimpstr.h
;	COMDAT ?GetBuffer@?$CSimpleStringT@_W$0A@@ATL@@QAEPA_WH@Z
_TEXT	SEGMENT
_nMinBufferLength$ = 8					; size = 4
?GetBuffer@?$CSimpleStringT@_W$0A@@ATL@@QAEPA_WH@Z PROC	; ATL::CSimpleStringT<wchar_t,0>::GetBuffer, COMDAT
; _this$ = ecx

; 507  : 	{

	push	ebp
	mov	ebp, esp
	push	esi

; 804  : 		if (nLength < 0)

	mov	esi, DWORD PTR _nMinBufferLength$[ebp]

; 507  : 	{

	push	edi
	mov	edi, ecx

; 804  : 		if (nLength < 0)

	test	esi, esi
	js	SHORT $LN12@GetBuffer

; 800  : 		return( reinterpret_cast< CStringData* >( m_pszData )-1 );

	mov	edx, DWORD PTR [edi]

; 808  : 		int nShared = 1-pOldData->nRefs;  // nShared < 0 means true, >= 0 means false

	mov	ecx, 1

; 809  : 		int nTooShort = pOldData->nAllocLength-nLength;  // nTooShort < 0 means true, >= 0 means false

	mov	eax, DWORD PTR [edx-8]
	sub	ecx, DWORD PTR [edx-4]
	sub	eax, esi

; 810  : 		if( (nShared|nTooShort) < 0 )  // If either sign bit is set (i.e. either is less than zero), we need to copy data

	or	ecx, eax
	jge	SHORT $LN5@GetBuffer

; 811  : 		{
; 812  : 			PrepareWrite2( nLength );

	push	esi
	mov	ecx, edi
	call	?PrepareWrite2@?$CSimpleStringT@_W$0A@@ATL@@AAEXH@Z ; ATL::CSimpleStringT<wchar_t,0>::PrepareWrite2
	mov	edx, DWORD PTR [edi]
$LN5@GetBuffer:

; 508  : 		return( PrepareWrite( nMinBufferLength ) );

	pop	edi
	mov	eax, edx
	pop	esi

; 509  : 	}

	pop	ebp
	ret	4
$LN12@GetBuffer:

; 805  : 			AtlThrow(E_INVALIDARG);

	push	-2147024809				; 80070057H
	call	?AtlThrowImpl@ATL@@YGXJ@Z		; ATL::AtlThrowImpl
$LN10@GetBuffer:
	int	3
?GetBuffer@?$CSimpleStringT@_W$0A@@ATL@@QAEPA_WH@Z ENDP	; ATL::CSimpleStringT<wchar_t,0>::GetBuffer
_TEXT	ENDS
; Function compile flags: /Ogtp
; File C:\Program Files (x86)\Windows Kits\10\Include\10.0.18362.0\ucrt\corecrt_stdio_config.h
;	COMDAT ___local_stdio_printf_options
_TEXT	SEGMENT
___local_stdio_printf_options PROC			; COMDAT

; 87   :         static unsigned __int64 _OptionsStorage;
; 88   :         return &_OptionsStorage;

	mov	eax, OFFSET ?_OptionsStorage@?1??__local_stdio_printf_options@@9@4_KA ; `__local_stdio_printf_options'::`2'::_OptionsStorage

; 89   :     }

	ret	0
___local_stdio_printf_options ENDP
_TEXT	ENDS
; Function compile flags: /Ogtp
; File C:\Program Files (x86)\Microsoft Visual Studio\2019\Enterprise\VC\Tools\MSVC\14.23.28105\atlmfc\include\cstringt.h
;	COMDAT ?Format@?$ChTraitsCRT@_W@ATL@@SAHPA_WIPB_WPAD@Z
_TEXT	SEGMENT
_pszBuffer$ = 8						; size = 4
_nLength$ = 12						; size = 4
_pszFormat$ = 16					; size = 4
_args$ = 20						; size = 4
?Format@?$ChTraitsCRT@_W@ATL@@SAHPA_WIPB_WPAD@Z PROC	; ATL::ChTraitsCRT<wchar_t>::Format, COMDAT

; 724  : 	{

	push	ebp
	mov	ebp, esp
	and	esp, -8					; fffffff8H

; 725  : #if _MSC_VER < 1900
; 726  : 		return vswprintf_s(pszBuffer, nLength, pszFormat, args);
; 727  : #else
; 728  : 		// Explicitly request the legacy wide format specifiers mode from the CRT,
; 729  : 		// for compatibility with previous versions.  While the CRT supports two
; 730  : 		// modes, the ATL and MFC functions that accept format strings only support
; 731  : 		// legacy mode format strings.
; 732  : 		int const result = __stdio_common_vswprintf_s(

	push	DWORD PTR _args$[ebp]
	push	0
	push	DWORD PTR _pszFormat$[ebp]
	push	DWORD PTR _nLength$[ebp]
	push	DWORD PTR _pszBuffer$[ebp]
	call	___local_stdio_printf_options
	mov	ecx, DWORD PTR [eax]
	push	DWORD PTR [eax+4]
	or	ecx, 4
	push	ecx
	call	___stdio_common_vswprintf_s

; 733  : 			_CRT_INTERNAL_LOCAL_PRINTF_OPTIONS |
; 734  : 			_CRT_INTERNAL_PRINTF_LEGACY_WIDE_SPECIFIERS,
; 735  : 			pszBuffer, nLength, pszFormat, NULL, args);
; 736  : 
; 737  : 		return result < 0 ? -1 : result;

	or	ecx, -1
	add	esp, 28					; 0000001cH
	test	eax, eax
	cmovs	eax, ecx

; 738  : #endif
; 739  : 	}

	mov	esp, ebp
	pop	ebp
	ret	0
?Format@?$ChTraitsCRT@_W@ATL@@SAHPA_WIPB_WPAD@Z ENDP	; ATL::ChTraitsCRT<wchar_t>::Format
_TEXT	ENDS
; Function compile flags: /Ogtp
; File C:\Program Files (x86)\Microsoft Visual Studio\2019\Enterprise\VC\Tools\MSVC\14.23.28105\atlmfc\include\atlexcept.h
;	COMDAT ?AtlThrowImpl@ATL@@YGXJ@Z
_TEXT	SEGMENT
_hr$ = 8						; size = 4
?AtlThrowImpl@ATL@@YGXJ@Z PROC				; ATL::AtlThrowImpl, COMDAT

; 65   : {

	push	ebp
	mov	ebp, esp

; 66   : 	ATLTRACE(atlTraceException, 0, _T("AtlThrow: hr = 0x%x\n"), hr );
; 67   : #ifdef _AFX
; 68   : 	if( hr == E_OUTOFMEMORY )

	mov	eax, DWORD PTR _hr$[ebp]
	cmp	eax, -2147024882			; 8007000eH
	jne	SHORT $LN2@AtlThrowIm

; 69   : 	{
; 70   : 		AfxThrowMemoryException();

	call	?AfxThrowMemoryException@@YGXXZ		; AfxThrowMemoryException
$LN2@AtlThrowIm:

; 71   : 	}
; 72   : 	else
; 73   : 	{
; 74   : 		AfxThrowOleException( hr );

	push	eax
	call	?AfxThrowOleException@@YGXJ@Z		; AfxThrowOleException
$LN5@AtlThrowIm:
	int	3
?AtlThrowImpl@ATL@@YGXJ@Z ENDP				; ATL::AtlThrowImpl
_TEXT	ENDS
; Function compile flags: /Ogtp
; File C:\Program Files (x86)\Microsoft Visual Studio\2019\Enterprise\VC\Tools\MSVC\14.23.28105\atlmfc\include\atlsimpstr.h
;	COMDAT ?SetLength@?$CSimpleStringT@_W$0A@@ATL@@AAEXH@Z
_TEXT	SEGMENT
_nLength$ = 8						; size = 4
?SetLength@?$CSimpleStringT@_W$0A@@ATL@@AAEXH@Z PROC	; ATL::CSimpleStringT<wchar_t,0>::SetLength, COMDAT
; _this$ = ecx

; 867  : 	{

	push	ebp
	mov	ebp, esp

; 868  : 		ATLASSERT( nLength >= 0 );
; 869  : 		ATLASSERT( nLength <= GetData()->nAllocLength );
; 870  : 
; 871  : 		if( nLength < 0 || nLength > GetData()->nAllocLength)

	mov	edx, DWORD PTR _nLength$[ebp]
	test	edx, edx
	js	SHORT $LN3@SetLength
	mov	eax, DWORD PTR [ecx]
	cmp	edx, DWORD PTR [eax-8]
	jg	SHORT $LN3@SetLength

; 873  : 
; 874  : 		GetData()->nDataLength = nLength;

	mov	DWORD PTR [eax-12], edx

; 875  : 		m_pszData[nLength] = 0;

	mov	eax, DWORD PTR [ecx]
	xor	ecx, ecx
	mov	WORD PTR [eax+edx*2], cx

; 876  : 	}

	pop	ebp
	ret	4
$LN3@SetLength:

; 872  : 			AtlThrow(E_INVALIDARG);

	push	-2147024809				; 80070057H
	call	?AtlThrowImpl@ATL@@YGXJ@Z		; ATL::AtlThrowImpl
$LN9@SetLength:
	int	3
?SetLength@?$CSimpleStringT@_W$0A@@ATL@@AAEXH@Z ENDP	; ATL::CSimpleStringT<wchar_t,0>::SetLength
_TEXT	ENDS
; Function compile flags: /Ogtp
; File C:\Program Files (x86)\Microsoft Visual Studio\2019\Enterprise\VC\Tools\MSVC\14.23.28105\atlmfc\include\atlsimpstr.h
;	COMDAT ?ReleaseBufferSetLength@?$CSimpleStringT@_W$0A@@ATL@@QAEXH@Z
_TEXT	SEGMENT
_nNewLength$ = 8					; size = 4
?ReleaseBufferSetLength@?$CSimpleStringT@_W$0A@@ATL@@QAEXH@Z PROC ; ATL::CSimpleStringT<wchar_t,0>::ReleaseBufferSetLength, COMDAT
; _this$ = ecx

; 566  : 	{

	push	ebp
	mov	ebp, esp

; 871  : 		if( nLength < 0 || nLength > GetData()->nAllocLength)

	mov	edx, DWORD PTR _nNewLength$[ebp]
	test	edx, edx
	js	SHORT $LN5@ReleaseBuf
	mov	eax, DWORD PTR [ecx]
	cmp	edx, DWORD PTR [eax-8]
	jg	SHORT $LN5@ReleaseBuf

; 873  : 
; 874  : 		GetData()->nDataLength = nLength;

	mov	DWORD PTR [eax-12], edx

; 875  : 		m_pszData[nLength] = 0;

	mov	eax, DWORD PTR [ecx]
	xor	ecx, ecx
	mov	WORD PTR [eax+edx*2], cx

; 567  : 		ATLASSERT( nNewLength >= 0 );
; 568  : 		SetLength( nNewLength );
; 569  : 	}

	pop	ebp
	ret	4
$LN5@ReleaseBuf:

; 872  : 			AtlThrow(E_INVALIDARG);

	push	-2147024809				; 80070057H
	call	?AtlThrowImpl@ATL@@YGXJ@Z		; ATL::AtlThrowImpl
$LN12@ReleaseBuf:
	int	3
?ReleaseBufferSetLength@?$CSimpleStringT@_W$0A@@ATL@@QAEXH@Z ENDP ; ATL::CSimpleStringT<wchar_t,0>::ReleaseBufferSetLength
_TEXT	ENDS
; Function compile flags: /Ogtp
; File C:\Program Files (x86)\Microsoft Visual Studio\2019\Enterprise\VC\Tools\MSVC\14.23.28105\atlmfc\include\cstringt.h
; File C:\Program Files (x86)\Microsoft Visual Studio\2019\Enterprise\VC\Tools\MSVC\14.23.28105\atlmfc\include\atlsimpstr.h
; File C:\Program Files (x86)\Microsoft Visual Studio\2019\Enterprise\VC\Tools\MSVC\14.23.28105\atlmfc\include\cstringt.h
; File C:\Program Files (x86)\Microsoft Visual Studio\2019\Enterprise\VC\Tools\MSVC\14.23.28105\atlmfc\include\atlsimpstr.h
; File C:\Program Files (x86)\Microsoft Visual Studio\2019\Enterprise\VC\Tools\MSVC\14.23.28105\atlmfc\include\cstringt.h
; File C:\Program Files (x86)\Microsoft Visual Studio\2019\Enterprise\VC\Tools\MSVC\14.23.28105\atlmfc\include\atlsimpstr.h
; File C:\Program Files (x86)\Microsoft Visual Studio\2019\Enterprise\VC\Tools\MSVC\14.23.28105\atlmfc\include\cstringt.h
; File C:\Program Files (x86)\Microsoft Visual Studio\2019\Enterprise\VC\Tools\MSVC\14.23.28105\atlmfc\include\atlsimpstr.h
; File C:\Program Files (x86)\Microsoft Visual Studio\2019\Enterprise\VC\Tools\MSVC\14.23.28105\atlmfc\include\cstringt.h
; File C:\Program Files (x86)\Microsoft Visual Studio\2019\Enterprise\VC\Tools\MSVC\14.23.28105\atlmfc\include\atlsimpstr.h
; File C:\Program Files (x86)\Microsoft Visual Studio\2019\Enterprise\VC\Tools\MSVC\14.23.28105\atlmfc\include\cstringt.h
;	COMDAT ?FormatV@?$CStringT@_WV?$StrTraitMFC@_WV?$ChTraitsCRT@_W@ATL@@@@@ATL@@QAEXPB_WPAD@Z
_TEXT	SEGMENT
_pszFormat$ = 8						; size = 4
_args$ = 12						; size = 4
?FormatV@?$CStringT@_WV?$StrTraitMFC@_WV?$ChTraitsCRT@_W@ATL@@@@@ATL@@QAEXPB_WPAD@Z PROC ; ATL::CStringT<wchar_t,StrTraitMFC<wchar_t,ATL::ChTraitsCRT<wchar_t> > >::FormatV, COMDAT
; _this$ = ecx

; 2216 : 	{

	push	ebp
	mov	ebp, esp
	push	ecx
	push	ebx

; 2217 : 		ATLASSERT( AtlIsValidString( pszFormat ) );
; 2218 : 		if(pszFormat == NULL)

	mov	ebx, DWORD PTR _pszFormat$[ebp]
	push	esi
	push	edi
	mov	edi, ecx
	test	ebx, ebx
	je	SHORT $LN23@FormatV

; 2219 : 			AtlThrow(E_INVALIDARG);
; 2220 : 
; 2221 : 		int nLength = StringTraits::GetFormattedLength( pszFormat, args );

	push	DWORD PTR _args$[ebp]
	push	ebx
	call	?GetFormattedLength@?$ChTraitsCRT@_W@ATL@@SAHPB_WPAD@Z ; ATL::ChTraitsCRT<wchar_t>::GetFormattedLength
	mov	esi, eax
	add	esp, 8

; 2222 : 
; 2223 : 		if (nLength < 0)

	test	esi, esi
	js	SHORT $LN32@FormatV
; File C:\Program Files (x86)\Microsoft Visual Studio\2019\Enterprise\VC\Tools\MSVC\14.23.28105\atlmfc\include\atlsimpstr.h

; 800  : 		return( reinterpret_cast< CStringData* >( m_pszData )-1 );

	mov	edx, DWORD PTR [edi]

; 808  : 		int nShared = 1-pOldData->nRefs;  // nShared < 0 means true, >= 0 means false

	mov	ecx, 1

; 809  : 		int nTooShort = pOldData->nAllocLength-nLength;  // nTooShort < 0 means true, >= 0 means false

	mov	eax, DWORD PTR [edx-8]
	sub	ecx, DWORD PTR [edx-4]
	sub	eax, esi

; 810  : 		if( (nShared|nTooShort) < 0 )  // If either sign bit is set (i.e. either is less than zero), we need to copy data

	or	ecx, eax
	jge	SHORT $LN11@FormatV

; 811  : 		{
; 812  : 			PrepareWrite2( nLength );

	push	esi
	mov	ecx, edi
	call	?PrepareWrite2@?$CSimpleStringT@_W$0A@@ATL@@AAEXH@Z ; ATL::CSimpleStringT<wchar_t,0>::PrepareWrite2
	mov	edx, DWORD PTR [edi]
$LN11@FormatV:
; File C:\Program Files (x86)\Microsoft Visual Studio\2019\Enterprise\VC\Tools\MSVC\14.23.28105\atlmfc\include\cstringt.h

; 2227 : 		StringTraits::Format( pszBuffer, nLength+1, pszFormat, args );

	push	DWORD PTR _args$[ebp]
	lea	eax, DWORD PTR [esi+1]
	push	ebx
	push	eax
	push	edx
	call	?Format@?$ChTraitsCRT@_W@ATL@@SAHPA_WIPB_WPAD@Z ; ATL::ChTraitsCRT<wchar_t>::Format
; File C:\Program Files (x86)\Microsoft Visual Studio\2019\Enterprise\VC\Tools\MSVC\14.23.28105\atlmfc\include\atlsimpstr.h

; 871  : 		if( nLength < 0 || nLength > GetData()->nAllocLength)

	mov	eax, DWORD PTR [edi]
; File C:\Program Files (x86)\Microsoft Visual Studio\2019\Enterprise\VC\Tools\MSVC\14.23.28105\atlmfc\include\cstringt.h

; 2227 : 		StringTraits::Format( pszBuffer, nLength+1, pszFormat, args );

	add	esp, 16					; 00000010H
; File C:\Program Files (x86)\Microsoft Visual Studio\2019\Enterprise\VC\Tools\MSVC\14.23.28105\atlmfc\include\atlsimpstr.h

; 871  : 		if( nLength < 0 || nLength > GetData()->nAllocLength)

	cmp	esi, DWORD PTR [eax-8]
	jg	SHORT $LN23@FormatV

; 873  : 
; 874  : 		GetData()->nDataLength = nLength;

	mov	DWORD PTR [eax-12], esi

; 875  : 		m_pszData[nLength] = 0;

	xor	ecx, ecx
	mov	eax, DWORD PTR [edi]
; File C:\Program Files (x86)\Microsoft Visual Studio\2019\Enterprise\VC\Tools\MSVC\14.23.28105\atlmfc\include\cstringt.h

; 2229 : 	}

	pop	edi
; File C:\Program Files (x86)\Microsoft Visual Studio\2019\Enterprise\VC\Tools\MSVC\14.23.28105\atlmfc\include\atlsimpstr.h

; 875  : 		m_pszData[nLength] = 0;

	mov	WORD PTR [eax+esi*2], cx
; File C:\Program Files (x86)\Microsoft Visual Studio\2019\Enterprise\VC\Tools\MSVC\14.23.28105\atlmfc\include\cstringt.h

; 2229 : 	}

	pop	esi
	pop	ebx
	pop	ecx
	pop	ebp
	ret	8
$LN23@FormatV:
; File C:\Program Files (x86)\Microsoft Visual Studio\2019\Enterprise\VC\Tools\MSVC\14.23.28105\atlmfc\include\atlsimpstr.h

; 872  : 			AtlThrow(E_INVALIDARG);

	push	-2147024809				; 80070057H
	call	?AtlThrowImpl@ATL@@YGXJ@Z		; ATL::AtlThrowImpl
$LN32@FormatV:
; File C:\Program Files (x86)\Microsoft Visual Studio\2019\Enterprise\VC\Tools\MSVC\14.23.28105\atlmfc\include\cstringt.h

; 2224 : 			AtlThrow(E_FAIL);

	push	-2147467259				; 80004005H
	call	?AtlThrowImpl@ATL@@YGXJ@Z		; ATL::AtlThrowImpl
$LN30@FormatV:
	int	3
?FormatV@?$CStringT@_WV?$StrTraitMFC@_WV?$ChTraitsCRT@_W@ATL@@@@@ATL@@QAEXPB_WPAD@Z ENDP ; ATL::CStringT<wchar_t,StrTraitMFC<wchar_t,ATL::ChTraitsCRT<wchar_t> > >::FormatV
_TEXT	ENDS
; Function compile flags: /Ogtp
; File C:\Program Files (x86)\Microsoft Visual Studio\2019\Enterprise\VC\Tools\MSVC\14.23.28105\atlmfc\include\cstringt.h
; File C:\Program Files (x86)\Microsoft Visual Studio\2019\Enterprise\VC\Tools\MSVC\14.23.28105\atlmfc\include\atlsimpstr.h
; File C:\Program Files (x86)\Microsoft Visual Studio\2019\Enterprise\VC\Tools\MSVC\14.23.28105\atlmfc\include\cstringt.h
; File C:\Program Files (x86)\Microsoft Visual Studio\2019\Enterprise\VC\Tools\MSVC\14.23.28105\atlmfc\include\atlsimpstr.h
; File C:\Program Files (x86)\Microsoft Visual Studio\2019\Enterprise\VC\Tools\MSVC\14.23.28105\atlmfc\include\cstringt.h
; File C:\Program Files (x86)\Microsoft Visual Studio\2019\Enterprise\VC\Tools\MSVC\14.23.28105\atlmfc\include\atlsimpstr.h
; File C:\Program Files (x86)\Microsoft Visual Studio\2019\Enterprise\VC\Tools\MSVC\14.23.28105\atlmfc\include\cstringt.h
; File C:\Program Files (x86)\Microsoft Visual Studio\2019\Enterprise\VC\Tools\MSVC\14.23.28105\atlmfc\include\atlsimpstr.h
; File C:\Program Files (x86)\Microsoft Visual Studio\2019\Enterprise\VC\Tools\MSVC\14.23.28105\atlmfc\include\cstringt.h
; File C:\Program Files (x86)\Microsoft Visual Studio\2019\Enterprise\VC\Tools\MSVC\14.23.28105\atlmfc\include\atlsimpstr.h
; File C:\Program Files (x86)\Microsoft Visual Studio\2019\Enterprise\VC\Tools\MSVC\14.23.28105\atlmfc\include\cstringt.h
;	COMDAT ?Format@?$CStringT@_WV?$StrTraitMFC@_WV?$ChTraitsCRT@_W@ATL@@@@@ATL@@QAAXPB_WZZ
_TEXT	SEGMENT
_this$ = 8						; size = 4
_pszFormat$ = 12					; size = 4
?Format@?$CStringT@_WV?$StrTraitMFC@_WV?$ChTraitsCRT@_W@ATL@@@@@ATL@@QAAXPB_WZZ PROC ; ATL::CStringT<wchar_t,StrTraitMFC<wchar_t,ATL::ChTraitsCRT<wchar_t> > >::Format, COMDAT

; 2701 : {

	push	ebp
	mov	ebp, esp
	push	ecx
	push	ebx

; 2702 : 	ATLASSERT( AtlIsValidString( pszFormat ) );
; 2703 : 
; 2704 : 	va_list argList;
; 2705 : 	va_start( argList, pszFormat );
; 2706 : 	FormatV( pszFormat, argList );

	mov	ebx, DWORD PTR _pszFormat$[ebp]
	push	esi
	push	edi
	mov	edi, DWORD PTR _this$[ebp]
	test	ebx, ebx

; 2218 : 		if(pszFormat == NULL)

	je	SHORT $LN25@Format

; 2219 : 			AtlThrow(E_INVALIDARG);
; 2220 : 
; 2221 : 		int nLength = StringTraits::GetFormattedLength( pszFormat, args );

	lea	eax, DWORD PTR _pszFormat$[ebp+4]
	push	eax
	push	ebx
	call	?GetFormattedLength@?$ChTraitsCRT@_W@ATL@@SAHPB_WPAD@Z ; ATL::ChTraitsCRT<wchar_t>::GetFormattedLength
	mov	esi, eax
	add	esp, 8

; 2222 : 
; 2223 : 		if (nLength < 0)

	test	esi, esi
	js	SHORT $LN35@Format
; File C:\Program Files (x86)\Microsoft Visual Studio\2019\Enterprise\VC\Tools\MSVC\14.23.28105\atlmfc\include\atlsimpstr.h

; 800  : 		return( reinterpret_cast< CStringData* >( m_pszData )-1 );

	mov	edx, DWORD PTR [edi]

; 808  : 		int nShared = 1-pOldData->nRefs;  // nShared < 0 means true, >= 0 means false

	mov	ecx, 1

; 809  : 		int nTooShort = pOldData->nAllocLength-nLength;  // nTooShort < 0 means true, >= 0 means false

	mov	eax, DWORD PTR [edx-8]
	sub	ecx, DWORD PTR [edx-4]
	sub	eax, esi

; 810  : 		if( (nShared|nTooShort) < 0 )  // If either sign bit is set (i.e. either is less than zero), we need to copy data

	or	ecx, eax
	jge	SHORT $LN13@Format

; 811  : 		{
; 812  : 			PrepareWrite2( nLength );

	push	esi
	mov	ecx, edi
	call	?PrepareWrite2@?$CSimpleStringT@_W$0A@@ATL@@AAEXH@Z ; ATL::CSimpleStringT<wchar_t,0>::PrepareWrite2
	mov	edx, DWORD PTR [edi]
$LN13@Format:
; File C:\Program Files (x86)\Microsoft Visual Studio\2019\Enterprise\VC\Tools\MSVC\14.23.28105\atlmfc\include\cstringt.h

; 2227 : 		StringTraits::Format( pszBuffer, nLength+1, pszFormat, args );

	lea	eax, DWORD PTR _pszFormat$[ebp+4]
	push	eax
	push	ebx
	lea	eax, DWORD PTR [esi+1]
	push	eax
	push	edx
	call	?Format@?$ChTraitsCRT@_W@ATL@@SAHPA_WIPB_WPAD@Z ; ATL::ChTraitsCRT<wchar_t>::Format
; File C:\Program Files (x86)\Microsoft Visual Studio\2019\Enterprise\VC\Tools\MSVC\14.23.28105\atlmfc\include\atlsimpstr.h

; 871  : 		if( nLength < 0 || nLength > GetData()->nAllocLength)

	mov	eax, DWORD PTR [edi]
; File C:\Program Files (x86)\Microsoft Visual Studio\2019\Enterprise\VC\Tools\MSVC\14.23.28105\atlmfc\include\cstringt.h

; 2227 : 		StringTraits::Format( pszBuffer, nLength+1, pszFormat, args );

	add	esp, 16					; 00000010H
; File C:\Program Files (x86)\Microsoft Visual Studio\2019\Enterprise\VC\Tools\MSVC\14.23.28105\atlmfc\include\atlsimpstr.h

; 871  : 		if( nLength < 0 || nLength > GetData()->nAllocLength)

	cmp	esi, DWORD PTR [eax-8]
	jg	SHORT $LN25@Format

; 873  : 
; 874  : 		GetData()->nDataLength = nLength;

	mov	DWORD PTR [eax-12], esi

; 875  : 		m_pszData[nLength] = 0;

	xor	ecx, ecx
	mov	eax, DWORD PTR [edi]
; File C:\Program Files (x86)\Microsoft Visual Studio\2019\Enterprise\VC\Tools\MSVC\14.23.28105\atlmfc\include\cstringt.h

; 2708 : }

	pop	edi
; File C:\Program Files (x86)\Microsoft Visual Studio\2019\Enterprise\VC\Tools\MSVC\14.23.28105\atlmfc\include\atlsimpstr.h

; 875  : 		m_pszData[nLength] = 0;

	mov	WORD PTR [eax+esi*2], cx
; File C:\Program Files (x86)\Microsoft Visual Studio\2019\Enterprise\VC\Tools\MSVC\14.23.28105\atlmfc\include\cstringt.h

; 2708 : }

	pop	esi
	pop	ebx
	pop	ecx
	pop	ebp
	ret	0
$LN25@Format:
; File C:\Program Files (x86)\Microsoft Visual Studio\2019\Enterprise\VC\Tools\MSVC\14.23.28105\atlmfc\include\atlsimpstr.h

; 872  : 			AtlThrow(E_INVALIDARG);

	push	-2147024809				; 80070057H
	call	?AtlThrowImpl@ATL@@YGXJ@Z		; ATL::AtlThrowImpl
$LN35@Format:
; File C:\Program Files (x86)\Microsoft Visual Studio\2019\Enterprise\VC\Tools\MSVC\14.23.28105\atlmfc\include\cstringt.h

; 2224 : 			AtlThrow(E_FAIL);

	push	-2147467259				; 80004005H
	call	?AtlThrowImpl@ATL@@YGXJ@Z		; ATL::AtlThrowImpl
$LN33@Format:
	int	3
?Format@?$CStringT@_WV?$StrTraitMFC@_WV?$ChTraitsCRT@_W@ATL@@@@@ATL@@QAAXPB_WZZ ENDP ; ATL::CStringT<wchar_t,StrTraitMFC<wchar_t,ATL::ChTraitsCRT<wchar_t> > >::Format
_TEXT	ENDS
; Function compile flags: /Ogtp
; File C:\Program Files (x86)\Microsoft Visual Studio\2019\Enterprise\VC\Tools\MSVC\14.23.28105\atlmfc\include\atlsimpstr.h
;	COMDAT ??B?$CSimpleStringT@_W$0A@@ATL@@QBEPB_WXZ
_TEXT	SEGMENT
??B?$CSimpleStringT@_W$0A@@ATL@@QBEPB_WXZ PROC		; ATL::CSimpleStringT<wchar_t,0>::operator wchar_t const *, COMDAT
; _this$ = ecx

; 377  : 		return( m_pszData );

	mov	eax, DWORD PTR [ecx]

; 378  : 	}

	ret	0
??B?$CSimpleStringT@_W$0A@@ATL@@QBEPB_WXZ ENDP		; ATL::CSimpleStringT<wchar_t,0>::operator wchar_t const *
_TEXT	ENDS
; Function compile flags: /Ogtp
; File C:\Program Files (x86)\Microsoft Visual Studio\2019\Enterprise\VC\Tools\MSVC\14.23.28105\atlmfc\include\afx.inl
;	COMDAT ??1CObject@@UAE@XZ
_TEXT	SEGMENT
??1CObject@@UAE@XZ PROC					; CObject::~CObject, COMDAT
; _this$ = ecx

; 94   : 	{ }

	ret	0
??1CObject@@UAE@XZ ENDP					; CObject::~CObject
_TEXT	ENDS
; Function compile flags: /Ogtp
; File C:\Program Files (x86)\Microsoft Visual Studio\2019\Enterprise\VC\Tools\MSVC\14.23.28105\atlmfc\include\afxwin1.inl
; File C:\Program Files (x86)\Microsoft Visual Studio\2019\Enterprise\VC\Tools\MSVC\14.23.28105\atlmfc\include\afxstr.h
; File C:\Program Files (x86)\Microsoft Visual Studio\2019\Enterprise\VC\Tools\MSVC\14.23.28105\atlmfc\include\atlsimpstr.h
; File C:\Program Files (x86)\Microsoft Visual Studio\2019\Enterprise\VC\Tools\MSVC\14.23.28105\atlmfc\include\cstringt.h
; File C:\Program Files (x86)\Microsoft Visual Studio\2019\Enterprise\VC\Tools\MSVC\14.23.28105\atlmfc\include\atlsimpstr.h
; File C:\Program Files (x86)\Microsoft Visual Studio\2019\Enterprise\VC\Tools\MSVC\14.23.28105\atlmfc\include\afxwin1.inl
; File C:\Program Files (x86)\Microsoft Visual Studio\2019\Enterprise\VC\Tools\MSVC\14.23.28105\atlmfc\include\atlsimpstr.h
; File C:\Program Files (x86)\Microsoft Visual Studio\2019\Enterprise\VC\Tools\MSVC\14.23.28105\atlmfc\include\afxwin1.inl
; File C:\Program Files (x86)\Microsoft Visual Studio\2019\Enterprise\VC\Tools\MSVC\14.23.28105\atlmfc\include\atlsimpstr.h
; File C:\Program Files (x86)\Microsoft Visual Studio\2019\Enterprise\VC\Tools\MSVC\14.23.28105\atlmfc\include\afxwin1.inl
;	COMDAT ??1CGdiObject@@UAE@XZ
_TEXT	SEGMENT
_pException$4 = -1052					; size = 4
_strMsg$5 = -1048					; size = 4
_szErrorMessage$6 = -1044				; size = 1024
__$ArrayPad$ = -20					; size = 4
__$EHRec$ = -16						; size = 16
??1CGdiObject@@UAE@XZ PROC				; CGdiObject::~CGdiObject, COMDAT
; _this$ = ecx

; 74   : {

	push	ebp
	mov	ebp, esp
	push	-1
	push	__ehhandler$??1CGdiObject@@UAE@XZ
	mov	eax, DWORD PTR fs:0
	push	eax
	sub	esp, 1040				; 00000410H
	mov	eax, DWORD PTR ___security_cookie
	xor	eax, ebp
	mov	DWORD PTR __$ArrayPad$[ebp], eax
	push	ebx
	push	esi
	push	edi
	push	eax
	lea	eax, DWORD PTR __$EHRec$[ebp+4]
	mov	DWORD PTR fs:0, eax
	mov	DWORD PTR __$EHRec$[ebp], esp
	mov	DWORD PTR [ecx], OFFSET ??_7CGdiObject@@6B@

; 75   : 	AFX_BEGIN_DESTRUCTOR

	mov	DWORD PTR __$EHRec$[ebp+12], 0

; 76   : 	DeleteObject();

	call	?DeleteObject@CGdiObject@@QAEHXZ	; CGdiObject::DeleteObject
$LN18@CGdiObject:

; 78   : }

	mov	ecx, DWORD PTR __$EHRec$[ebp+4]
	mov	DWORD PTR fs:0, ecx
	pop	ecx
	pop	edi
	pop	esi
	pop	ebx
	mov	ecx, DWORD PTR __$ArrayPad$[ebp]
	xor	ecx, ebp
	call	@__security_check_cookie@4
	mov	esp, ebp
	pop	ebp
	ret	0
__catch$??1CGdiObject@@UAE@XZ$0:
; File C:\Program Files (x86)\Microsoft Visual Studio\2019\Enterprise\VC\Tools\MSVC\14.23.28105\atlmfc\include\afxstr.h

; 52   : 		return( AfxGetStringManager() );

	call	?AfxGetStringManager@@YGPAUIAtlStringMgr@ATL@@XZ ; AfxGetStringManager
; File C:\Program Files (x86)\Microsoft Visual Studio\2019\Enterprise\VC\Tools\MSVC\14.23.28105\atlmfc\include\atlsimpstr.h

; 205  : 		ATLENSURE( pStringMgr != NULL );

	xor	ecx, ecx
; File C:\Program Files (x86)\Microsoft Visual Studio\2019\Enterprise\VC\Tools\MSVC\14.23.28105\atlmfc\include\cstringt.h

; 1006 : 		CThisSimpleString( StringTraits::GetDefaultManager() )

	mov	edx, eax
; File C:\Program Files (x86)\Microsoft Visual Studio\2019\Enterprise\VC\Tools\MSVC\14.23.28105\atlmfc\include\atlsimpstr.h

; 205  : 		ATLENSURE( pStringMgr != NULL );

	test	edx, edx
	setne	cl
	test	ecx, ecx
	je	$LN54@CGdiObject

; 206  : 		CStringData* pData = pStringMgr->GetNilString();

	mov	eax, DWORD PTR [edx]
	mov	ecx, edx
	call	DWORD PTR [eax+12]

; 59   : 		return (this+1);

	add	eax, 16					; 00000010H

; 780  : 		m_pszData = static_cast< PXSTR >( pData->data() );

	mov	DWORD PTR _strMsg$5[ebp], eax
; File C:\Program Files (x86)\Microsoft Visual Studio\2019\Enterprise\VC\Tools\MSVC\14.23.28105\atlmfc\include\afxwin1.inl

; 77   : 	AFX_END_DESTRUCTOR

	mov	BYTE PTR __$EHRec$[ebp+12], 2
	lea	ecx, DWORD PTR _szErrorMessage$6[ebp]
	mov	edi, DWORD PTR _pException$4[ebp]
	push	0
	push	512					; 00000200H
	push	ecx
	mov	eax, DWORD PTR [edi]
	mov	ecx, edi
	call	DWORD PTR [eax+12]
	test	eax, eax
	je	SHORT $LN9@CGdiObject
	lea	eax, DWORD PTR _szErrorMessage$6[ebp]
	push	eax
	push	77					; 0000004dH
	push	OFFSET ??_C@_1OI@KCHDAIJP@?$AAC?$AA?3?$AA?2?$AAP?$AAr?$AAo?$AAg?$AAr?$AAa?$AAm?$AA?5?$AAF?$AAi?$AAl?$AAe@
	push	OFFSET ??_C@_1DO@DFDGGJKE@?$AAE?$AAx?$AAc?$AAe?$AAp?$AAt?$AAi?$AAo?$AAn?$AA?5?$AAt?$AAh?$AAr?$AAo?$AAw@
	lea	eax, DWORD PTR _strMsg$5[ebp]
	push	OFFSET ??_C@_1CC@GGIAOFGJ@?$AA?$CF?$AAT?$AAs?$AA?5?$AA?$CI?$AA?$CF?$AAT?$AAs?$AA?3?$AA?$CF?$AAd?$AA?$CJ?$AA?6?$AA?$CF?$AAT@
	push	eax
	call	?Format@?$CStringT@_WV?$StrTraitMFC@_WV?$ChTraitsCRT@_W@ATL@@@@@ATL@@QAAXPB_WZZ ; ATL::CStringT<wchar_t,StrTraitMFC<wchar_t,ATL::ChTraitsCRT<wchar_t> > >::Format
	add	esp, 24					; 00000018H
	jmp	SHORT $LN10@CGdiObject
$LN9@CGdiObject:
	push	77					; 0000004dH
	push	OFFSET ??_C@_1OI@KCHDAIJP@?$AAC?$AA?3?$AA?2?$AAP?$AAr?$AAo?$AAg?$AAr?$AAa?$AAm?$AA?5?$AAF?$AAi?$AAl?$AAe@
	push	OFFSET ??_C@_1DO@DFDGGJKE@?$AAE?$AAx?$AAc?$AAe?$AAp?$AAt?$AAi?$AAo?$AAn?$AA?5?$AAt?$AAh?$AAr?$AAo?$AAw@
	lea	eax, DWORD PTR _strMsg$5[ebp]
	push	OFFSET ??_C@_1BK@CAEGKIAC@?$AA?$CF?$AAT?$AAs?$AA?5?$AA?$CI?$AA?$CF?$AAT?$AAs?$AA?3?$AA?$CF?$AAd?$AA?$CJ@
	push	eax
	call	?Format@?$CStringT@_WV?$StrTraitMFC@_WV?$ChTraitsCRT@_W@ATL@@@@@ATL@@QAAXPB_WZZ ; ATL::CStringT<wchar_t,StrTraitMFC<wchar_t,ATL::ChTraitsCRT<wchar_t> > >::Format
	add	esp, 20					; 00000014H
$LN10@CGdiObject:
	mov	esi, DWORD PTR _strMsg$5[ebp]
	push	0
	push	0
	push	esi
	call	?AfxMessageBox@@YGHPB_WII@Z		; AfxMessageBox
	mov	BYTE PTR __$EHRec$[ebp+12], 1
; File C:\Program Files (x86)\Microsoft Visual Studio\2019\Enterprise\VC\Tools\MSVC\14.23.28105\atlmfc\include\atlsimpstr.h

; 800  : 		return( reinterpret_cast< CStringData* >( m_pszData )-1 );

	add	esi, -16				; fffffff0H

; 88   : 		if( _InterlockedDecrement( &nRefs ) <= 0 )

	or	eax, -1
	lock	 xadd	 DWORD PTR [esi+12], eax
	dec	eax
	test	eax, eax
	jg	SHORT $LN5@CGdiObject

; 89   : 		{
; 90   : 			pStringMgr->Free( this );

	mov	ecx, DWORD PTR [esi]
	push	esi
	mov	eax, DWORD PTR [ecx]
	call	DWORD PTR [eax+4]
$LN5@CGdiObject:
; File C:\Program Files (x86)\Microsoft Visual Studio\2019\Enterprise\VC\Tools\MSVC\14.23.28105\atlmfc\include\afxwin1.inl

; 77   : 	AFX_END_DESTRUCTOR

	mov	eax, DWORD PTR [edi]
	mov	ecx, edi
	push	1
	call	DWORD PTR [eax+4]
	mov	eax, $LN18@CGdiObject
	ret	0
$LN54@CGdiObject:
; File C:\Program Files (x86)\Microsoft Visual Studio\2019\Enterprise\VC\Tools\MSVC\14.23.28105\atlmfc\include\atlsimpstr.h

; 205  : 		ATLENSURE( pStringMgr != NULL );

	push	-2147467259				; 80004005H
	call	?AtlThrowImpl@ATL@@YGXJ@Z		; ATL::AtlThrowImpl
$LN52@CGdiObject:
	int	3
_TEXT	ENDS
;	COMDAT text$x
text$x	SEGMENT
__unwindfunclet$??1CGdiObject@@UAE@XZ$2:
	lea	ecx, DWORD PTR _strMsg$5[ebp]
	jmp	??1?$CStringT@_WV?$StrTraitMFC@_WV?$ChTraitsCRT@_W@ATL@@@@@ATL@@QAE@XZ ; ATL::CStringT<wchar_t,StrTraitMFC<wchar_t,ATL::ChTraitsCRT<wchar_t> > >::~CStringT<wchar_t,StrTraitMFC<wchar_t,ATL::ChTraitsCRT<wchar_t> > >
__ehhandler$??1CGdiObject@@UAE@XZ:
	mov	edx, DWORD PTR [esp+8]
	lea	eax, DWORD PTR [edx+12]
	mov	ecx, DWORD PTR [edx-1056]
	xor	ecx, eax
	call	@__security_check_cookie@4
	mov	ecx, DWORD PTR [edx-8]
	xor	ecx, eax
	call	@__security_check_cookie@4
	mov	eax, OFFSET __ehfuncinfo$??1CGdiObject@@UAE@XZ
	jmp	___CxxFrameHandler3
text$x	ENDS
??1CGdiObject@@UAE@XZ ENDP				; CGdiObject::~CGdiObject
; Function compile flags: /Ogtp
; File C:\Program Files (x86)\Microsoft Visual Studio\2019\Enterprise\VC\Tools\MSVC\14.23.28105\atlmfc\include\afxwin1.inl
;	COMDAT ??1CBrush@@UAE@XZ
_TEXT	SEGMENT
??1CBrush@@UAE@XZ PROC					; CBrush::~CBrush, COMDAT
; _this$ = ecx

; 130  : 	{ }

	mov	DWORD PTR [ecx], OFFSET ??_7CBrush@@6B@
	jmp	??1CGdiObject@@UAE@XZ			; CGdiObject::~CGdiObject
??1CBrush@@UAE@XZ ENDP					; CBrush::~CBrush
_TEXT	ENDS
; Function compile flags: /Ogtp
; File C:\Program Files (x86)\Microsoft Visual Studio\2019\Enterprise\VC\Tools\MSVC\14.23.28105\atlmfc\include\atlsimpstr.h
;	COMDAT ?GetData@?$CSimpleStringT@_W$0A@@ATL@@ABEPAUCStringData@2@XZ
_TEXT	SEGMENT
?GetData@?$CSimpleStringT@_W$0A@@ATL@@ABEPAUCStringData@2@XZ PROC ; ATL::CSimpleStringT<wchar_t,0>::GetData, COMDAT
; _this$ = ecx

; 800  : 		return( reinterpret_cast< CStringData* >( m_pszData )-1 );

	mov	eax, DWORD PTR [ecx]
	sub	eax, 16					; 00000010H

; 801  : 	}

	ret	0
?GetData@?$CSimpleStringT@_W$0A@@ATL@@ABEPAUCStringData@2@XZ ENDP ; ATL::CSimpleStringT<wchar_t,0>::GetData
_TEXT	ENDS
; Function compile flags: /Ogtp
; File C:\Program Files (x86)\Microsoft Visual Studio\2019\Enterprise\VC\Tools\MSVC\14.23.28105\atlmfc\include\atlsimpstr.h
;	COMDAT ?Release@CStringData@ATL@@QAEXXZ
_TEXT	SEGMENT
?Release@CStringData@ATL@@QAEXXZ PROC			; ATL::CStringData::Release, COMDAT
; _this$ = ecx

; 85   : 	{

	mov	edx, ecx

; 86   : 		ATLASSERT( nRefs != 0 );
; 87   : 
; 88   : 		if( _InterlockedDecrement( &nRefs ) <= 0 )

	or	eax, -1
	lock	 xadd	 DWORD PTR [edx+12], eax
	dec	eax
	test	eax, eax
	jg	SHORT $LN2@Release

; 89   : 		{
; 90   : 			pStringMgr->Free( this );

	mov	ecx, DWORD PTR [edx]
	push	edx
	mov	eax, DWORD PTR [ecx]
	call	DWORD PTR [eax+4]
$LN2@Release:

; 91   : 		}
; 92   : 	}

	ret	0
?Release@CStringData@ATL@@QAEXXZ ENDP			; ATL::CStringData::Release
_TEXT	ENDS
; Function compile flags: /Ogtp
; File C:\Program Files (x86)\Microsoft Visual Studio\2019\Enterprise\VC\Tools\MSVC\14.23.28105\atlmfc\include\atlsimpstr.h
;	COMDAT ??1?$CSimpleStringT@_W$0A@@ATL@@QAE@XZ
_TEXT	SEGMENT
??1?$CSimpleStringT@_W$0A@@ATL@@QAE@XZ PROC		; ATL::CSimpleStringT<wchar_t,0>::~CSimpleStringT<wchar_t,0>, COMDAT
; _this$ = ecx

; 800  : 		return( reinterpret_cast< CStringData* >( m_pszData )-1 );

	mov	edx, DWORD PTR [ecx]

; 88   : 		if( _InterlockedDecrement( &nRefs ) <= 0 )

	or	eax, -1

; 800  : 		return( reinterpret_cast< CStringData* >( m_pszData )-1 );

	sub	edx, 16					; 00000010H

; 88   : 		if( _InterlockedDecrement( &nRefs ) <= 0 )

	lock	 xadd	 DWORD PTR [edx+12], eax
	dec	eax
	test	eax, eax
	jg	SHORT $LN6@CSimpleStr

; 89   : 		{
; 90   : 			pStringMgr->Free( this );

	mov	ecx, DWORD PTR [edx]
	push	edx
	mov	eax, DWORD PTR [ecx]
	call	DWORD PTR [eax+4]
$LN6@CSimpleStr:

; 261  : 		CStringData* pData = GetData();
; 262  : 		pData->Release();
; 263  : 	}

	ret	0
??1?$CSimpleStringT@_W$0A@@ATL@@QAE@XZ ENDP		; ATL::CSimpleStringT<wchar_t,0>::~CSimpleStringT<wchar_t,0>
_TEXT	ENDS
; Function compile flags: /Ogtp
; File C:\Program Files (x86)\Microsoft Visual Studio\2019\Enterprise\VC\Tools\MSVC\14.23.28105\atlmfc\include\cstringt.h
; File C:\Program Files (x86)\Microsoft Visual Studio\2019\Enterprise\VC\Tools\MSVC\14.23.28105\atlmfc\include\atlsimpstr.h
; File C:\Program Files (x86)\Microsoft Visual Studio\2019\Enterprise\VC\Tools\MSVC\14.23.28105\atlmfc\include\cstringt.h
;	COMDAT ??1?$CStringT@_WV?$StrTraitMFC@_WV?$ChTraitsCRT@_W@ATL@@@@@ATL@@QAE@XZ
_TEXT	SEGMENT
??1?$CStringT@_WV?$StrTraitMFC@_WV?$ChTraitsCRT@_W@ATL@@@@@ATL@@QAE@XZ PROC ; ATL::CStringT<wchar_t,StrTraitMFC<wchar_t,ATL::ChTraitsCRT<wchar_t> > >::~CStringT<wchar_t,StrTraitMFC<wchar_t,ATL::ChTraitsCRT<wchar_t> > >, COMDAT
; _this$ = ecx
; File C:\Program Files (x86)\Microsoft Visual Studio\2019\Enterprise\VC\Tools\MSVC\14.23.28105\atlmfc\include\atlsimpstr.h

; 800  : 		return( reinterpret_cast< CStringData* >( m_pszData )-1 );

	mov	edx, DWORD PTR [ecx]

; 88   : 		if( _InterlockedDecrement( &nRefs ) <= 0 )

	or	eax, -1

; 800  : 		return( reinterpret_cast< CStringData* >( m_pszData )-1 );

	sub	edx, 16					; 00000010H

; 88   : 		if( _InterlockedDecrement( &nRefs ) <= 0 )

	lock	 xadd	 DWORD PTR [edx+12], eax
	dec	eax
	test	eax, eax
	jg	SHORT $LN8@CStringT

; 89   : 		{
; 90   : 			pStringMgr->Free( this );

	mov	ecx, DWORD PTR [edx]
	push	edx
	mov	eax, DWORD PTR [ecx]
	call	DWORD PTR [eax+4]
$LN8@CStringT:
; File C:\Program Files (x86)\Microsoft Visual Studio\2019\Enterprise\VC\Tools\MSVC\14.23.28105\atlmfc\include\cstringt.h

; 1295 : 	}

	ret	0
??1?$CStringT@_WV?$StrTraitMFC@_WV?$ChTraitsCRT@_W@ATL@@@@@ATL@@QAE@XZ ENDP ; ATL::CStringT<wchar_t,StrTraitMFC<wchar_t,ATL::ChTraitsCRT<wchar_t> > >::~CStringT<wchar_t,StrTraitMFC<wchar_t,ATL::ChTraitsCRT<wchar_t> > >
_TEXT	ENDS
; Function compile flags: /Ogtp
; File C:\Program Files (x86)\Microsoft Visual Studio\2019\Enterprise\VC\Tools\MSVC\14.23.28105\atlmfc\include\afx.inl
;	COMDAT ??2CObject@@SGPAXI@Z
_TEXT	SEGMENT
_nSize$ = 8						; size = 4
??2CObject@@SGPAXI@Z PROC				; CObject::operator new, COMDAT

; 106  : 	{ return ::operator new(nSize); }

	push	ebp
	mov	ebp, esp
	push	DWORD PTR _nSize$[ebp]
	call	??2@YAPAXI@Z				; operator new
	add	esp, 4
	pop	ebp
	ret	4
??2CObject@@SGPAXI@Z ENDP				; CObject::operator new
_TEXT	ENDS
; Function compile flags: /Ogtp
; File C:\Program Files (x86)\Microsoft Visual Studio\2019\Enterprise\VC\Tools\MSVC\14.23.28105\atlmfc\include\afx.inl
;	COMDAT ??3CObject@@SGXPAX@Z
_TEXT	SEGMENT
_p$ = 8							; size = 4
??3CObject@@SGXPAX@Z PROC				; CObject::operator delete, COMDAT

; 102  : 	{ ::operator delete(p); }

	push	ebp
	mov	ebp, esp
	push	DWORD PTR _p$[ebp]
	call	??3@YAXPAX@Z				; operator delete
	add	esp, 4
	pop	ebp
	ret	4
??3CObject@@SGXPAX@Z ENDP				; CObject::operator delete
_TEXT	ENDS
END
