; Listing generated by Microsoft (R) Optimizing Compiler Version 19.23.28106.4 

	TITLE	i:\projets\aes\aes\aes\aesdlg.cpp
	.686P
	.XMM
	include listing.inc
	.model	flat

INCLUDELIB OLDNAMES

PUBLIC	??_C@_1CG@HPFIJNG@?$AAD?$AAu?$AAr?$AAa?$AAt?$AAi?$AAo?$AAn?$AA?5?$AA?3?$AA?5?$AA?$CF?$AAl?$AAl?$AAu@ ; `string'
PUBLIC	??_R2CAESDlg@@8					; CAESDlg::`RTTI Base Class Array'
PUBLIC	??_R2CDialogEx@@8				; CDialogEx::`RTTI Base Class Array'
PUBLIC	??_R1A@?0A@EA@CAESDlg@@8			; CAESDlg::`RTTI Base Class Descriptor at (0,-1,0,64)'
PUBLIC	??_R0?AVCDialog@@@8				; CDialog `RTTI Type Descriptor'
PUBLIC	??_R0?AVCWnd@@@8				; CWnd `RTTI Type Descriptor'
PUBLIC	??_R2CWnd@@8					; CWnd::`RTTI Base Class Array'
PUBLIC	??_R3CWnd@@8					; CWnd::`RTTI Class Hierarchy Descriptor'
PUBLIC	??_R1A@?0A@EA@CWnd@@8				; CWnd::`RTTI Base Class Descriptor at (0,-1,0,64)'
PUBLIC	??_R2CDialog@@8					; CDialog::`RTTI Base Class Array'
PUBLIC	??_R3CDialog@@8					; CDialog::`RTTI Class Hierarchy Descriptor'
PUBLIC	??_R1A@?0A@EA@CDialog@@8			; CDialog::`RTTI Base Class Descriptor at (0,-1,0,64)'
PUBLIC	??_R1A@?0A@EA@CDialogEx@@8			; CDialogEx::`RTTI Base Class Descriptor at (0,-1,0,64)'
PUBLIC	??_R3CDialogEx@@8				; CDialogEx::`RTTI Class Hierarchy Descriptor'
PUBLIC	??_R0?AVCDialogEx@@@8				; CDialogEx `RTTI Type Descriptor'
PUBLIC	??_R3CAESDlg@@8					; CAESDlg::`RTTI Class Hierarchy Descriptor'
PUBLIC	??_R0?AVCAESDlg@@@8				; CAESDlg `RTTI Type Descriptor'
PUBLIC	??_R4CAESDlg@@6B@				; CAESDlg::`RTTI Complete Object Locator'
PUBLIC	??_C@_11LOCGONAA@@				; `string'
PUBLIC	??_7CAESDlg@@6B@				; CAESDlg::`vftable'
EXTRN	?PreInitDialog@CDialog@@MAEXXZ:PROC		; CDialog::PreInitDialog
EXTRN	?OnOK@CDialog@@MAEXXZ:PROC			; CDialog::OnOK
EXTRN	?OnSetFont@CDialog@@UAEXPAVCFont@@@Z:PROC	; CDialog::OnSetFont
EXTRN	?CreateIndirect@CDialog@@UAEHPBUDLGTEMPLATE@@PAVCWnd@@PAX@Z:PROC ; CDialog::CreateIndirect
EXTRN	?CreateIndirect@CDialog@@UAEHPAXPAVCWnd@@@Z:PROC ; CDialog::CreateIndirect
EXTRN	?Create@CDialog@@UAEHPB_WPAVCWnd@@@Z:PROC	; CDialog::Create
EXTRN	?GetOccDialogInfo@CDialog@@MAEPAU_AFX_OCC_DIALOG_INFO@@XZ:PROC ; CDialog::GetOccDialogInfo
EXTRN	?SetOccDialogInfo@CDialog@@MAEHPAU_AFX_OCC_DIALOG_INFO@@@Z:PROC ; CDialog::SetOccDialogInfo
EXTRN	?CreateControlSite@CWnd@@MAEHPAVCOleControlContainer@@PAPAVCOleControlSite@@IABU_GUID@@@Z:PROC ; CWnd::CreateControlSite
EXTRN	?CreateControlContainer@CWnd@@MAEHPAPAVCOleControlContainer@@@Z:PROC ; CWnd::CreateControlContainer
EXTRN	?IsFrameWnd@CWnd@@UBEHXZ:PROC			; CWnd::IsFrameWnd
EXTRN	?CheckAutoCenter@CDialog@@UAEHXZ:PROC		; CDialog::CheckAutoCenter
EXTRN	?ResizeDynamicLayout@CWnd@@MAEXXZ:PROC		; CWnd::ResizeDynamicLayout
EXTRN	?OnGesturePressAndTap@CWnd@@MAEHVCPoint@@J@Z:PROC ; CWnd::OnGesturePressAndTap
EXTRN	?OnGestureTwoFingerTap@CWnd@@MAEHVCPoint@@@Z:PROC ; CWnd::OnGestureTwoFingerTap
EXTRN	?OnGestureRotate@CWnd@@MAEHVCPoint@@N@Z:PROC	; CWnd::OnGestureRotate
EXTRN	?OnGesturePan@CWnd@@MAEHVCPoint@@0@Z:PROC	; CWnd::OnGesturePan
EXTRN	?OnGestureZoom@CWnd@@MAEHVCPoint@@J@Z:PROC	; CWnd::OnGestureZoom
EXTRN	?GetGestureStatus@CWnd@@MAEKVCPoint@@@Z:PROC	; CWnd::GetGestureStatus
EXTRN	?OnTouchInput@CWnd@@MAEHVCPoint@@HHPAUtagTOUCHINPUT@@@Z:PROC ; CWnd::OnTouchInput
EXTRN	?OnTouchInputs@CWnd@@MAEHIPAUtagTOUCHINPUT@@@Z:PROC ; CWnd::OnTouchInputs
EXTRN	?OnChildNotify@CWnd@@MAEHIIJPAJ@Z:PROC		; CWnd::OnChildNotify
EXTRN	?PostNcDestroy@CWnd@@MAEXXZ:PROC		; CWnd::PostNcDestroy
EXTRN	?DefWindowProcW@CWnd@@MAEJIIJ@Z:PROC		; CWnd::DefWindowProcW
EXTRN	?OnWndMsg@CWnd@@MAEHIIJPAJ@Z:PROC		; CWnd::OnWndMsg
EXTRN	?WindowProc@CWnd@@MAEJIIJ@Z:PROC		; CWnd::WindowProc
EXTRN	?OnAmbientProperty@CWnd@@UAEHPAVCOleControlSite@@JPAUtagVARIANT@@@Z:PROC ; CWnd::OnAmbientProperty
EXTRN	?PreTranslateMessage@CDialogEx@@UAEHPAUtagMSG@@@Z:PROC ; CDialogEx::PreTranslateMessage
EXTRN	__imp__EnableWindow@8:PROC
EXTRN	?GetSuperWndProcAddr@CWnd@@MAEPAP6GJPAUHWND__@@IIJ@ZXZ:PROC ; CWnd::GetSuperWndProcAddr
EXTRN	?OnNotify@CWnd@@MAEHIJPAJ@Z:PROC		; CWnd::OnNotify
EXTRN	?OnCommand@CDialogEx@@MAEHIJ@Z:PROC		; CDialogEx::OnCommand
EXTRN	?CreateAccessibleProxy@CWnd@@UAEJIJPAJ@Z:PROC	; CWnd::CreateAccessibleProxy
EXTRN	?SetProxy@CWnd@@UAEJPAUIAccessibleProxy@@@Z:PROC ; CWnd::SetProxy
EXTRN	?put_accValue@CWnd@@UAEJUtagVARIANT@@PA_W@Z:PROC ; CWnd::put_accValue
EXTRN	?put_accName@CWnd@@UAEJUtagVARIANT@@PA_W@Z:PROC	; CWnd::put_accName
EXTRN	?accDoDefaultAction@CWnd@@UAEJUtagVARIANT@@@Z:PROC ; CWnd::accDoDefaultAction
EXTRN	?accHitTest@CWnd@@UAEJJJPAUtagVARIANT@@@Z:PROC	; CWnd::accHitTest
EXTRN	?accNavigate@CWnd@@UAEJJUtagVARIANT@@PAU2@@Z:PROC ; CWnd::accNavigate
EXTRN	?accLocation@CWnd@@UAEJPAJ000UtagVARIANT@@@Z:PROC ; CWnd::accLocation
EXTRN	?accSelect@CWnd@@UAEJJUtagVARIANT@@@Z:PROC	; CWnd::accSelect
EXTRN	?get_accDefaultAction@CWnd@@UAEJUtagVARIANT@@PAPA_W@Z:PROC ; CWnd::get_accDefaultAction
EXTRN	?get_accSelection@CWnd@@UAEJPAUtagVARIANT@@@Z:PROC ; CWnd::get_accSelection
EXTRN	?get_accFocus@CWnd@@UAEJPAUtagVARIANT@@@Z:PROC	; CWnd::get_accFocus
EXTRN	?get_accKeyboardShortcut@CWnd@@UAEJUtagVARIANT@@PAPA_W@Z:PROC ; CWnd::get_accKeyboardShortcut
EXTRN	?get_accHelpTopic@CWnd@@UAEJPAPA_WUtagVARIANT@@PAJ@Z:PROC ; CWnd::get_accHelpTopic
EXTRN	?get_accHelp@CWnd@@UAEJUtagVARIANT@@PAPA_W@Z:PROC ; CWnd::get_accHelp
EXTRN	?get_accState@CWnd@@UAEJUtagVARIANT@@PAU2@@Z:PROC ; CWnd::get_accState
EXTRN	?get_accRole@CWnd@@UAEJUtagVARIANT@@PAU2@@Z:PROC ; CWnd::get_accRole
EXTRN	?get_accDescription@CWnd@@UAEJUtagVARIANT@@PAPA_W@Z:PROC ; CWnd::get_accDescription
EXTRN	?get_accValue@CWnd@@UAEJUtagVARIANT@@PAPA_W@Z:PROC ; CWnd::get_accValue
EXTRN	?get_accName@CWnd@@UAEJUtagVARIANT@@PAPA_W@Z:PROC ; CWnd::get_accName
EXTRN	?get_accChild@CWnd@@UAEJUtagVARIANT@@PAPAUIDispatch@@@Z:PROC ; CWnd::get_accChild
EXTRN	?get_accChildCount@CWnd@@UAEJPAJ@Z:PROC		; CWnd::get_accChildCount
EXTRN	?get_accParent@CWnd@@UAEJPAPAUIDispatch@@@Z:PROC ; CWnd::get_accParent
EXTRN	?EnsureStdObj@CWnd@@UAEJXZ:PROC			; CWnd::EnsureStdObj
EXTRN	?OnDrawIconicThumbnailOrLivePreview@CWnd@@UAEXAAVCDC@@VCRect@@VCSize@@HAAH@Z:PROC ; CWnd::OnDrawIconicThumbnailOrLivePreview
EXTRN	?EndModalLoop@CWnd@@UAEXH@Z:PROC		; CWnd::EndModalLoop
EXTRN	?ContinueModal@CWnd@@UAEHXZ:PROC		; CWnd::ContinueModal
EXTRN	?WinHelpInternal@CWnd@@UAEXKI@Z:PROC		; CWnd::WinHelpInternal
EXTRN	?HtmlHelpW@CWnd@@UAEXKI@Z:PROC			; CWnd::HtmlHelpW
EXTRN	?WinHelpW@CWnd@@UAEXKI@Z:PROC			; CWnd::WinHelpW
EXTRN	?GetScrollBarCtrl@CWnd@@UBEPAVCScrollBar@@H@Z:PROC ; CWnd::GetScrollBarCtrl
EXTRN	?OnToolHitTest@CWnd@@UBEHVCPoint@@PAUtagTOOLINFOW@@@Z:PROC ; CWnd::OnToolHitTest
EXTRN	?SetMenu@CWnd@@UAEHPAVCMenu@@@Z:PROC		; CWnd::SetMenu
EXTRN	?GetMenu@CWnd@@UBEPAVCMenu@@XZ:PROC		; CWnd::GetMenu
EXTRN	?CalcWindowRect@CWnd@@UAEXPAUtagRECT@@I@Z:PROC	; CWnd::CalcWindowRect
EXTRN	?PreCreateWindow@CWnd@@UAEHAAUtagCREATESTRUCTW@@@Z:PROC ; CWnd::PreCreateWindow
EXTRN	?DestroyWindow@CWnd@@UAEHXZ:PROC		; CWnd::DestroyWindow
EXTRN	?CreateEx@CWnd@@UAEHKPB_W0KHHHHPAUHWND__@@PAUHMENU__@@PAX@Z:PROC ; CWnd::CreateEx
EXTRN	?CreateEx@CWnd@@UAEHKPB_W0KABUtagRECT@@PAV1@IPAX@Z:PROC ; CWnd::CreateEx
EXTRN	?Create@CWnd@@UAEHPB_W0KABUtagRECT@@PAV1@IPAUCCreateContext@@@Z:PROC ; CWnd::Create
EXTRN	?PreSubclassWindow@CWnd@@UAEXXZ:PROC		; CWnd::PreSubclassWindow
EXTRN	?GetInterfaceMap@CWnd@@MBEPBUAFX_INTERFACEMAP@@XZ:PROC ; CWnd::GetInterfaceMap
EXTRN	?OnFinalRelease@CWnd@@UAEXXZ:PROC		; CWnd::OnFinalRelease
EXTRN	?OnCmdMsg@CDialog@@UAEHIHPAXPAUAFX_CMDHANDLERINFO@@@Z:PROC ; CDialog::OnCmdMsg
EXTRN	?GetRuntimeClass@CDialogEx@@UBEPAUCRuntimeClass@@XZ:PROC ; CDialogEx::GetRuntimeClass
EXTRN	__imp__DragFinish@4:PROC
EXTRN	__imp__DragQueryFileW@16:PROC
EXTRN	?OnCancel@CDialog@@MAEXXZ:PROC			; CDialog::OnCancel
EXTRN	?OnPaint@CDialog@@IAEXXZ:PROC			; CDialog::OnPaint
EXTRN	__imp__DrawIcon@16:PROC
EXTRN	__imp__GetClientRect@8:PROC
EXTRN	__imp__GetSystemMetrics@4:PROC
EXTRN	??1CPaintDC@@UAE@XZ:PROC			; CPaintDC::~CPaintDC
EXTRN	??0CPaintDC@@QAE@PAVCWnd@@@Z:PROC		; CPaintDC::CPaintDC
EXTRN	__imp__IsIconic@4:PROC
EXTRN	?SetDlgItemTextW@CWnd@@QAEXHPB_W@Z:PROC		; CWnd::SetDlgItemTextW
EXTRN	?AfxFindStringResourceHandle@@YGPAUHINSTANCE__@@I@Z:PROC ; AfxFindStringResourceHandle
EXTRN	__imp__FindResourceW@12:PROC
EXTRN	__imp__LoadResource@8:PROC
EXTRN	__imp__LockResource@4:PROC
EXTRN	__imp__SizeofResource@8:PROC
EXTRN	?AfxThrowInvalidArgException@@YGXXZ:PROC	; AfxThrowInvalidArgException
EXTRN	_wmemcpy_s:PROC
EXTRN	?SubclassDlgItem@CWnd@@QAEHIPAV1@@Z:PROC	; CWnd::SubclassDlgItem
EXTRN	__imp__DragAcceptFiles@8:PROC
EXTRN	__imp__SendMessageW@16:PROC
EXTRN	?OnInitDialog@CDialog@@UAEHXZ:PROC		; CDialog::OnInitDialog
EXTRN	?GetThisMessageMap@CDialogEx@@KGPBUAFX_MSGMAP@@XZ:PROC ; CDialogEx::GetThisMessageMap
EXTRN	__imp__LoadIconW@8:PROC
EXTRN	?AfxGetModuleState@@YGPAVAFX_MODULE_STATE@@XZ:PROC ; AfxGetModuleState
EXTRN	??0CDialogEx@@QAE@IPAVCWnd@@@Z:PROC		; CDialogEx::CDialogEx
;	COMDAT ??_7CAESDlg@@6B@
CONST	SEGMENT
??_7CAESDlg@@6B@ DD FLAT:??_R4CAESDlg@@6B@		; CAESDlg::`vftable'
	DD	FLAT:?GetRuntimeClass@CDialogEx@@UBEPAUCRuntimeClass@@XZ
	DD	FLAT:??_ECAESDlg@@UAEPAXI@Z
	DD	FLAT:?Serialize@CObject@@UAEXAAVCArchive@@@Z
	DD	FLAT:?OnCmdMsg@CDialog@@UAEHIHPAXPAUAFX_CMDHANDLERINFO@@@Z
	DD	FLAT:?OnFinalRelease@CWnd@@UAEXXZ
	DD	FLAT:?IsInvokeAllowed@CCmdTarget@@UAEHJ@Z
	DD	FLAT:?GetDispatchIID@CCmdTarget@@UAEHPAU_GUID@@@Z
	DD	FLAT:?GetTypeInfoCount@CCmdTarget@@UAEIXZ
	DD	FLAT:?GetTypeLibCache@CCmdTarget@@UAEPAVCTypeLibCache@@XZ
	DD	FLAT:?GetTypeLib@CCmdTarget@@UAEJKPAPAUITypeLib@@@Z
	DD	FLAT:?GetMessageMap@CAESDlg@@MBEPBUAFX_MSGMAP@@XZ
	DD	FLAT:?GetCommandMap@CCmdTarget@@MBEPBUAFX_OLECMDMAP@@XZ
	DD	FLAT:?GetDispatchMap@CCmdTarget@@MBEPBUAFX_DISPMAP@@XZ
	DD	FLAT:?GetConnectionMap@CCmdTarget@@MBEPBUAFX_CONNECTIONMAP@@XZ
	DD	FLAT:?GetInterfaceMap@CWnd@@MBEPBUAFX_INTERFACEMAP@@XZ
	DD	FLAT:?GetEventSinkMap@CCmdTarget@@MBEPBUAFX_EVENTSINKMAP@@XZ
	DD	FLAT:?OnCreateAggregates@CCmdTarget@@UAEHXZ
	DD	FLAT:?GetInterfaceHook@CCmdTarget@@UAEPAUIUnknown@@PBX@Z
	DD	FLAT:?GetExtraConnectionPoints@CCmdTarget@@MAEHPAVCPtrArray@@@Z
	DD	FLAT:?GetConnectionHook@CCmdTarget@@MAEPAUIConnectionPoint@@ABU_GUID@@@Z
	DD	FLAT:?PreSubclassWindow@CWnd@@UAEXXZ
	DD	FLAT:?Create@CWnd@@UAEHPB_W0KABUtagRECT@@PAV1@IPAUCCreateContext@@@Z
	DD	FLAT:?CreateEx@CWnd@@UAEHKPB_W0KABUtagRECT@@PAV1@IPAX@Z
	DD	FLAT:?CreateEx@CWnd@@UAEHKPB_W0KHHHHPAUHWND__@@PAUHMENU__@@PAX@Z
	DD	FLAT:?DestroyWindow@CWnd@@UAEHXZ
	DD	FLAT:?PreCreateWindow@CWnd@@UAEHAAUtagCREATESTRUCTW@@@Z
	DD	FLAT:?CalcWindowRect@CWnd@@UAEXPAUtagRECT@@I@Z
	DD	FLAT:?GetMenu@CWnd@@UBEPAVCMenu@@XZ
	DD	FLAT:?SetMenu@CWnd@@UAEHPAVCMenu@@@Z
	DD	FLAT:?OnToolHitTest@CWnd@@UBEHVCPoint@@PAUtagTOOLINFOW@@@Z
	DD	FLAT:?GetScrollBarCtrl@CWnd@@UBEPAVCScrollBar@@H@Z
	DD	FLAT:?WinHelpW@CWnd@@UAEXKI@Z
	DD	FLAT:?HtmlHelpW@CWnd@@UAEXKI@Z
	DD	FLAT:?WinHelpInternal@CWnd@@UAEXKI@Z
	DD	FLAT:?ContinueModal@CWnd@@UAEHXZ
	DD	FLAT:?EndModalLoop@CWnd@@UAEXH@Z
	DD	FLAT:?OnDrawIconicThumbnailOrLivePreview@CWnd@@UAEXAAVCDC@@VCRect@@VCSize@@HAAH@Z
	DD	FLAT:?EnsureStdObj@CWnd@@UAEJXZ
	DD	FLAT:?get_accParent@CWnd@@UAEJPAPAUIDispatch@@@Z
	DD	FLAT:?get_accChildCount@CWnd@@UAEJPAJ@Z
	DD	FLAT:?get_accChild@CWnd@@UAEJUtagVARIANT@@PAPAUIDispatch@@@Z
	DD	FLAT:?get_accName@CWnd@@UAEJUtagVARIANT@@PAPA_W@Z
	DD	FLAT:?get_accValue@CWnd@@UAEJUtagVARIANT@@PAPA_W@Z
	DD	FLAT:?get_accDescription@CWnd@@UAEJUtagVARIANT@@PAPA_W@Z
	DD	FLAT:?get_accRole@CWnd@@UAEJUtagVARIANT@@PAU2@@Z
	DD	FLAT:?get_accState@CWnd@@UAEJUtagVARIANT@@PAU2@@Z
	DD	FLAT:?get_accHelp@CWnd@@UAEJUtagVARIANT@@PAPA_W@Z
	DD	FLAT:?get_accHelpTopic@CWnd@@UAEJPAPA_WUtagVARIANT@@PAJ@Z
	DD	FLAT:?get_accKeyboardShortcut@CWnd@@UAEJUtagVARIANT@@PAPA_W@Z
	DD	FLAT:?get_accFocus@CWnd@@UAEJPAUtagVARIANT@@@Z
	DD	FLAT:?get_accSelection@CWnd@@UAEJPAUtagVARIANT@@@Z
	DD	FLAT:?get_accDefaultAction@CWnd@@UAEJUtagVARIANT@@PAPA_W@Z
	DD	FLAT:?accSelect@CWnd@@UAEJJUtagVARIANT@@@Z
	DD	FLAT:?accLocation@CWnd@@UAEJPAJ000UtagVARIANT@@@Z
	DD	FLAT:?accNavigate@CWnd@@UAEJJUtagVARIANT@@PAU2@@Z
	DD	FLAT:?accHitTest@CWnd@@UAEJJJPAUtagVARIANT@@@Z
	DD	FLAT:?accDoDefaultAction@CWnd@@UAEJUtagVARIANT@@@Z
	DD	FLAT:?put_accName@CWnd@@UAEJUtagVARIANT@@PA_W@Z
	DD	FLAT:?put_accValue@CWnd@@UAEJUtagVARIANT@@PA_W@Z
	DD	FLAT:?SetProxy@CWnd@@UAEJPAUIAccessibleProxy@@@Z
	DD	FLAT:?CreateAccessibleProxy@CWnd@@UAEJIJPAJ@Z
	DD	FLAT:?OnCommand@CDialogEx@@MAEHIJ@Z
	DD	FLAT:?OnNotify@CWnd@@MAEHIJPAJ@Z
	DD	FLAT:?GetSuperWndProcAddr@CWnd@@MAEPAP6GJPAUHWND__@@IIJ@ZXZ
	DD	FLAT:?DoDataExchange@CAESDlg@@MAEXPAVCDataExchange@@@Z
	DD	FLAT:?BeginModalState@CWnd@@UAEXXZ
	DD	FLAT:?EndModalState@CWnd@@UAEXXZ
	DD	FLAT:?PreTranslateMessage@CDialogEx@@UAEHPAUtagMSG@@@Z
	DD	FLAT:?OnAmbientProperty@CWnd@@UAEHPAVCOleControlSite@@JPAUtagVARIANT@@@Z
	DD	FLAT:?WindowProc@CWnd@@MAEJIIJ@Z
	DD	FLAT:?OnWndMsg@CWnd@@MAEHIIJPAJ@Z
	DD	FLAT:?DefWindowProcW@CWnd@@MAEJIIJ@Z
	DD	FLAT:?PostNcDestroy@CWnd@@MAEXXZ
	DD	FLAT:?OnChildNotify@CWnd@@MAEHIIJPAJ@Z
	DD	FLAT:?OnTouchInputs@CWnd@@MAEHIPAUtagTOUCHINPUT@@@Z
	DD	FLAT:?OnTouchInput@CWnd@@MAEHVCPoint@@HHPAUtagTOUCHINPUT@@@Z
	DD	FLAT:?GetGestureStatus@CWnd@@MAEKVCPoint@@@Z
	DD	FLAT:?OnGestureZoom@CWnd@@MAEHVCPoint@@J@Z
	DD	FLAT:?OnGesturePan@CWnd@@MAEHVCPoint@@0@Z
	DD	FLAT:?OnGestureRotate@CWnd@@MAEHVCPoint@@N@Z
	DD	FLAT:?OnGestureTwoFingerTap@CWnd@@MAEHVCPoint@@@Z
	DD	FLAT:?OnGesturePressAndTap@CWnd@@MAEHVCPoint@@J@Z
	DD	FLAT:?ResizeDynamicLayout@CWnd@@MAEXXZ
	DD	FLAT:?CheckAutoCenter@CDialog@@UAEHXZ
	DD	FLAT:?IsFrameWnd@CWnd@@UBEHXZ
	DD	FLAT:?CreateControlContainer@CWnd@@MAEHPAPAVCOleControlContainer@@@Z
	DD	FLAT:?CreateControlSite@CWnd@@MAEHPAVCOleControlContainer@@PAPAVCOleControlSite@@IABU_GUID@@@Z
	DD	FLAT:?SetOccDialogInfo@CDialog@@MAEHPAU_AFX_OCC_DIALOG_INFO@@@Z
	DD	FLAT:?GetOccDialogInfo@CDialog@@MAEPAU_AFX_OCC_DIALOG_INFO@@XZ
	DD	FLAT:?Create@CDialog@@UAEHIPAVCWnd@@@Z
	DD	FLAT:?Create@CDialog@@UAEHPB_WPAVCWnd@@@Z
	DD	FLAT:?CreateIndirect@CDialog@@UAEHPAXPAVCWnd@@@Z
	DD	FLAT:?CreateIndirect@CDialog@@UAEHPBUDLGTEMPLATE@@PAVCWnd@@PAX@Z
	DD	FLAT:?DoModal@CDialog@@UAEHXZ
	DD	FLAT:?OnInitDialog@CAESDlg@@MAEHXZ
	DD	FLAT:?OnSetFont@CDialog@@UAEXPAVCFont@@@Z
	DD	FLAT:?OnOK@CDialog@@MAEXXZ
	DD	FLAT:?OnCancel@CDialog@@MAEXXZ
	DD	FLAT:?PreInitDialog@CDialog@@MAEXXZ
CONST	ENDS
;	COMDAT ?_messageEntries@?1??GetThisMessageMap@CAESDlg@@KGPBUAFX_MSGMAP@@XZ@4QBUAFX_MSGMAP_ENTRY@@B
CONST	SEGMENT
?_messageEntries@?1??GetThisMessageMap@CAESDlg@@KGPBUAFX_MSGMAP@@XZ@4QBUAFX_MSGMAP_ENTRY@@B DD 0fH ; `CAESDlg::GetThisMessageMap'::`2'::_messageEntries
	DD	00H
	DD	00H
	DD	00H
	DD	013H
	DD	FLAT:?OnPaint@CAESDlg@@IAEXXZ
	DD	037H
	DD	00H
	DD	00H
	DD	00H
	DD	029H
	DD	FLAT:?OnQueryDragIcon@CAESDlg@@IAEPAUHICON__@@XZ
	DD	0111H
	DD	00H
	DD	01H
	DD	01H
	DD	03aH
	DD	FLAT:?OnBnClickedOk@CAESDlg@@QAEXXZ
	DD	0111H
	DD	00H
	DD	02H
	DD	02H
	DD	03aH
	DD	FLAT:?OnBnClickedCancel@CAESDlg@@QAEXXZ
	DD	0111H
	DD	00H
	DD	03e8H
	DD	03e8H
	DD	03aH
	DD	FLAT:?OnBnClickedRadio1@CAESDlg@@QAEXXZ
	DD	0111H
	DD	00H
	DD	03e9H
	DD	03e9H
	DD	03aH
	DD	FLAT:?OnBnClickedRadio2@CAESDlg@@QAEXXZ
	DD	0233H
	DD	00H
	DD	00H
	DD	00H
	DD	011H
	DD	FLAT:?OnDropFiles@CAESDlg@@QAEXPAUHDROP__@@@Z
	DD	00H
	DD	00H
	DD	00H
	DD	00H
	DD	00H
	DD	00H
CONST	ENDS
;	COMDAT ?messageMap@?1??GetThisMessageMap@CAESDlg@@KGPBUAFX_MSGMAP@@XZ@4U3@B
CONST	SEGMENT
?messageMap@?1??GetThisMessageMap@CAESDlg@@KGPBUAFX_MSGMAP@@XZ@4U3@B DD FLAT:?GetThisMessageMap@CDialogEx@@KGPBUAFX_MSGMAP@@XZ ; `CAESDlg::GetThisMessageMap'::`2'::messageMap
	DD	FLAT:?_messageEntries@?1??GetThisMessageMap@CAESDlg@@KGPBUAFX_MSGMAP@@XZ@4QBUAFX_MSGMAP_ENTRY@@B
CONST	ENDS
;	COMDAT ??_C@_11LOCGONAA@@
CONST	SEGMENT
??_C@_11LOCGONAA@@ DB 00H, 00H				; `string'
CONST	ENDS
;	COMDAT ??_R4CAESDlg@@6B@
rdata$r	SEGMENT
??_R4CAESDlg@@6B@ DD 00H				; CAESDlg::`RTTI Complete Object Locator'
	DD	00H
	DD	00H
	DD	FLAT:??_R0?AVCAESDlg@@@8
	DD	FLAT:??_R3CAESDlg@@8
rdata$r	ENDS
;	COMDAT ??_R0?AVCAESDlg@@@8
data$r	SEGMENT
??_R0?AVCAESDlg@@@8 DD FLAT:??_7type_info@@6B@		; CAESDlg `RTTI Type Descriptor'
	DD	00H
	DB	'.?AVCAESDlg@@', 00H
data$r	ENDS
;	COMDAT ??_R3CAESDlg@@8
rdata$r	SEGMENT
??_R3CAESDlg@@8 DD 00H					; CAESDlg::`RTTI Class Hierarchy Descriptor'
	DD	00H
	DD	06H
	DD	FLAT:??_R2CAESDlg@@8
rdata$r	ENDS
;	COMDAT ??_R0?AVCDialogEx@@@8
data$r	SEGMENT
??_R0?AVCDialogEx@@@8 DD FLAT:??_7type_info@@6B@	; CDialogEx `RTTI Type Descriptor'
	DD	00H
	DB	'.?AVCDialogEx@@', 00H
data$r	ENDS
;	COMDAT ??_R3CDialogEx@@8
rdata$r	SEGMENT
??_R3CDialogEx@@8 DD 00H				; CDialogEx::`RTTI Class Hierarchy Descriptor'
	DD	00H
	DD	05H
	DD	FLAT:??_R2CDialogEx@@8
rdata$r	ENDS
;	COMDAT ??_R1A@?0A@EA@CDialogEx@@8
rdata$r	SEGMENT
??_R1A@?0A@EA@CDialogEx@@8 DD FLAT:??_R0?AVCDialogEx@@@8 ; CDialogEx::`RTTI Base Class Descriptor at (0,-1,0,64)'
	DD	04H
	DD	00H
	DD	0ffffffffH
	DD	00H
	DD	040H
	DD	FLAT:??_R3CDialogEx@@8
rdata$r	ENDS
;	COMDAT ??_R1A@?0A@EA@CDialog@@8
rdata$r	SEGMENT
??_R1A@?0A@EA@CDialog@@8 DD FLAT:??_R0?AVCDialog@@@8	; CDialog::`RTTI Base Class Descriptor at (0,-1,0,64)'
	DD	03H
	DD	00H
	DD	0ffffffffH
	DD	00H
	DD	040H
	DD	FLAT:??_R3CDialog@@8
rdata$r	ENDS
;	COMDAT ??_R3CDialog@@8
rdata$r	SEGMENT
??_R3CDialog@@8 DD 00H					; CDialog::`RTTI Class Hierarchy Descriptor'
	DD	00H
	DD	04H
	DD	FLAT:??_R2CDialog@@8
rdata$r	ENDS
;	COMDAT ??_R2CDialog@@8
rdata$r	SEGMENT
??_R2CDialog@@8 DD FLAT:??_R1A@?0A@EA@CDialog@@8	; CDialog::`RTTI Base Class Array'
	DD	FLAT:??_R1A@?0A@EA@CWnd@@8
	DD	FLAT:??_R1A@?0A@EA@CCmdTarget@@8
	DD	FLAT:??_R1A@?0A@EA@CObject@@8
rdata$r	ENDS
;	COMDAT ??_R1A@?0A@EA@CWnd@@8
rdata$r	SEGMENT
??_R1A@?0A@EA@CWnd@@8 DD FLAT:??_R0?AVCWnd@@@8		; CWnd::`RTTI Base Class Descriptor at (0,-1,0,64)'
	DD	02H
	DD	00H
	DD	0ffffffffH
	DD	00H
	DD	040H
	DD	FLAT:??_R3CWnd@@8
rdata$r	ENDS
;	COMDAT ??_R3CWnd@@8
rdata$r	SEGMENT
??_R3CWnd@@8 DD	00H					; CWnd::`RTTI Class Hierarchy Descriptor'
	DD	00H
	DD	03H
	DD	FLAT:??_R2CWnd@@8
rdata$r	ENDS
;	COMDAT ??_R2CWnd@@8
rdata$r	SEGMENT
??_R2CWnd@@8 DD	FLAT:??_R1A@?0A@EA@CWnd@@8		; CWnd::`RTTI Base Class Array'
	DD	FLAT:??_R1A@?0A@EA@CCmdTarget@@8
	DD	FLAT:??_R1A@?0A@EA@CObject@@8
rdata$r	ENDS
;	COMDAT ??_R0?AVCWnd@@@8
data$r	SEGMENT
??_R0?AVCWnd@@@8 DD FLAT:??_7type_info@@6B@		; CWnd `RTTI Type Descriptor'
	DD	00H
	DB	'.?AVCWnd@@', 00H
data$r	ENDS
;	COMDAT ??_R0?AVCDialog@@@8
data$r	SEGMENT
??_R0?AVCDialog@@@8 DD FLAT:??_7type_info@@6B@		; CDialog `RTTI Type Descriptor'
	DD	00H
	DB	'.?AVCDialog@@', 00H
data$r	ENDS
;	COMDAT ??_R1A@?0A@EA@CAESDlg@@8
rdata$r	SEGMENT
??_R1A@?0A@EA@CAESDlg@@8 DD FLAT:??_R0?AVCAESDlg@@@8	; CAESDlg::`RTTI Base Class Descriptor at (0,-1,0,64)'
	DD	05H
	DD	00H
	DD	0ffffffffH
	DD	00H
	DD	040H
	DD	FLAT:??_R3CAESDlg@@8
rdata$r	ENDS
;	COMDAT ??_R2CDialogEx@@8
rdata$r	SEGMENT
??_R2CDialogEx@@8 DD FLAT:??_R1A@?0A@EA@CDialogEx@@8	; CDialogEx::`RTTI Base Class Array'
	DD	FLAT:??_R1A@?0A@EA@CDialog@@8
	DD	FLAT:??_R1A@?0A@EA@CWnd@@8
	DD	FLAT:??_R1A@?0A@EA@CCmdTarget@@8
	DD	FLAT:??_R1A@?0A@EA@CObject@@8
rdata$r	ENDS
;	COMDAT ??_R2CAESDlg@@8
rdata$r	SEGMENT
??_R2CAESDlg@@8 DD FLAT:??_R1A@?0A@EA@CAESDlg@@8	; CAESDlg::`RTTI Base Class Array'
	DD	FLAT:??_R1A@?0A@EA@CDialogEx@@8
	DD	FLAT:??_R1A@?0A@EA@CDialog@@8
	DD	FLAT:??_R1A@?0A@EA@CWnd@@8
	DD	FLAT:??_R1A@?0A@EA@CCmdTarget@@8
	DD	FLAT:??_R1A@?0A@EA@CObject@@8
rdata$r	ENDS
;	COMDAT ??_C@_1CG@HPFIJNG@?$AAD?$AAu?$AAr?$AAa?$AAt?$AAi?$AAo?$AAn?$AA?5?$AA?3?$AA?5?$AA?$CF?$AAl?$AAl?$AAu@
CONST	SEGMENT
??_C@_1CG@HPFIJNG@?$AAD?$AAu?$AAr?$AAa?$AAt?$AAi?$AAo?$AAn?$AA?5?$AA?3?$AA?5?$AA?$CF?$AAl?$AAl?$AAu@ DB 'D'
	DB	00H, 'u', 00H, 'r', 00H, 'a', 00H, 't', 00H, 'i', 00H, 'o', 00H
	DB	'n', 00H, ' ', 00H, ':', 00H, ' ', 00H, '%', 00H, 'l', 00H, 'l'
	DB	00H, 'u', 00H, ' ', 00H, 'm', 00H, 's', 00H, 00H, 00H ; `string'
PUBLIC	?LoadIconW@CWinApp@@QBEPAUHICON__@@I@Z		; CWinApp::LoadIconW
PUBLIC	?AfxGetResourceHandle@@YGPAUHINSTANCE__@@XZ	; AfxGetResourceHandle
PUBLIC	?AfxGetApp@@YGPAVCWinApp@@XZ			; AfxGetApp
PUBLIC	?DoDataExchange@CWnd@@MAEXPAVCDataExchange@@@Z	; CWnd::DoDataExchange
PUBLIC	?SetIcon@CWnd@@QAEPAUHICON__@@PAU2@H@Z		; CWnd::SetIcon
PUBLIC	?DragAcceptFiles@CWnd@@QAEXH@Z			; CWnd::DragAcceptFiles
PUBLIC	?LoadStringW@?$CStringT@_WV?$StrTraitMFC@_WV?$ChTraitsCRT@_W@ATL@@@@@ATL@@QAEHI@Z ; ATL::CStringT<wchar_t,StrTraitMFC<wchar_t,ATL::ChTraitsCRT<wchar_t> > >::LoadStringW
PUBLIC	?LoadStringW@?$CStringT@_WV?$StrTraitMFC@_WV?$ChTraitsCRT@_W@ATL@@@@@ATL@@QAEHPAUHINSTANCE__@@I@Z ; ATL::CStringT<wchar_t,StrTraitMFC<wchar_t,ATL::ChTraitsCRT<wchar_t> > >::LoadStringW
PUBLIC	?ConvertToBaseType@?$ChTraitsCRT@_W@ATL@@SAXPA_WHPB_WH@Z ; ATL::ChTraitsCRT<wchar_t>::ConvertToBaseType
PUBLIC	?wmemcpy_s@Checked@ATL@@YAXPA_WIPB_WI@Z		; ATL::Checked::wmemcpy_s
PUBLIC	?AfxCrtErrorCheck@@YAHH@Z			; AfxCrtErrorCheck
PUBLIC	?GetBaseTypeLength@?$ChTraitsCRT@_W@ATL@@SAHPB_W@Z ; ATL::ChTraitsCRT<wchar_t>::GetBaseTypeLength
PUBLIC	?AtlStrLen@ATL@@YAHPB_W@Z			; ATL::AtlStrLen
PUBLIC	?GetBaseTypeLength@?$ChTraitsCRT@_W@ATL@@SAHPB_WH@Z ; ATL::ChTraitsCRT<wchar_t>::GetBaseTypeLength
PUBLIC	?AtlGetStringResourceImage@ATL@@YAPBUATLSTRINGRESOURCEIMAGE@1@PAUHINSTANCE__@@I@Z ; ATL::AtlGetStringResourceImage
PUBLIC	?_AtlGetStringResourceImage@ATL@@YAPBUATLSTRINGRESOURCEIMAGE@1@PAUHINSTANCE__@@PAUHRSRC__@@I@Z ; ATL::_AtlGetStringResourceImage
PUBLIC	?FindStringResourceInstance@?$StrTraitMFC@_WV?$ChTraitsCRT@_W@ATL@@@@SAPAUHINSTANCE__@@I@Z ; StrTraitMFC<wchar_t,ATL::ChTraitsCRT<wchar_t> >::FindStringResourceInstance
PUBLIC	?IsIconic@CWnd@@QBEHXZ				; CWnd::IsIconic
PUBLIC	?SendMessageW@CWnd@@QBEJIIJ@Z			; CWnd::SendMessageW
PUBLIC	?GetSafeHdc@CDC@@QBEPAUHDC__@@XZ		; CDC::GetSafeHdc
PUBLIC	??0CRect@@QAE@XZ				; CRect::CRect
PUBLIC	?GetClientRect@CWnd@@QBEXPAUtagRECT@@@Z		; CWnd::GetClientRect
PUBLIC	?Width@CRect@@QBEHXZ				; CRect::Width
PUBLIC	?Height@CRect@@QBEHXZ				; CRect::Height
PUBLIC	?DrawIcon@CDC@@QAEHHHPAUHICON__@@@Z		; CDC::DrawIcon
PUBLIC	??0?$CStringT@_WV?$StrTraitMFC@_WV?$ChTraitsCRT@_W@ATL@@@@@ATL@@QAE@PB_W@Z ; ATL::CStringT<wchar_t,StrTraitMFC<wchar_t,ATL::ChTraitsCRT<wchar_t> > >::CStringT<wchar_t,StrTraitMFC<wchar_t,ATL::ChTraitsCRT<wchar_t> > >
PUBLIC	??4?$CStringT@_WV?$StrTraitMFC@_WV?$ChTraitsCRT@_W@ATL@@@@@ATL@@QAEAAV01@PB_W@Z ; ATL::CStringT<wchar_t,StrTraitMFC<wchar_t,ATL::ChTraitsCRT<wchar_t> > >::operator=
PUBLIC	??4?$CSimpleStringT@_W$0A@@ATL@@QAEAAV01@PB_W@Z	; ATL::CSimpleStringT<wchar_t,0>::operator=
PUBLIC	?SetString@?$CSimpleStringT@_W$0A@@ATL@@QAEXPB_W@Z ; ATL::CSimpleStringT<wchar_t,0>::SetString
PUBLIC	?StringLength@?$CSimpleStringT@_W$0A@@ATL@@SAHPB_W@Z ; ATL::CSimpleStringT<wchar_t,0>::StringLength
PUBLIC	?SetString@?$CSimpleStringT@_W$0A@@ATL@@QAEXPB_WH@Z ; ATL::CSimpleStringT<wchar_t,0>::SetString
PUBLIC	?GetAllocLength@?$CSimpleStringT@_W$0A@@ATL@@QBEHXZ ; ATL::CSimpleStringT<wchar_t,0>::GetAllocLength
PUBLIC	?CopyCharsOverlapped@?$CSimpleStringT@_W$0A@@ATL@@SAXPA_WIPB_WH@Z ; ATL::CSimpleStringT<wchar_t,0>::CopyCharsOverlapped
PUBLIC	?GetString@?$CSimpleStringT@_W$0A@@ATL@@QBEPB_WXZ ; ATL::CSimpleStringT<wchar_t,0>::GetString
PUBLIC	?GetLength@?$CSimpleStringT@_W$0A@@ATL@@QBEHXZ	; ATL::CSimpleStringT<wchar_t,0>::GetLength
PUBLIC	?Empty@?$CSimpleStringT@_W$0A@@ATL@@QAEXXZ	; ATL::CSimpleStringT<wchar_t,0>::Empty
PUBLIC	?IsLocked@CStringData@ATL@@QBE_NXZ		; ATL::CStringData::IsLocked
PUBLIC	?CheckImplicitLoad@?$CStringT@_WV?$StrTraitMFC@_WV?$ChTraitsCRT@_W@ATL@@@@@ATL@@AAE_NPBX@Z ; ATL::CStringT<wchar_t,StrTraitMFC<wchar_t,ATL::ChTraitsCRT<wchar_t> > >::CheckImplicitLoad
PUBLIC	??0?$CStringT@_WV?$StrTraitMFC@_WV?$ChTraitsCRT@_W@ATL@@@@@ATL@@QAE@ABV01@@Z ; ATL::CStringT<wchar_t,StrTraitMFC<wchar_t,ATL::ChTraitsCRT<wchar_t> > >::CStringT<wchar_t,StrTraitMFC<wchar_t,ATL::ChTraitsCRT<wchar_t> > >
PUBLIC	??0?$CSimpleStringT@_W$0A@@ATL@@QAE@ABV01@@Z	; ATL::CSimpleStringT<wchar_t,0>::CSimpleStringT<wchar_t,0>
PUBLIC	?CloneData@?$CSimpleStringT@_W$0A@@ATL@@CAPAUCStringData@2@PAU32@@Z ; ATL::CSimpleStringT<wchar_t,0>::CloneData
PUBLIC	?AddRef@CStringData@ATL@@QAEXXZ			; ATL::CStringData::AddRef
PUBLIC	?BeginModalState@CWnd@@UAEXXZ			; CWnd::BeginModalState
PUBLIC	?EndModalState@CWnd@@UAEXXZ			; CWnd::EndModalState
PUBLIC	?Create@CDialog@@UAEHIPAVCWnd@@@Z		; CDialog::Create
PUBLIC	?OnDropFiles@CAESDlg@@QAEXPAUHDROP__@@@Z	; CAESDlg::OnDropFiles
PUBLIC	?OnBnClickedRadio2@CAESDlg@@QAEXXZ		; CAESDlg::OnBnClickedRadio2
PUBLIC	?OnBnClickedRadio1@CAESDlg@@QAEXXZ		; CAESDlg::OnBnClickedRadio1
PUBLIC	?OnBnClickedCancel@CAESDlg@@QAEXXZ		; CAESDlg::OnBnClickedCancel
PUBLIC	?Affichage@CAESDlg@@QAEX_K@Z			; CAESDlg::Affichage
PUBLIC	??_GC_Decode_Interactif@@QAEPAXI@Z		; C_Decode_Interactif::`scalar deleting destructor'
PUBLIC	?__autoclassinit2@C_Decode_Interactif@@QAEXI@Z	; C_Decode_Interactif::__autoclassinit2
PUBLIC	??_GC_Encode_Interactif@@QAEPAXI@Z		; C_Encode_Interactif::`scalar deleting destructor'
PUBLIC	?__autoclassinit2@C_Encode_Interactif@@QAEXI@Z	; C_Encode_Interactif::__autoclassinit2
PUBLIC	?OnBnClickedOk@CAESDlg@@QAEXXZ			; CAESDlg::OnBnClickedOk
PUBLIC	?OnQueryDragIcon@CAESDlg@@IAEPAUHICON__@@XZ	; CAESDlg::OnQueryDragIcon
PUBLIC	?__autoclassinit2@CPaintDC@@QAEXI@Z		; CPaintDC::__autoclassinit2
PUBLIC	?OnPaint@CAESDlg@@IAEXXZ			; CAESDlg::OnPaint
PUBLIC	?ColorButton_1@CAESDlg@@IAEXH@Z			; CAESDlg::ColorButton_1
PUBLIC	?OnInitDialog@CAESDlg@@MAEHXZ			; CAESDlg::OnInitDialog
PUBLIC	?GetThisMessageMap@CAESDlg@@KGPBUAFX_MSGMAP@@XZ	; CAESDlg::GetThisMessageMap
PUBLIC	?GetMessageMap@CAESDlg@@MBEPBUAFX_MSGMAP@@XZ	; CAESDlg::GetMessageMap
PUBLIC	?DoDataExchange@CAESDlg@@MAEXPAVCDataExchange@@@Z ; CAESDlg::DoDataExchange
PUBLIC	??_GCAESDlg@@UAEPAXI@Z				; CAESDlg::`scalar deleting destructor'
PUBLIC	??0CAESDlg@@QAE@PAVCWnd@@@Z			; CAESDlg::CAESDlg
EXTRN	??_ECAESDlg@@UAEPAXI@Z:PROC			; CAESDlg::`vector deleting destructor'
;	COMDAT xdata$x
xdata$x	SEGMENT
__ehfuncinfo$??0CAESDlg@@QAE@PAVCWnd@@@Z DD 019930522H
	DD	08H
	DD	FLAT:__unwindtable$??0CAESDlg@@QAE@PAVCWnd@@@Z
	DD	2 DUP(00H)
	DD	2 DUP(00H)
	DD	00H
	DD	01H
__unwindtable$??0CAESDlg@@QAE@PAVCWnd@@@Z DD 0ffffffffH
	DD	FLAT:__unwindfunclet$??0CAESDlg@@QAE@PAVCWnd@@@Z$0
	DD	00H
	DD	FLAT:__unwindfunclet$??0CAESDlg@@QAE@PAVCWnd@@@Z$1
	DD	01H
	DD	FLAT:__unwindfunclet$??0CAESDlg@@QAE@PAVCWnd@@@Z$2
	DD	02H
	DD	FLAT:__unwindfunclet$??0CAESDlg@@QAE@PAVCWnd@@@Z$3
	DD	03H
	DD	FLAT:__unwindfunclet$??0CAESDlg@@QAE@PAVCWnd@@@Z$4
	DD	04H
	DD	FLAT:__unwindfunclet$??0CAESDlg@@QAE@PAVCWnd@@@Z$8
	DD	05H
	DD	FLAT:__unwindfunclet$??0CAESDlg@@QAE@PAVCWnd@@@Z$9
	DD	04H
	DD	FLAT:__unwindfunclet$??0CAESDlg@@QAE@PAVCWnd@@@Z$5
xdata$x	ENDS
;	COMDAT xdata$x
xdata$x	SEGMENT
__unwindtable$?ColorButton_1@CAESDlg@@IAEXH@Z DD 0ffffffffH
	DD	FLAT:__unwindfunclet$?ColorButton_1@CAESDlg@@IAEXH@Z$0
__ehfuncinfo$?ColorButton_1@CAESDlg@@IAEXH@Z DD 019930522H
	DD	01H
	DD	FLAT:__unwindtable$?ColorButton_1@CAESDlg@@IAEXH@Z
	DD	2 DUP(00H)
	DD	2 DUP(00H)
	DD	00H
	DD	01H
xdata$x	ENDS
;	COMDAT xdata$x
xdata$x	SEGMENT
__unwindtable$?OnBnClickedOk@CAESDlg@@QAEXXZ DD 0ffffffffH
	DD	FLAT:__unwindfunclet$?OnBnClickedOk@CAESDlg@@QAEXXZ$0
	DD	0ffffffffH
	DD	FLAT:__unwindfunclet$?OnBnClickedOk@CAESDlg@@QAEXXZ$1
__ehfuncinfo$?OnBnClickedOk@CAESDlg@@QAEXXZ DD 019930522H
	DD	02H
	DD	FLAT:__unwindtable$?OnBnClickedOk@CAESDlg@@QAEXXZ
	DD	2 DUP(00H)
	DD	2 DUP(00H)
	DD	00H
	DD	01H
xdata$x	ENDS
;	COMDAT xdata$x
xdata$x	SEGMENT
__unwindtable$?Affichage@CAESDlg@@QAEX_K@Z DD 0ffffffffH
	DD	FLAT:__unwindfunclet$?Affichage@CAESDlg@@QAEX_K@Z$1
	DD	0ffffffffH
	DD	FLAT:__unwindfunclet$?Affichage@CAESDlg@@QAEX_K@Z$0
__ehfuncinfo$?Affichage@CAESDlg@@QAEX_K@Z DD 019930522H
	DD	02H
	DD	FLAT:__unwindtable$?Affichage@CAESDlg@@QAEX_K@Z
	DD	2 DUP(00H)
	DD	2 DUP(00H)
	DD	00H
	DD	01H
xdata$x	ENDS
;	COMDAT xdata$x
xdata$x	SEGMENT
__unwindtable$?OnDropFiles@CAESDlg@@QAEXPAUHDROP__@@@Z DD 0ffffffffH
	DD	FLAT:__unwindfunclet$?OnDropFiles@CAESDlg@@QAEXPAUHDROP__@@@Z$0
	DD	0ffffffffH
	DD	FLAT:__unwindfunclet$?OnDropFiles@CAESDlg@@QAEXPAUHDROP__@@@Z$3
	DD	0ffffffffH
	DD	FLAT:__unwindfunclet$?OnDropFiles@CAESDlg@@QAEXPAUHDROP__@@@Z$1
__ehfuncinfo$?OnDropFiles@CAESDlg@@QAEXPAUHDROP__@@@Z DD 019930522H
	DD	03H
	DD	FLAT:__unwindtable$?OnDropFiles@CAESDlg@@QAEXPAUHDROP__@@@Z
	DD	2 DUP(00H)
	DD	2 DUP(00H)
	DD	00H
	DD	01H
xdata$x	ENDS
;	COMDAT xdata$x
xdata$x	SEGMENT
__unwindtable$??0?$CStringT@_WV?$StrTraitMFC@_WV?$ChTraitsCRT@_W@ATL@@@@@ATL@@QAE@PB_W@Z DD 0ffffffffH
	DD	FLAT:__unwindfunclet$??0?$CStringT@_WV?$StrTraitMFC@_WV?$ChTraitsCRT@_W@ATL@@@@@ATL@@QAE@PB_W@Z$0
__ehfuncinfo$??0?$CStringT@_WV?$StrTraitMFC@_WV?$ChTraitsCRT@_W@ATL@@@@@ATL@@QAE@PB_W@Z DD 019930522H
	DD	01H
	DD	FLAT:__unwindtable$??0?$CStringT@_WV?$StrTraitMFC@_WV?$ChTraitsCRT@_W@ATL@@@@@ATL@@QAE@PB_W@Z
	DD	2 DUP(00H)
	DD	2 DUP(00H)
	DD	00H
	DD	01H
; Function compile flags: /Ogtp
; File I:\Projets\AES\AES\AES\AESDlg.cpp
; File I:\Projets\AES\AES\AES\AESDlg.h
; File C:\Program Files (x86)\Microsoft Visual Studio\2019\Enterprise\VC\Tools\MSVC\14.23.28105\atlmfc\include\afxstr.h
; File C:\Program Files (x86)\Microsoft Visual Studio\2019\Enterprise\VC\Tools\MSVC\14.23.28105\atlmfc\include\atlsimpstr.h
; File I:\Projets\AES\AES\AES\AESDlg.cpp
; File C:\Program Files (x86)\Microsoft Visual Studio\2019\Enterprise\VC\Tools\MSVC\14.23.28105\atlmfc\include\afxwin2.inl
; File I:\Projets\AES\AES\AES\AESDlg.cpp
; File C:\Program Files (x86)\Microsoft Visual Studio\2019\Enterprise\VC\Tools\MSVC\14.23.28105\atlmfc\include\afxwin2.inl
; File I:\Projets\AES\AES\AES\MyButton.cpp
; File I:\Projets\AES\AES\AES\MyButton.h
; File I:\Projets\AES\AES\AES\AESDlg.cpp
; File C:\Program Files (x86)\Microsoft Visual Studio\2019\Enterprise\VC\Tools\MSVC\14.23.28105\atlmfc\include\afxwin2.inl
; File I:\Projets\AES\AES\AES\AESDlg.cpp
; File C:\Program Files (x86)\Microsoft Visual Studio\2019\Enterprise\VC\Tools\MSVC\14.23.28105\atlmfc\include\afxwin2.inl
; File I:\Projets\AES\AES\AES\ColorStatic.cpp
; File C:\Program Files (x86)\Microsoft Visual Studio\2019\Enterprise\VC\Tools\MSVC\14.23.28105\atlmfc\include\afxwin1.inl
; File I:\Projets\AES\AES\AES\ColorStatic.cpp
; File C:\Program Files (x86)\Microsoft Visual Studio\2019\Enterprise\VC\Tools\MSVC\14.23.28105\atlmfc\include\afxwin1.inl
; File I:\Projets\AES\AES\AES\ColorStatic.cpp
; File C:\Program Files (x86)\Microsoft Visual Studio\2019\Enterprise\VC\Tools\MSVC\14.23.28105\atlmfc\include\afxwin1.inl
; File I:\Projets\AES\AES\AES\AESDlg.cpp
; File C:\Program Files (x86)\Microsoft Visual Studio\2019\Enterprise\VC\Tools\MSVC\14.23.28105\atlmfc\include\afxwin1.inl
; File C:\Program Files (x86)\Microsoft Visual Studio\2019\Enterprise\VC\Tools\MSVC\14.23.28105\atlmfc\include\afxwin2.inl
; File C:\Program Files (x86)\Microsoft Visual Studio\2019\Enterprise\VC\Tools\MSVC\14.23.28105\atlmfc\include\afxwin1.inl
; File C:\Program Files (x86)\Microsoft Visual Studio\2019\Enterprise\VC\Tools\MSVC\14.23.28105\atlmfc\include\afxwin2.inl
; File I:\Projets\AES\AES\AES\AESDlg.cpp
; File C:\Program Files (x86)\Microsoft Visual Studio\2019\Enterprise\VC\Tools\MSVC\14.23.28105\atlmfc\include\atlsimpstr.h
; File I:\Projets\AES\AES\AES\AESDlg.cpp
;	COMDAT ??0CAESDlg@@QAE@PAVCWnd@@@Z
_TEXT	SEGMENT
_this$ = -20						; size = 4
_this$ = -20						; size = 4
_this$ = -16						; size = 4
__$EHRec$ = -12						; size = 12
_pParent$dead$ = 8					; size = 4
??0CAESDlg@@QAE@PAVCWnd@@@Z PROC			; CAESDlg::CAESDlg, COMDAT
; _this$ = ecx

; 29   : {

	push	ebp
	mov	ebp, esp
	push	-1
	push	__ehhandler$??0CAESDlg@@QAE@PAVCWnd@@@Z
	mov	eax, DWORD PTR fs:0
	push	eax
	sub	esp, 8
	push	ebx
	push	esi
	push	edi
	mov	eax, DWORD PTR ___security_cookie
	xor	eax, ebp
	push	eax
	lea	eax, DWORD PTR __$EHRec$[ebp]
	mov	DWORD PTR fs:0, eax
	mov	ebx, ecx
	mov	DWORD PTR _this$[ebp], ebx

; 28   : 	: CDialogEx(CAESDlg::IDD, pParent)

	push	0
	push	102					; 00000066H
	call	??0CDialogEx@@QAE@IPAVCWnd@@@Z		; CDialogEx::CDialogEx
	mov	DWORD PTR __$EHRec$[ebp+8], 0

; 29   : {

	mov	DWORD PTR [ebx], OFFSET ??_7CAESDlg@@6B@
; File I:\Projets\AES\AES\AES\AESDlg.h

; 30   : 	int   Ordre = _Encode;

	mov	DWORD PTR [ebx+212], 0
; File C:\Program Files (x86)\Microsoft Visual Studio\2019\Enterprise\VC\Tools\MSVC\14.23.28105\atlmfc\include\afxstr.h

; 52   : 		return( AfxGetStringManager() );

	call	?AfxGetStringManager@@YGPAUIAtlStringMgr@ATL@@XZ ; AfxGetStringManager
	mov	ecx, eax
; File C:\Program Files (x86)\Microsoft Visual Studio\2019\Enterprise\VC\Tools\MSVC\14.23.28105\atlmfc\include\atlsimpstr.h

; 205  : 		ATLENSURE( pStringMgr != NULL );

	test	ecx, ecx
	je	$LN56@CAESDlg

; 206  : 		CStringData* pData = pStringMgr->GetNilString();

	mov	eax, DWORD PTR [ecx]
	call	DWORD PTR [eax+12]

; 59   : 		return (this+1);

	add	eax, 16					; 00000010H

; 780  : 		m_pszData = static_cast< PXSTR >( pData->data() );

	mov	DWORD PTR [ebx+216], eax
; File I:\Projets\AES\AES\AES\AESDlg.cpp

; 29   : {

	lea	esi, DWORD PTR [ebx+232]
	mov	BYTE PTR __$EHRec$[ebp+8], 1
; File C:\Program Files (x86)\Microsoft Visual Studio\2019\Enterprise\VC\Tools\MSVC\14.23.28105\atlmfc\include\afxwin2.inl

; 622  : 	{ }

	mov	ecx, esi
; File I:\Projets\AES\AES\AES\AESDlg.cpp

; 29   : {

	mov	DWORD PTR _this$[ebp], esi
; File C:\Program Files (x86)\Microsoft Visual Studio\2019\Enterprise\VC\Tools\MSVC\14.23.28105\atlmfc\include\afxwin2.inl

; 622  : 	{ }

	call	??0CWnd@@QAE@XZ				; CWnd::CWnd
; File I:\Projets\AES\AES\AES\MyButton.cpp

; 6    : {

	mov	DWORD PTR [esi], OFFSET ??_7CMyButton@@6B@
; File I:\Projets\AES\AES\AES\MyButton.h

; 19   : 	COLORREF  m_color = 0;

	mov	DWORD PTR [esi+128], 0

; 20   : 	COLORREF  m_Bkcolor= 0;

	mov	DWORD PTR [esi+132], 0

; 21   : 	bool m_bOverControl = false;

	mov	BYTE PTR [esi+136], 0
; File I:\Projets\AES\AES\AES\AESDlg.cpp

; 29   : {

	lea	ecx, DWORD PTR [ebx+376]
	mov	BYTE PTR __$EHRec$[ebp+8], 2
	call	??0CColorRadioButton@@QAE@XZ		; CColorRadioButton::CColorRadioButton
	lea	ecx, DWORD PTR [ebx+536]
	mov	BYTE PTR __$EHRec$[ebp+8], 3
	call	??0CColorRadioButton@@QAE@XZ		; CColorRadioButton::CColorRadioButton
	lea	edi, DWORD PTR [ebx+696]
	mov	BYTE PTR __$EHRec$[ebp+8], 4
; File C:\Program Files (x86)\Microsoft Visual Studio\2019\Enterprise\VC\Tools\MSVC\14.23.28105\atlmfc\include\afxwin2.inl

; 603  : 	{ }

	mov	ecx, edi
; File I:\Projets\AES\AES\AES\AESDlg.cpp

; 29   : {

	mov	DWORD PTR _this$[ebp], edi
; File C:\Program Files (x86)\Microsoft Visual Studio\2019\Enterprise\VC\Tools\MSVC\14.23.28105\atlmfc\include\afxwin2.inl

; 603  : 	{ }

	call	??0CWnd@@QAE@XZ				; CWnd::CWnd
; File I:\Projets\AES\AES\AES\ColorStatic.cpp

; 39   : {

	mov	DWORD PTR [edi], OFFSET ??_7CColorStatic@@6B@
; File C:\Program Files (x86)\Microsoft Visual Studio\2019\Enterprise\VC\Tools\MSVC\14.23.28105\atlmfc\include\afxwin1.inl

; 70   : 	{ m_hObject = NULL; }

	mov	DWORD PTR [edi+132], 0

; 128  : 	{ }

	mov	DWORD PTR [edi+128], OFFSET ??_7CBrush@@6B@
; File I:\Projets\AES\AES\AES\ColorStatic.cpp

; 40   : 	m_crBkColor = ::GetSysColor(COLOR_3DFACE); // Initializing the Background Color to the system face color.

	push	15					; 0000000fH
	mov	BYTE PTR __$EHRec$[ebp+8], 6
	call	DWORD PTR __imp__GetSysColor@4
; File C:\Program Files (x86)\Microsoft Visual Studio\2019\Enterprise\VC\Tools\MSVC\14.23.28105\atlmfc\include\afxwin1.inl

; 132  : 	{ return Attach(::CreateSolidBrush(crColor)); }

	push	eax
; File I:\Projets\AES\AES\AES\ColorStatic.cpp

; 40   : 	m_crBkColor = ::GetSysColor(COLOR_3DFACE); // Initializing the Background Color to the system face color.

	mov	DWORD PTR [edi+136], eax

; 41   : 	m_crTextColor = BLACK; // Initializing the text to Black

	mov	DWORD PTR [edi+140], 0
; File C:\Program Files (x86)\Microsoft Visual Studio\2019\Enterprise\VC\Tools\MSVC\14.23.28105\atlmfc\include\afxwin1.inl

; 132  : 	{ return Attach(::CreateSolidBrush(crColor)); }

	call	DWORD PTR __imp__CreateSolidBrush@4
	push	eax
	lea	ecx, DWORD PTR [edi+128]
	call	?Attach@CGdiObject@@QAEHPAX@Z		; CGdiObject::Attach
; File I:\Projets\AES\AES\AES\AESDlg.cpp

; 29   : {

	mov	BYTE PTR __$EHRec$[ebp+8], 7
; File C:\Program Files (x86)\Microsoft Visual Studio\2019\Enterprise\VC\Tools\MSVC\14.23.28105\atlmfc\include\afxwin1.inl

; 19   : 	{ return afxCurrentWinApp; }

	call	?AfxGetModuleState@@YGPAVAFX_MODULE_STATE@@XZ ; AfxGetModuleState

; 25   : 		return afxCurrentResourceHandle; }

	call	?AfxGetModuleState@@YGPAVAFX_MODULE_STATE@@XZ ; AfxGetModuleState
; File C:\Program Files (x86)\Microsoft Visual Studio\2019\Enterprise\VC\Tools\MSVC\14.23.28105\atlmfc\include\afxwin2.inl

; 1054 : 	{ return ::LoadIconW(AfxFindResourceHandle(ATL_MAKEINTRESOURCE(nIDResource),

	push	128					; 00000080H
; File C:\Program Files (x86)\Microsoft Visual Studio\2019\Enterprise\VC\Tools\MSVC\14.23.28105\atlmfc\include\afxwin1.inl

; 25   : 		return afxCurrentResourceHandle; }

	mov	eax, DWORD PTR [eax+12]
; File C:\Program Files (x86)\Microsoft Visual Studio\2019\Enterprise\VC\Tools\MSVC\14.23.28105\atlmfc\include\afxwin2.inl

; 1054 : 	{ return ::LoadIconW(AfxFindResourceHandle(ATL_MAKEINTRESOURCE(nIDResource),

	push	eax
	call	DWORD PTR __imp__LoadIconW@8
; File I:\Projets\AES\AES\AES\AESDlg.cpp

; 30   : 	m_hIcon = AfxGetApp()->LoadIcon(IDR_MAINFRAME);

	mov	DWORD PTR [ebx+208], eax

; 31   : }

	mov	eax, ebx
	mov	ecx, DWORD PTR __$EHRec$[ebp]
	mov	DWORD PTR fs:0, ecx
	pop	ecx
	pop	edi
	pop	esi
	pop	ebx
	mov	esp, ebp
	pop	ebp
	ret	4
$LN56@CAESDlg:
; File C:\Program Files (x86)\Microsoft Visual Studio\2019\Enterprise\VC\Tools\MSVC\14.23.28105\atlmfc\include\atlsimpstr.h

; 205  : 		ATLENSURE( pStringMgr != NULL );

	push	-2147467259				; 80004005H
	call	?AtlThrowImpl@ATL@@YGXJ@Z		; ATL::AtlThrowImpl
$LN54@CAESDlg:
	int	3
_TEXT	ENDS
;	COMDAT text$x
text$x	SEGMENT
__unwindfunclet$??0CAESDlg@@QAE@PAVCWnd@@@Z$0:
	mov	ecx, DWORD PTR _this$[ebp]
	jmp	??1CDialogEx@@UAE@XZ
__unwindfunclet$??0CAESDlg@@QAE@PAVCWnd@@@Z$1:
	mov	ecx, DWORD PTR _this$[ebp]
	add	ecx, 216				; 000000d8H
	jmp	??1?$CStringT@_WV?$StrTraitMFC@_WV?$ChTraitsCRT@_W@ATL@@@@@ATL@@QAE@XZ ; ATL::CStringT<wchar_t,StrTraitMFC<wchar_t,ATL::ChTraitsCRT<wchar_t> > >::~CStringT<wchar_t,StrTraitMFC<wchar_t,ATL::ChTraitsCRT<wchar_t> > >
__unwindfunclet$??0CAESDlg@@QAE@PAVCWnd@@@Z$2:
	mov	ecx, DWORD PTR _this$[ebp]
	add	ecx, 232				; 000000e8H
	jmp	??1CMyButton@@UAE@XZ			; CMyButton::~CMyButton
__unwindfunclet$??0CAESDlg@@QAE@PAVCWnd@@@Z$3:
	mov	ecx, DWORD PTR _this$[ebp]
	add	ecx, 376				; 00000178H
	jmp	??1CColorRadioButton@@UAE@XZ		; CColorRadioButton::~CColorRadioButton
__unwindfunclet$??0CAESDlg@@QAE@PAVCWnd@@@Z$4:
	mov	ecx, DWORD PTR _this$[ebp]
	add	ecx, 536				; 00000218H
	jmp	??1CColorRadioButton@@UAE@XZ		; CColorRadioButton::~CColorRadioButton
__unwindfunclet$??0CAESDlg@@QAE@PAVCWnd@@@Z$8:
	mov	ecx, DWORD PTR _this$[ebp]
	jmp	??1CStatic@@UAE@XZ			; CStatic::~CStatic
__unwindfunclet$??0CAESDlg@@QAE@PAVCWnd@@@Z$9:
	mov	ecx, DWORD PTR _this$[ebp]
	add	ecx, 128				; 00000080H
	jmp	??1CBrush@@UAE@XZ			; CBrush::~CBrush
__unwindfunclet$??0CAESDlg@@QAE@PAVCWnd@@@Z$5:
	mov	ecx, DWORD PTR _this$[ebp]
	add	ecx, 696				; 000002b8H
	jmp	??1CColorStatic@@UAE@XZ			; CColorStatic::~CColorStatic
__ehhandler$??0CAESDlg@@QAE@PAVCWnd@@@Z:
	mov	edx, DWORD PTR [esp+8]
	lea	eax, DWORD PTR [edx+12]
	mov	ecx, DWORD PTR [edx-24]
	xor	ecx, eax
	call	@__security_check_cookie@4
	mov	eax, OFFSET __ehfuncinfo$??0CAESDlg@@QAE@PAVCWnd@@@Z
	jmp	___CxxFrameHandler3
text$x	ENDS
??0CAESDlg@@QAE@PAVCWnd@@@Z ENDP			; CAESDlg::CAESDlg
; Function compile flags: /Ogtp
; File C:\Program Files (x86)\Microsoft Visual Studio\2019\Enterprise\VC\Tools\MSVC\14.23.28105\atlmfc\include\afx.inl
;	COMDAT ??_GCAESDlg@@UAEPAXI@Z
_TEXT	SEGMENT
___flags$ = 8						; size = 4
??_GCAESDlg@@UAEPAXI@Z PROC				; CAESDlg::`scalar deleting destructor', COMDAT
; _this$ = ecx
	push	ebp
	mov	ebp, esp
	push	esi
	mov	esi, ecx
	call	??1CAESDlg@@UAE@XZ
	mov	eax, DWORD PTR ___flags$[ebp]
	test	al, 1
	je	SHORT $LN9@scalar
	test	al, 4
	jne	SHORT $LN3@scalar

; 102  : 	{ ::operator delete(p); }

	push	esi
	call	??3@YAXPAX@Z				; operator delete
	add	esp, 4
	mov	eax, esi
	pop	esi
	pop	ebp
	ret	4
$LN3@scalar:
	push	840					; 00000348H
	push	esi
	call	?__global_delete@@YAXPAXI@Z		; __global_delete
	add	esp, 8
$LN9@scalar:
	mov	eax, esi
	pop	esi
	pop	ebp
	ret	4
??_GCAESDlg@@UAEPAXI@Z ENDP				; CAESDlg::`scalar deleting destructor'
_TEXT	ENDS
; Function compile flags: /Ogtp
; File I:\Projets\AES\AES\AES\AESDlg.cpp
;	COMDAT ?DoDataExchange@CAESDlg@@MAEXPAVCDataExchange@@@Z
_TEXT	SEGMENT
_pDX$ = 8						; size = 4
?DoDataExchange@CAESDlg@@MAEXPAVCDataExchange@@@Z PROC	; CAESDlg::DoDataExchange, COMDAT
; _this$ = ecx

; 35   : 	CDialogEx::DoDataExchange(pDX);
; 36   : }

	ret	4
?DoDataExchange@CAESDlg@@MAEXPAVCDataExchange@@@Z ENDP	; CAESDlg::DoDataExchange
_TEXT	ENDS
; Function compile flags: /Ogtp
; File I:\Projets\AES\AES\AES\AESDlg.cpp
;	COMDAT ?GetMessageMap@CAESDlg@@MBEPBUAFX_MSGMAP@@XZ
_TEXT	SEGMENT
?GetMessageMap@CAESDlg@@MBEPBUAFX_MSGMAP@@XZ PROC	; CAESDlg::GetMessageMap, COMDAT
; _this$ = ecx

; 38   : BEGIN_MESSAGE_MAP(CAESDlg, CDialogEx)

	mov	eax, OFFSET ?messageMap@?1??GetThisMessageMap@CAESDlg@@KGPBUAFX_MSGMAP@@XZ@4U3@B
	ret	0
?GetMessageMap@CAESDlg@@MBEPBUAFX_MSGMAP@@XZ ENDP	; CAESDlg::GetMessageMap
_TEXT	ENDS
; Function compile flags: /Ogtp
; File I:\Projets\AES\AES\AES\AESDlg.cpp
;	COMDAT ?GetThisMessageMap@CAESDlg@@KGPBUAFX_MSGMAP@@XZ
_TEXT	SEGMENT
?GetThisMessageMap@CAESDlg@@KGPBUAFX_MSGMAP@@XZ PROC	; CAESDlg::GetThisMessageMap, COMDAT

; 39   : 	ON_WM_PAINT()
; 40   : 	ON_WM_QUERYDRAGICON()
; 41   : 	ON_BN_CLICKED(IDOK, &CAESDlg::OnBnClickedOk)
; 42   : 	ON_BN_CLICKED(IDCANCEL, &CAESDlg::OnBnClickedCancel)
; 43   : 	ON_BN_CLICKED(IDC_RADIO1, &CAESDlg::OnBnClickedRadio1)
; 44   : 	ON_BN_CLICKED(IDC_RADIO2, &CAESDlg::OnBnClickedRadio2)
; 45   : 	ON_WM_DROPFILES()
; 46   : END_MESSAGE_MAP()

	mov	eax, OFFSET ?messageMap@?1??GetThisMessageMap@CAESDlg@@KGPBUAFX_MSGMAP@@XZ@4U3@B
	ret	0
?GetThisMessageMap@CAESDlg@@KGPBUAFX_MSGMAP@@XZ ENDP	; CAESDlg::GetThisMessageMap
_TEXT	ENDS
; Function compile flags: /Ogtp
; File I:\Projets\AES\AES\AES\AESDlg.cpp
; File C:\Program Files (x86)\Microsoft Visual Studio\2019\Enterprise\VC\Tools\MSVC\14.23.28105\atlmfc\include\afxwin2.inl
; File I:\Projets\AES\AES\AES\AESDlg.cpp
; File C:\Program Files (x86)\Microsoft Visual Studio\2019\Enterprise\VC\Tools\MSVC\14.23.28105\atlmfc\include\afxwin2.inl
; File I:\Projets\AES\AES\AES\AESDlg.cpp
; File I:\Projets\AES\AES\AES\MyButton.cpp
; File I:\Projets\AES\AES\AES\AESDlg.cpp
; File C:\Program Files (x86)\Microsoft Visual Studio\2019\Enterprise\VC\Tools\MSVC\14.23.28105\atlmfc\include\afxwin2.inl
; File I:\Projets\AES\AES\AES\ColorRadioButton.cpp
; File C:\Program Files (x86)\Microsoft Visual Studio\2019\Enterprise\VC\Tools\MSVC\14.23.28105\atlmfc\include\afxwin2.inl
; File I:\Projets\AES\AES\AES\ColorRadioButton.cpp
; File C:\Program Files (x86)\Microsoft Visual Studio\2019\Enterprise\VC\Tools\MSVC\14.23.28105\atlmfc\include\afxwin2.inl
; File I:\Projets\AES\AES\AES\AESDlg.cpp
; File C:\Program Files (x86)\Microsoft Visual Studio\2019\Enterprise\VC\Tools\MSVC\14.23.28105\atlmfc\include\afxwin2.inl
; File I:\Projets\AES\AES\AES\ColorRadioButton.cpp
; File C:\Program Files (x86)\Microsoft Visual Studio\2019\Enterprise\VC\Tools\MSVC\14.23.28105\atlmfc\include\afxwin2.inl
; File I:\Projets\AES\AES\AES\ColorRadioButton.cpp
; File C:\Program Files (x86)\Microsoft Visual Studio\2019\Enterprise\VC\Tools\MSVC\14.23.28105\atlmfc\include\afxwin2.inl
; File I:\Projets\AES\AES\AES\AESDlg.cpp
;	COMDAT ?OnInitDialog@CAESDlg@@MAEHXZ
_TEXT	SEGMENT
?OnInitDialog@CAESDlg@@MAEHXZ PROC			; CAESDlg::OnInitDialog, COMDAT
; _this$ = ecx

; 52   : {

	push	ebp
	mov	ebp, esp
	and	esp, -8					; fffffff8H
	push	esi
	push	edi
	mov	edi, ecx

; 53   : 	CDialogEx::OnInitDialog();

	call	?OnInitDialog@CDialog@@UAEHXZ		; CDialog::OnInitDialog
; File C:\Program Files (x86)\Microsoft Visual Studio\2019\Enterprise\VC\Tools\MSVC\14.23.28105\atlmfc\include\afxwin2.inl

; 262  : 	{ ASSERT(::IsWindow(m_hWnd)); return (HICON)::SendMessage(m_hWnd, WM_SETICON, bBigIcon, (LPARAM)hIcon); }

	push	DWORD PTR [edi+208]
	mov	esi, DWORD PTR __imp__SendMessageW@16
	push	1
	push	128					; 00000080H
	push	DWORD PTR [edi+32]
	call	esi
	push	DWORD PTR [edi+208]
	push	0
	push	128					; 00000080H
	push	DWORD PTR [edi+32]
	call	esi
; File I:\Projets\AES\AES\AES\AESDlg.cpp

; 59   : 	ChangeWindowMessageFilter(WM_DROPFILES, MSGFLT_ADD);

	push	1
	push	563					; 00000233H
	call	DWORD PTR __imp__ChangeWindowMessageFilter@8
; File C:\Program Files (x86)\Microsoft Visual Studio\2019\Enterprise\VC\Tools\MSVC\14.23.28105\atlmfc\include\afxwin2.inl

; 48   : 	{ ASSERT(::IsWindow(m_hWnd)); ::DragAcceptFiles(m_hWnd, bAccept); }

	push	1
	push	DWORD PTR [edi+32]
	call	DWORD PTR __imp__DragAcceptFiles@8
; File I:\Projets\AES\AES\AES\AESDlg.cpp

; 65   : 	m_text.SubclassDlgItem(IDC_STATIC, this);

	push	edi
	push	-1
	lea	ecx, DWORD PTR [edi+696]
	mov	DWORD PTR [edi+212], 0
	call	?SubclassDlgItem@CWnd@@QAEHIPAV1@@Z	; CWnd::SubclassDlgItem

; 69   : 	m_chk.SubclassDlgItem(IDOK, this);

	push	edi
	push	1
	lea	ecx, DWORD PTR [edi+232]
; File I:\Projets\AES\AES\AES\MyButton.cpp

; 18   : 	m_color = valeur;

	mov	DWORD PTR [edi+360], 32512		; 00007f00H
; File I:\Projets\AES\AES\AES\AESDlg.cpp

; 69   : 	m_chk.SubclassDlgItem(IDOK, this);

	call	?SubclassDlgItem@CWnd@@QAEHIPAV1@@Z	; CWnd::SubclassDlgItem

; 70   : 
; 71   : 	m_radio_0.SubclassDlgItem(IDC_RADIO1, this);

	push	edi
	push	1000					; 000003e8H
	lea	ecx, DWORD PTR [edi+376]
	call	?SubclassDlgItem@CWnd@@QAEHIPAV1@@Z	; CWnd::SubclassDlgItem
; File C:\Program Files (x86)\Microsoft Visual Studio\2019\Enterprise\VC\Tools\MSVC\14.23.28105\atlmfc\include\afxwin2.inl

; 142  : 	{ ASSERT(::IsWindow(m_hWnd)); return ::RedrawWindow(m_hWnd, lpRectUpdate, (HRGN)prgnUpdate->GetSafeHandle(), flags); }

	mov	esi, DWORD PTR __imp__RedrawWindow@16
	push	261					; 00000105H
	push	0
	push	0
	push	DWORD PTR [edi+408]
; File I:\Projets\AES\AES\AES\ColorRadioButton.cpp

; 84   : 	m_crTextColor = crColor; 

	mov	DWORD PTR [edi+520], 32512		; 00007f00H
; File C:\Program Files (x86)\Microsoft Visual Studio\2019\Enterprise\VC\Tools\MSVC\14.23.28105\atlmfc\include\afxwin2.inl

; 142  : 	{ ASSERT(::IsWindow(m_hWnd)); return ::RedrawWindow(m_hWnd, lpRectUpdate, (HRGN)prgnUpdate->GetSafeHandle(), flags); }

	call	esi
	push	261					; 00000105H
	push	0
	push	0
	push	DWORD PTR [edi+408]
; File I:\Projets\AES\AES\AES\ColorRadioButton.cpp

; 90   : 	m_rb1Checked = Value;

	mov	DWORD PTR [edi+524], 1
; File C:\Program Files (x86)\Microsoft Visual Studio\2019\Enterprise\VC\Tools\MSVC\14.23.28105\atlmfc\include\afxwin2.inl

; 142  : 	{ ASSERT(::IsWindow(m_hWnd)); return ::RedrawWindow(m_hWnd, lpRectUpdate, (HRGN)prgnUpdate->GetSafeHandle(), flags); }

	call	esi
; File I:\Projets\AES\AES\AES\AESDlg.cpp

; 75   : 	m_radio_1.SubclassDlgItem(IDC_RADIO2, this);

	push	edi
	push	1001					; 000003e9H
	lea	ecx, DWORD PTR [edi+536]
	call	?SubclassDlgItem@CWnd@@QAEHIPAV1@@Z	; CWnd::SubclassDlgItem
; File C:\Program Files (x86)\Microsoft Visual Studio\2019\Enterprise\VC\Tools\MSVC\14.23.28105\atlmfc\include\afxwin2.inl

; 142  : 	{ ASSERT(::IsWindow(m_hWnd)); return ::RedrawWindow(m_hWnd, lpRectUpdate, (HRGN)prgnUpdate->GetSafeHandle(), flags); }

	push	261					; 00000105H
	push	0
	push	0
	push	DWORD PTR [edi+568]
; File I:\Projets\AES\AES\AES\ColorRadioButton.cpp

; 84   : 	m_crTextColor = crColor; 

	mov	DWORD PTR [edi+680], 127		; 0000007fH
; File C:\Program Files (x86)\Microsoft Visual Studio\2019\Enterprise\VC\Tools\MSVC\14.23.28105\atlmfc\include\afxwin2.inl

; 142  : 	{ ASSERT(::IsWindow(m_hWnd)); return ::RedrawWindow(m_hWnd, lpRectUpdate, (HRGN)prgnUpdate->GetSafeHandle(), flags); }

	call	esi
	push	261					; 00000105H
	push	0
	push	0
	push	DWORD PTR [edi+568]
; File I:\Projets\AES\AES\AES\ColorRadioButton.cpp

; 90   : 	m_rb1Checked = Value;

	mov	DWORD PTR [edi+684], 0
; File C:\Program Files (x86)\Microsoft Visual Studio\2019\Enterprise\VC\Tools\MSVC\14.23.28105\atlmfc\include\afxwin2.inl

; 142  : 	{ ASSERT(::IsWindow(m_hWnd)); return ::RedrawWindow(m_hWnd, lpRectUpdate, (HRGN)prgnUpdate->GetSafeHandle(), flags); }

	call	esi
; File I:\Projets\AES\AES\AES\AESDlg.cpp

; 79   : 	ColorButton_1(Ordre);

	push	DWORD PTR [edi+212]
	mov	ecx, edi
	call	?ColorButton_1@CAESDlg@@IAEXH@Z		; CAESDlg::ColorButton_1

; 80   : 	Calcul = 0;
; 81   : 	Affichage(Calcul);

	push	0
	push	0
	mov	ecx, edi
	mov	DWORD PTR [edi+224], 0
	mov	DWORD PTR [edi+228], 0
	call	?Affichage@CAESDlg@@QAEX_K@Z		; CAESDlg::Affichage

; 82   : 
; 83   : 	return TRUE;  // retourne TRUE, sauf si vous avez défini le focus sur un contrôle
; 84   : }

	pop	edi
	mov	eax, 1
	pop	esi
	mov	esp, ebp
	pop	ebp
	ret	0
?OnInitDialog@CAESDlg@@MAEHXZ ENDP			; CAESDlg::OnInitDialog
_TEXT	ENDS
; Function compile flags: /Ogtp
; File I:\Projets\AES\AES\AES\AESDlg.cpp
; File C:\Program Files (x86)\Microsoft Visual Studio\2019\Enterprise\VC\Tools\MSVC\14.23.28105\atlmfc\include\afxstr.h
; File C:\Program Files (x86)\Microsoft Visual Studio\2019\Enterprise\VC\Tools\MSVC\14.23.28105\atlmfc\include\atlsimpstr.h
; File I:\Projets\AES\AES\AES\AESDlg.cpp
; File C:\Program Files (x86)\Microsoft Visual Studio\2019\Enterprise\VC\Tools\MSVC\14.23.28105\atlmfc\include\atlsimpstr.h
; File I:\Projets\AES\AES\AES\AESDlg.cpp
; File C:\Program Files (x86)\Microsoft Visual Studio\2019\Enterprise\VC\Tools\MSVC\14.23.28105\atlmfc\include\atlsimpstr.h
; File I:\Projets\AES\AES\AES\AESDlg.cpp
;	COMDAT ?ColorButton_1@CAESDlg@@IAEXH@Z
_TEXT	SEGMENT
_Mess$ = -20						; size = 4
__$ArrayPad$ = -16					; size = 4
__$EHRec$ = -12						; size = 12
_LOrdre$ = 8						; size = 4
?ColorButton_1@CAESDlg@@IAEXH@Z PROC			; CAESDlg::ColorButton_1, COMDAT
; _this$ = ecx

; 87   : {

	push	ebp
	mov	ebp, esp
	push	-1
	push	__ehhandler$?ColorButton_1@CAESDlg@@IAEXH@Z
	mov	eax, DWORD PTR fs:0
	push	eax
	sub	esp, 8
	mov	eax, DWORD PTR ___security_cookie
	xor	eax, ebp
	mov	DWORD PTR __$ArrayPad$[ebp], eax
	push	esi
	push	edi
	push	eax
	lea	eax, DWORD PTR __$EHRec$[ebp]
	mov	DWORD PTR fs:0, eax
	mov	edi, ecx
; File C:\Program Files (x86)\Microsoft Visual Studio\2019\Enterprise\VC\Tools\MSVC\14.23.28105\atlmfc\include\afxstr.h

; 52   : 		return( AfxGetStringManager() );

	call	?AfxGetStringManager@@YGPAUIAtlStringMgr@ATL@@XZ ; AfxGetStringManager
	mov	ecx, eax
; File C:\Program Files (x86)\Microsoft Visual Studio\2019\Enterprise\VC\Tools\MSVC\14.23.28105\atlmfc\include\atlsimpstr.h

; 205  : 		ATLENSURE( pStringMgr != NULL );

	test	ecx, ecx
	je	$LN45@ColorButto

; 206  : 		CStringData* pData = pStringMgr->GetNilString();

	mov	eax, DWORD PTR [ecx]
	call	DWORD PTR [eax+12]

; 59   : 		return (this+1);

	add	eax, 16					; 00000010H

; 780  : 		m_pszData = static_cast< PXSTR >( pData->data() );

	mov	DWORD PTR _Mess$[ebp], eax
; File I:\Projets\AES\AES\AES\AESDlg.cpp

; 101  : 	SetDlgItemText(IDOK, Mess);

	mov	edx, DWORD PTR _LOrdre$[ebp]
	xor	ecx, ecx
	test	edx, edx
	mov	DWORD PTR __$EHRec$[ebp+8], 0
	mov	eax, 32512				; 00007f00H
	mov	esi, 127				; 0000007fH
	setne	cl
	add	ecx, 180				; 000000b4H
	test	edx, edx
	push	ecx
	cmovne	eax, esi
	lea	ecx, DWORD PTR _Mess$[ebp]
	mov	DWORD PTR [edi+360], eax
	call	?LoadStringW@?$CStringT@_WV?$StrTraitMFC@_WV?$ChTraitsCRT@_W@ATL@@@@@ATL@@QAEHI@Z ; ATL::CStringT<wchar_t,StrTraitMFC<wchar_t,ATL::ChTraitsCRT<wchar_t> > >::LoadStringW
	mov	esi, DWORD PTR _Mess$[ebp]
	mov	ecx, edi
	push	esi
	push	1
	call	?SetDlgItemTextW@CWnd@@QAEXHPB_W@Z	; CWnd::SetDlgItemTextW

; 102  : }

	mov	DWORD PTR __$EHRec$[ebp+8], -1
; File C:\Program Files (x86)\Microsoft Visual Studio\2019\Enterprise\VC\Tools\MSVC\14.23.28105\atlmfc\include\atlsimpstr.h

; 800  : 		return( reinterpret_cast< CStringData* >( m_pszData )-1 );

	add	esi, -16				; fffffff0H

; 88   : 		if( _InterlockedDecrement( &nRefs ) <= 0 )

	or	eax, -1
	lock	 xadd	 DWORD PTR [esi+12], eax
	dec	eax
	test	eax, eax
	jg	SHORT $LN40@ColorButto

; 89   : 		{
; 90   : 			pStringMgr->Free( this );

	mov	ecx, DWORD PTR [esi]
	push	esi
	mov	eax, DWORD PTR [ecx]
	call	DWORD PTR [eax+4]
$LN40@ColorButto:
; File I:\Projets\AES\AES\AES\AESDlg.cpp

; 102  : }

	mov	ecx, DWORD PTR __$EHRec$[ebp]
	mov	DWORD PTR fs:0, ecx
	pop	ecx
	pop	edi
	pop	esi
	mov	ecx, DWORD PTR __$ArrayPad$[ebp]
	xor	ecx, ebp
	call	@__security_check_cookie@4
	mov	esp, ebp
	pop	ebp
	ret	4
$LN45@ColorButto:
; File C:\Program Files (x86)\Microsoft Visual Studio\2019\Enterprise\VC\Tools\MSVC\14.23.28105\atlmfc\include\atlsimpstr.h

; 205  : 		ATLENSURE( pStringMgr != NULL );

	push	-2147467259				; 80004005H
	call	?AtlThrowImpl@ATL@@YGXJ@Z		; ATL::AtlThrowImpl
$LN43@ColorButto:
	int	3
_TEXT	ENDS
;	COMDAT text$x
text$x	SEGMENT
__unwindfunclet$?ColorButton_1@CAESDlg@@IAEXH@Z$0:
	lea	ecx, DWORD PTR _Mess$[ebp]
	jmp	??1?$CStringT@_WV?$StrTraitMFC@_WV?$ChTraitsCRT@_W@ATL@@@@@ATL@@QAE@XZ ; ATL::CStringT<wchar_t,StrTraitMFC<wchar_t,ATL::ChTraitsCRT<wchar_t> > >::~CStringT<wchar_t,StrTraitMFC<wchar_t,ATL::ChTraitsCRT<wchar_t> > >
__ehhandler$?ColorButton_1@CAESDlg@@IAEXH@Z:
	mov	edx, DWORD PTR [esp+8]
	lea	eax, DWORD PTR [edx+12]
	mov	ecx, DWORD PTR [edx-20]
	xor	ecx, eax
	call	@__security_check_cookie@4
	mov	ecx, DWORD PTR [edx-4]
	xor	ecx, eax
	call	@__security_check_cookie@4
	mov	eax, OFFSET __ehfuncinfo$?ColorButton_1@CAESDlg@@IAEXH@Z
	jmp	___CxxFrameHandler3
text$x	ENDS
?ColorButton_1@CAESDlg@@IAEXH@Z ENDP			; CAESDlg::ColorButton_1
; Function compile flags: /Ogtp
; File I:\Projets\AES\AES\AES\AESDlg.cpp
; File C:\Program Files (x86)\Microsoft Visual Studio\2019\Enterprise\VC\Tools\MSVC\14.23.28105\atlmfc\include\afxwin2.inl
; File I:\Projets\AES\AES\AES\AESDlg.cpp
; File C:\Program Files (x86)\Microsoft Visual Studio\2019\Enterprise\VC\Tools\MSVC\14.23.28105\atlmfc\include\afxwin2.inl
; File I:\Projets\AES\AES\AES\AESDlg.cpp
; File C:\Program Files (x86)\Microsoft Visual Studio\2019\Enterprise\VC\Tools\MSVC\14.23.28105\atlmfc\include\afxwin2.inl
; File C:\Program Files (x86)\Microsoft Visual Studio\2019\Enterprise\VC\Tools\MSVC\14.23.28105\atlmfc\include\atltypes.h
; File C:\Program Files (x86)\Microsoft Visual Studio\2019\Enterprise\VC\Tools\MSVC\14.23.28105\atlmfc\include\afxwin2.inl
; File C:\Program Files (x86)\Microsoft Visual Studio\2019\Enterprise\VC\Tools\MSVC\14.23.28105\atlmfc\include\afxwin1.inl
; File I:\Projets\AES\AES\AES\AESDlg.cpp
; File C:\Program Files (x86)\Microsoft Visual Studio\2019\Enterprise\VC\Tools\MSVC\14.23.28105\atlmfc\include\afxwin1.inl
; File I:\Projets\AES\AES\AES\AESDlg.cpp
; File C:\Program Files (x86)\Microsoft Visual Studio\2019\Enterprise\VC\Tools\MSVC\14.23.28105\atlmfc\include\afxwin1.inl
; File I:\Projets\AES\AES\AES\AESDlg.cpp
;	COMDAT ?OnPaint@CAESDlg@@IAEXXZ
_TEXT	SEGMENT
_rect$2 = -112						; size = 16
_dc$3 = -96						; size = 84
__$ArrayPad$ = -4					; size = 4
?OnPaint@CAESDlg@@IAEXXZ PROC				; CAESDlg::OnPaint, COMDAT
; _this$ = ecx

; 109  : {

	push	ebp
	mov	ebp, esp
	and	esp, -8					; fffffff8H
	sub	esp, 116				; 00000074H
	mov	eax, DWORD PTR ___security_cookie
	xor	eax, esp
	mov	DWORD PTR __$ArrayPad$[esp+116], eax
	push	ebx
	push	esi
	mov	ebx, ecx
	push	edi
; File C:\Program Files (x86)\Microsoft Visual Studio\2019\Enterprise\VC\Tools\MSVC\14.23.28105\atlmfc\include\afxwin2.inl

; 69   : 	{ ASSERT(::IsWindow(m_hWnd)); return ::IsIconic(m_hWnd); }

	push	DWORD PTR [ebx+32]
	call	DWORD PTR __imp__IsIconic@4
; File I:\Projets\AES\AES\AES\AESDlg.cpp

; 111  : 	if (IsIconic())

	test	eax, eax
	je	$LN2@OnPaint

; 112  : 	{
; 113  : 		CPaintDC dc(this); // contexte de périphérique pour la peinture

	push	84					; 00000054H
	lea	eax, DWORD PTR _dc$3[esp+132]
	push	0
	push	eax
	call	_memset
	add	esp, 12					; 0000000cH
	lea	ecx, DWORD PTR _dc$3[esp+128]
	push	ebx
	call	??0CPaintDC@@QAE@PAVCWnd@@@Z		; CPaintDC::CPaintDC
; File C:\Program Files (x86)\Microsoft Visual Studio\2019\Enterprise\VC\Tools\MSVC\14.23.28105\atlmfc\include\afxwin2.inl

; 32   : 	{ ASSERT(::IsWindow(m_hWnd)); return ::SendMessage(m_hWnd, message, wParam, lParam); }

	push	0
	push	DWORD PTR _dc$3[esp+136]
	push	39					; 00000027H
	push	DWORD PTR [ebx+32]
	call	DWORD PTR __imp__SendMessageW@16
; File I:\Projets\AES\AES\AES\AESDlg.cpp

; 118  : 		int cxIcon = GetSystemMetrics(SM_CXICON);

	mov	esi, DWORD PTR __imp__GetSystemMetrics@4
	push	11					; 0000000bH
	call	esi

; 119  : 		int cyIcon = GetSystemMetrics(SM_CYICON);

	push	12					; 0000000cH
	mov	edi, eax
	call	esi
	mov	esi, eax
	xorps	xmm0, xmm0
; File C:\Program Files (x86)\Microsoft Visual Studio\2019\Enterprise\VC\Tools\MSVC\14.23.28105\atlmfc\include\afxwin2.inl

; 86   : 	{ ASSERT(::IsWindow(m_hWnd)); ::GetClientRect(m_hWnd, lpRect); }

	lea	eax, DWORD PTR _rect$2[esp+128]
	push	eax
	push	DWORD PTR [ebx+32]
; File C:\Program Files (x86)\Microsoft Visual Studio\2019\Enterprise\VC\Tools\MSVC\14.23.28105\atlmfc\include\atltypes.h

; 528  : 	left = 0;

	movups	XMMWORD PTR _rect$2[esp+136], xmm0
; File C:\Program Files (x86)\Microsoft Visual Studio\2019\Enterprise\VC\Tools\MSVC\14.23.28105\atlmfc\include\afxwin2.inl

; 86   : 	{ ASSERT(::IsWindow(m_hWnd)); ::GetClientRect(m_hWnd, lpRect); }

	call	DWORD PTR __imp__GetClientRect@8
; File C:\Program Files (x86)\Microsoft Visual Studio\2019\Enterprise\VC\Tools\MSVC\14.23.28105\atlmfc\include\afxwin1.inl

; 482  : 	{ ASSERT(m_hDC != NULL); return ::DrawIcon(m_hDC, x, y, hIcon); }

	mov	eax, DWORD PTR _rect$2[esp+140]
	sub	eax, DWORD PTR _rect$2[esp+132]
	push	DWORD PTR [ebx+208]
	sub	eax, esi
; File I:\Projets\AES\AES\AES\AESDlg.cpp

; 123  : 		int y = (rect.Height() - cyIcon + 1) / 2;

	inc	eax
	cdq
	sub	eax, edx
	sar	eax, 1
; File C:\Program Files (x86)\Microsoft Visual Studio\2019\Enterprise\VC\Tools\MSVC\14.23.28105\atlmfc\include\afxwin1.inl

; 482  : 	{ ASSERT(m_hDC != NULL); return ::DrawIcon(m_hDC, x, y, hIcon); }

	push	eax
	mov	eax, DWORD PTR _rect$2[esp+144]
	sub	eax, DWORD PTR _rect$2[esp+136]
	sub	eax, edi
; File I:\Projets\AES\AES\AES\AESDlg.cpp

; 122  : 		int x = (rect.Width() - cxIcon + 1) / 2;

	inc	eax
	cdq
	sub	eax, edx
	sar	eax, 1
; File C:\Program Files (x86)\Microsoft Visual Studio\2019\Enterprise\VC\Tools\MSVC\14.23.28105\atlmfc\include\afxwin1.inl

; 482  : 	{ ASSERT(m_hDC != NULL); return ::DrawIcon(m_hDC, x, y, hIcon); }

	push	eax
	push	DWORD PTR _dc$3[esp+144]
	call	DWORD PTR __imp__DrawIcon@16
; File I:\Projets\AES\AES\AES\AESDlg.cpp

; 127  : 	}

	lea	ecx, DWORD PTR _dc$3[esp+128]
	call	??1CPaintDC@@UAE@XZ			; CPaintDC::~CPaintDC

; 131  : 	}
; 132  : 
; 133  : }

	pop	edi
	pop	esi
	pop	ebx
	mov	ecx, DWORD PTR __$ArrayPad$[esp+116]
	xor	ecx, esp
	call	@__security_check_cookie@4
	mov	esp, ebp
	pop	ebp
	ret	0
$LN2@OnPaint:

; 128  : 	else
; 129  : 	{
; 130  : 		CDialogEx::OnPaint();

	mov	ecx, ebx
	call	?OnPaint@CDialog@@IAEXXZ		; CDialog::OnPaint

; 131  : 	}
; 132  : 
; 133  : }

	mov	ecx, DWORD PTR __$ArrayPad$[esp+128]
	pop	edi
	pop	esi
	pop	ebx
	xor	ecx, esp
	call	@__security_check_cookie@4
	mov	esp, ebp
	pop	ebp
	ret	0
?OnPaint@CAESDlg@@IAEXXZ ENDP				; CAESDlg::OnPaint
_TEXT	ENDS
; Function compile flags: /Ogtp
;	COMDAT ?__autoclassinit2@CPaintDC@@QAEXI@Z
_TEXT	SEGMENT
_classSize$dead$ = 8					; size = 4
?__autoclassinit2@CPaintDC@@QAEXI@Z PROC		; CPaintDC::__autoclassinit2, COMDAT
; _this$ = ecx
	push	84					; 00000054H
	push	0
	push	ecx
	call	_memset
	add	esp, 12					; 0000000cH
	ret	4
?__autoclassinit2@CPaintDC@@QAEXI@Z ENDP		; CPaintDC::__autoclassinit2
_TEXT	ENDS
; Function compile flags: /Ogtp
; File I:\Projets\AES\AES\AES\AESDlg.cpp
;	COMDAT ?OnQueryDragIcon@CAESDlg@@IAEPAUHICON__@@XZ
_TEXT	SEGMENT
?OnQueryDragIcon@CAESDlg@@IAEPAUHICON__@@XZ PROC	; CAESDlg::OnQueryDragIcon, COMDAT
; _this$ = ecx

; 139  : 	return static_cast<HCURSOR>(m_hIcon);

	mov	eax, DWORD PTR [ecx+208]

; 140  : }

	ret	0
?OnQueryDragIcon@CAESDlg@@IAEPAUHICON__@@XZ ENDP	; CAESDlg::OnQueryDragIcon
_TEXT	ENDS
; Function compile flags: /Ogtp
; File I:\Projets\AES\AES\AES\AESDlg.cpp
;	COMDAT ?OnBnClickedOk@CAESDlg@@QAEXXZ
_TEXT	SEGMENT
$T5 = -16						; size = 4
$T1 = -16						; size = 4
__$EHRec$ = -12						; size = 12
?OnBnClickedOk@CAESDlg@@QAEXXZ PROC			; CAESDlg::OnBnClickedOk, COMDAT
; _this$ = ecx

; 143  : {

	push	ebp
	mov	ebp, esp
	push	-1
	push	__ehhandler$?OnBnClickedOk@CAESDlg@@QAEXXZ
	mov	eax, DWORD PTR fs:0
	push	eax
	push	ecx
	push	esi
	push	edi
	mov	eax, DWORD PTR ___security_cookie
	xor	eax, ebp
	push	eax
	lea	eax, DWORD PTR __$EHRec$[ebp]
	mov	DWORD PTR fs:0, eax
	mov	edi, ecx

; 144  : 	// TODO: ajoutez ici le code de votre gestionnaire de notification de contrôle
; 145  : 	if (Ordre == _Encode)

	cmp	DWORD PTR [edi+212], 0
	push	40					; 00000028H
	jne	SHORT $LN2@OnBnClicke

; 146  : 	{
; 147  : 	   // Lancement en interactif de l'encodage
; 148  : 		C_Encode_Interactif *pt_encode = new C_Encode_Interactif;

	call	??2@YAPAXI@Z				; operator new
	add	esp, 4
	mov	DWORD PTR $T1[ebp], eax
	mov	DWORD PTR __$EHRec$[ebp+8], 0
	test	eax, eax
	je	SHORT $LN5@OnBnClicke
	xorps	xmm0, xmm0
	mov	ecx, eax
	movups	XMMWORD PTR [eax], xmm0
	movups	XMMWORD PTR [eax+16], xmm0
	movq	QWORD PTR [eax+32], xmm0
	call	??0C_Encode_Interactif@@QAE@XZ		; C_Encode_Interactif::C_Encode_Interactif
	mov	esi, eax
	jmp	SHORT $LN6@OnBnClicke
$LN5@OnBnClicke:
	xor	esi, esi
$LN6@OnBnClicke:

; 149  : 		pt_encode->Go();

	mov	ecx, esi
	mov	DWORD PTR __$EHRec$[ebp+8], -1
	call	?Go@C_Encode_Interactif@@QAE_NXZ	; C_Encode_Interactif::Go

; 150  : 		Calcul = pt_encode->Calcul;

	mov	eax, DWORD PTR [esi]
	mov	ecx, esi
	mov	DWORD PTR [edi+224], eax
	mov	eax, DWORD PTR [esi+4]
	mov	DWORD PTR [edi+228], eax
	call	??1C_Encode_Interactif@@QAE@XZ		; C_Encode_Interactif::~C_Encode_Interactif

; 151  : 		delete pt_encode;
; 152  : 
; 153  : 	}

	jmp	SHORT $LN23@OnBnClicke
$LN2@OnBnClicke:

; 154  : 	else
; 155  : 	{
; 156  : 		// Lancement en interactif de l'Décodage
; 157  : 		C_Decode_Interactif *pt_decode = new C_Decode_Interactif;

	call	??2@YAPAXI@Z				; operator new
	add	esp, 4
	mov	DWORD PTR $T5[ebp], eax
	mov	DWORD PTR __$EHRec$[ebp+8], 1
	test	eax, eax
	je	SHORT $LN9@OnBnClicke
	xorps	xmm0, xmm0
	mov	ecx, eax
	movups	XMMWORD PTR [eax], xmm0
	movups	XMMWORD PTR [eax+16], xmm0
	movq	QWORD PTR [eax+32], xmm0
	call	??0C_Decode_Interactif@@QAE@XZ		; C_Decode_Interactif::C_Decode_Interactif
	mov	esi, eax
	jmp	SHORT $LN10@OnBnClicke
$LN9@OnBnClicke:
	xor	esi, esi
$LN10@OnBnClicke:

; 158  : 		pt_decode->Go();

	mov	ecx, esi
	mov	DWORD PTR __$EHRec$[ebp+8], -1
	call	?Go@C_Decode_Interactif@@QAE_NXZ	; C_Decode_Interactif::Go

; 159  : 		Calcul = pt_decode->Calcul;

	mov	eax, DWORD PTR [esi]
	mov	ecx, esi
	mov	DWORD PTR [edi+224], eax
	mov	eax, DWORD PTR [esi+4]
	mov	DWORD PTR [edi+228], eax
	call	??1C_Decode_Interactif@@QAE@XZ		; C_Decode_Interactif::~C_Decode_Interactif
$LN23@OnBnClicke:

; 160  : 		delete pt_decode;
; 161  : 	}
; 162  : 	
; 163  : 	Affichage(Calcul);

	push	40					; 00000028H
	push	esi
	call	??3@YAXPAXI@Z				; operator delete
	add	esp, 8
	mov	ecx, edi
	push	DWORD PTR [edi+228]
	push	DWORD PTR [edi+224]
	call	?Affichage@CAESDlg@@QAEX_K@Z		; CAESDlg::Affichage

; 164  : 
; 165  : }

	mov	ecx, DWORD PTR __$EHRec$[ebp]
	mov	DWORD PTR fs:0, ecx
	pop	ecx
	pop	edi
	pop	esi
	mov	esp, ebp
	pop	ebp
	ret	0
_TEXT	ENDS
;	COMDAT text$x
text$x	SEGMENT
__unwindfunclet$?OnBnClickedOk@CAESDlg@@QAEXXZ$0:
	push	40					; 00000028H
	mov	eax, DWORD PTR $T1[ebp]
	push	eax
	call	??3@YAXPAXI@Z				; operator delete
	add	esp, 8
	ret	0
__unwindfunclet$?OnBnClickedOk@CAESDlg@@QAEXXZ$1:
	push	40					; 00000028H
	mov	eax, DWORD PTR $T5[ebp]
	push	eax
	call	??3@YAXPAXI@Z				; operator delete
	add	esp, 8
	ret	0
__ehhandler$?OnBnClickedOk@CAESDlg@@QAEXXZ:
	mov	edx, DWORD PTR [esp+8]
	lea	eax, DWORD PTR [edx+12]
	mov	ecx, DWORD PTR [edx-16]
	xor	ecx, eax
	call	@__security_check_cookie@4
	mov	eax, OFFSET __ehfuncinfo$?OnBnClickedOk@CAESDlg@@QAEXXZ
	jmp	___CxxFrameHandler3
text$x	ENDS
?OnBnClickedOk@CAESDlg@@QAEXXZ ENDP			; CAESDlg::OnBnClickedOk
; Function compile flags: /Ogtp
;	COMDAT ?__autoclassinit2@C_Encode_Interactif@@QAEXI@Z
_TEXT	SEGMENT
_classSize$dead$ = 8					; size = 4
?__autoclassinit2@C_Encode_Interactif@@QAEXI@Z PROC	; C_Encode_Interactif::__autoclassinit2, COMDAT
; _this$ = ecx
	xorps	xmm0, xmm0
	movups	XMMWORD PTR [ecx], xmm0
	movups	XMMWORD PTR [ecx+16], xmm0
	movq	QWORD PTR [ecx+32], xmm0
	ret	4
?__autoclassinit2@C_Encode_Interactif@@QAEXI@Z ENDP	; C_Encode_Interactif::__autoclassinit2
_TEXT	ENDS
; Function compile flags: /Ogtp
;	COMDAT ??_GC_Encode_Interactif@@QAEPAXI@Z
_TEXT	SEGMENT
___flags$dead$ = 8					; size = 4
??_GC_Encode_Interactif@@QAEPAXI@Z PROC			; C_Encode_Interactif::`scalar deleting destructor', COMDAT
; _this$ = ecx
	push	esi
	mov	esi, ecx
	call	??1C_Encode_Interactif@@QAE@XZ		; C_Encode_Interactif::~C_Encode_Interactif
	push	40					; 00000028H
	push	esi
	call	??3@YAXPAXI@Z				; operator delete
	add	esp, 8
	mov	eax, esi
	pop	esi
	ret	4
??_GC_Encode_Interactif@@QAEPAXI@Z ENDP			; C_Encode_Interactif::`scalar deleting destructor'
_TEXT	ENDS
; Function compile flags: /Ogtp
;	COMDAT ?__autoclassinit2@C_Decode_Interactif@@QAEXI@Z
_TEXT	SEGMENT
_classSize$dead$ = 8					; size = 4
?__autoclassinit2@C_Decode_Interactif@@QAEXI@Z PROC	; C_Decode_Interactif::__autoclassinit2, COMDAT
; _this$ = ecx
	xorps	xmm0, xmm0
	movups	XMMWORD PTR [ecx], xmm0
	movups	XMMWORD PTR [ecx+16], xmm0
	movq	QWORD PTR [ecx+32], xmm0
	ret	4
?__autoclassinit2@C_Decode_Interactif@@QAEXI@Z ENDP	; C_Decode_Interactif::__autoclassinit2
_TEXT	ENDS
; Function compile flags: /Ogtp
;	COMDAT ??_GC_Decode_Interactif@@QAEPAXI@Z
_TEXT	SEGMENT
___flags$dead$ = 8					; size = 4
??_GC_Decode_Interactif@@QAEPAXI@Z PROC			; C_Decode_Interactif::`scalar deleting destructor', COMDAT
; _this$ = ecx
	push	esi
	mov	esi, ecx
	call	??1C_Decode_Interactif@@QAE@XZ		; C_Decode_Interactif::~C_Decode_Interactif
	push	40					; 00000028H
	push	esi
	call	??3@YAXPAXI@Z				; operator delete
	add	esp, 8
	mov	eax, esi
	pop	esi
	ret	4
??_GC_Decode_Interactif@@QAEPAXI@Z ENDP			; C_Decode_Interactif::`scalar deleting destructor'
_TEXT	ENDS
; Function compile flags: /Ogtp
; File I:\Projets\AES\AES\AES\AESDlg.cpp
; File C:\Program Files (x86)\Microsoft Visual Studio\2019\Enterprise\VC\Tools\MSVC\14.23.28105\atlmfc\include\afxstr.h
; File C:\Program Files (x86)\Microsoft Visual Studio\2019\Enterprise\VC\Tools\MSVC\14.23.28105\atlmfc\include\atlsimpstr.h
; File C:\Program Files (x86)\Microsoft Visual Studio\2019\Enterprise\VC\Tools\MSVC\14.23.28105\atlmfc\include\cstringt.h
; File C:\Program Files (x86)\Microsoft Visual Studio\2019\Enterprise\VC\Tools\MSVC\14.23.28105\atlmfc\include\atlsimpstr.h
; File I:\Projets\AES\AES\AES\AESDlg.cpp
; File I:\Projets\AES\AES\AES\ColorStatic.cpp
; File I:\Projets\AES\AES\AES\AESDlg.cpp
; File I:\Projets\AES\AES\AES\ColorStatic.cpp
; File I:\Projets\AES\AES\AES\AESDlg.cpp
; File C:\Program Files (x86)\Microsoft Visual Studio\2019\Enterprise\VC\Tools\MSVC\14.23.28105\atlmfc\include\atlsimpstr.h
; File I:\Projets\AES\AES\AES\AESDlg.cpp
; File C:\Program Files (x86)\Microsoft Visual Studio\2019\Enterprise\VC\Tools\MSVC\14.23.28105\atlmfc\include\atlsimpstr.h
; File I:\Projets\AES\AES\AES\AESDlg.cpp
;	COMDAT ?Affichage@CAESDlg@@QAEX_K@Z
_TEXT	SEGMENT
_Mess$ = -20						; size = 4
__$ArrayPad$ = -16					; size = 4
__$EHRec$ = -12						; size = 12
_How_Time$ = 8						; size = 8
?Affichage@CAESDlg@@QAEX_K@Z PROC			; CAESDlg::Affichage, COMDAT
; _this$ = ecx

; 168  : {

	push	ebp
	mov	ebp, esp
	push	-1
	push	__ehhandler$?Affichage@CAESDlg@@QAEX_K@Z
	mov	eax, DWORD PTR fs:0
	push	eax
	sub	esp, 8
	mov	eax, DWORD PTR ___security_cookie
	xor	eax, ebp
	mov	DWORD PTR __$ArrayPad$[ebp], eax
	push	esi
	push	edi
	push	eax
	lea	eax, DWORD PTR __$EHRec$[ebp]
	mov	DWORD PTR fs:0, eax
	mov	edi, ecx
; File C:\Program Files (x86)\Microsoft Visual Studio\2019\Enterprise\VC\Tools\MSVC\14.23.28105\atlmfc\include\afxstr.h

; 52   : 		return( AfxGetStringManager() );

	call	?AfxGetStringManager@@YGPAUIAtlStringMgr@ATL@@XZ ; AfxGetStringManager
	mov	ecx, eax
; File C:\Program Files (x86)\Microsoft Visual Studio\2019\Enterprise\VC\Tools\MSVC\14.23.28105\atlmfc\include\atlsimpstr.h

; 205  : 		ATLENSURE( pStringMgr != NULL );

	test	ecx, ecx
	je	$LN74@Affichage

; 206  : 		CStringData* pData = pStringMgr->GetNilString();

	mov	eax, DWORD PTR [ecx]
	call	DWORD PTR [eax+12]

; 59   : 		return (this+1);

	add	eax, 16					; 00000010H

; 780  : 		m_pszData = static_cast< PXSTR >( pData->data() );

	mov	DWORD PTR _Mess$[ebp], eax
; File C:\Program Files (x86)\Microsoft Visual Studio\2019\Enterprise\VC\Tools\MSVC\14.23.28105\atlmfc\include\cstringt.h

; 2668 : 		if( (pv != NULL) && IS_INTRESOURCE( pv ) )

	mov	eax, OFFSET ??_C@_11LOCGONAA@@

; 1044 : 		CThisSimpleString( StringTraits::GetDefaultManager() )

	mov	DWORD PTR __$EHRec$[ebp+8], 0

; 2668 : 		if( (pv != NULL) && IS_INTRESOURCE( pv ) )

	lea	ecx, DWORD PTR _Mess$[ebp]
	test	eax, -65536				; ffff0000H
	jne	SHORT $LN69@Affichage

; 2669 : 		{
; 2670 : 			UINT nID = LOWORD( reinterpret_cast< DWORD_PTR >( pv ) );

	movzx	eax, ax

; 2671 : 			(nID);
; 2672 : #ifdef _ATL_USE_WINAPI_FAMILY_DESKTOP_APP
; 2673 : 			if( !LoadString( nID ) )

	push	eax
	call	?LoadStringW@?$CStringT@_WV?$StrTraitMFC@_WV?$ChTraitsCRT@_W@ATL@@@@@ATL@@QAEHI@Z ; ATL::CStringT<wchar_t,StrTraitMFC<wchar_t,ATL::ChTraitsCRT<wchar_t> > >::LoadStringW

; 1046 : 		if( !CheckImplicitLoad( pszSrc ) )

	jmp	SHORT $LN9@Affichage
$LN69@Affichage:
; File C:\Program Files (x86)\Microsoft Visual Studio\2019\Enterprise\VC\Tools\MSVC\14.23.28105\atlmfc\include\atlsimpstr.h

; 602  : 		SetString( pszSrc, StringLength( pszSrc ) );

	push	0
	push	OFFSET ??_C@_11LOCGONAA@@
	call	?SetString@?$CSimpleStringT@_W$0A@@ATL@@QAEXPB_WH@Z ; ATL::CSimpleStringT<wchar_t,0>::SetString
$LN9@Affichage:
; File I:\Projets\AES\AES\AES\AESDlg.cpp

; 171  : 	if (Ordre == _Encode)

	push	261					; 00000105H
	push	0
	mov	DWORD PTR __$EHRec$[ebp+8], 1
	cmp	DWORD PTR [edi+212], 0
	mov	eax, DWORD PTR [edi+728]
	push	0
	push	eax
	jne	SHORT $LN2@Affichage
; File I:\Projets\AES\AES\AES\ColorStatic.cpp

; 82   : 	m_crTextColor = crColor; // Passing the value passed by the dialog to the member varaible for Text Color

	mov	DWORD PTR [edi+836], 32512		; 00007f00H
; File I:\Projets\AES\AES\AES\AESDlg.cpp

; 174  : 	}

	jmp	SHORT $LN72@Affichage
$LN2@Affichage:
; File I:\Projets\AES\AES\AES\ColorStatic.cpp

; 82   : 	m_crTextColor = crColor; // Passing the value passed by the dialog to the member varaible for Text Color

	mov	DWORD PTR [edi+836], 127		; 0000007fH
$LN72@Affichage:
; File I:\Projets\AES\AES\AES\AESDlg.cpp

; 179  : 	Mess.Format(_T("Duration : %llu ms"), How_Time);

	call	DWORD PTR __imp__RedrawWindow@16
	push	DWORD PTR _How_Time$[ebp+4]
	lea	eax, DWORD PTR _Mess$[ebp]
	push	DWORD PTR _How_Time$[ebp]
	push	OFFSET ??_C@_1CG@HPFIJNG@?$AAD?$AAu?$AAr?$AAa?$AAt?$AAi?$AAo?$AAn?$AA?5?$AA?3?$AA?5?$AA?$CF?$AAl?$AAl?$AAu@
	push	eax
	call	?Format@?$CStringT@_WV?$StrTraitMFC@_WV?$ChTraitsCRT@_W@ATL@@@@@ATL@@QAAXPB_WZZ ; ATL::CStringT<wchar_t,StrTraitMFC<wchar_t,ATL::ChTraitsCRT<wchar_t> > >::Format

; 180  : 	SetDlgItemText(IDC_STATIC, Mess);

	mov	esi, DWORD PTR _Mess$[ebp]
	add	esp, 16					; 00000010H
	mov	ecx, edi
	push	esi
	push	-1
	call	?SetDlgItemTextW@CWnd@@QAEXHPB_W@Z	; CWnd::SetDlgItemTextW

; 181  : }

	mov	DWORD PTR __$EHRec$[ebp+8], -1
; File C:\Program Files (x86)\Microsoft Visual Studio\2019\Enterprise\VC\Tools\MSVC\14.23.28105\atlmfc\include\atlsimpstr.h

; 800  : 		return( reinterpret_cast< CStringData* >( m_pszData )-1 );

	add	esi, -16				; fffffff0H

; 88   : 		if( _InterlockedDecrement( &nRefs ) <= 0 )

	or	eax, -1
	lock	 xadd	 DWORD PTR [esi+12], eax
	dec	eax
	test	eax, eax
	jg	SHORT $LN67@Affichage

; 89   : 		{
; 90   : 			pStringMgr->Free( this );

	mov	ecx, DWORD PTR [esi]
	push	esi
	mov	eax, DWORD PTR [ecx]
	call	DWORD PTR [eax+4]
$LN67@Affichage:
; File I:\Projets\AES\AES\AES\AESDlg.cpp

; 181  : }

	mov	ecx, DWORD PTR __$EHRec$[ebp]
	mov	DWORD PTR fs:0, ecx
	pop	ecx
	pop	edi
	pop	esi
	mov	ecx, DWORD PTR __$ArrayPad$[ebp]
	xor	ecx, ebp
	call	@__security_check_cookie@4
	mov	esp, ebp
	pop	ebp
	ret	8
$LN74@Affichage:
; File C:\Program Files (x86)\Microsoft Visual Studio\2019\Enterprise\VC\Tools\MSVC\14.23.28105\atlmfc\include\atlsimpstr.h

; 205  : 		ATLENSURE( pStringMgr != NULL );

	push	-2147467259				; 80004005H
	call	?AtlThrowImpl@ATL@@YGXJ@Z		; ATL::AtlThrowImpl
$LN71@Affichage:
	int	3
_TEXT	ENDS
;	COMDAT text$x
text$x	SEGMENT
__unwindfunclet$?Affichage@CAESDlg@@QAEX_K@Z$1:
	lea	ecx, DWORD PTR _Mess$[ebp]
	jmp	??1?$CSimpleStringT@_W$0A@@ATL@@QAE@XZ	; ATL::CSimpleStringT<wchar_t,0>::~CSimpleStringT<wchar_t,0>
__unwindfunclet$?Affichage@CAESDlg@@QAEX_K@Z$0:
	lea	ecx, DWORD PTR _Mess$[ebp]
	jmp	??1?$CStringT@_WV?$StrTraitMFC@_WV?$ChTraitsCRT@_W@ATL@@@@@ATL@@QAE@XZ ; ATL::CStringT<wchar_t,StrTraitMFC<wchar_t,ATL::ChTraitsCRT<wchar_t> > >::~CStringT<wchar_t,StrTraitMFC<wchar_t,ATL::ChTraitsCRT<wchar_t> > >
__ehhandler$?Affichage@CAESDlg@@QAEX_K@Z:
	mov	edx, DWORD PTR [esp+8]
	lea	eax, DWORD PTR [edx+12]
	mov	ecx, DWORD PTR [edx-20]
	xor	ecx, eax
	call	@__security_check_cookie@4
	mov	ecx, DWORD PTR [edx-4]
	xor	ecx, eax
	call	@__security_check_cookie@4
	mov	eax, OFFSET __ehfuncinfo$?Affichage@CAESDlg@@QAEX_K@Z
	jmp	___CxxFrameHandler3
text$x	ENDS
?Affichage@CAESDlg@@QAEX_K@Z ENDP			; CAESDlg::Affichage
; Function compile flags: /Ogtp
; File I:\Projets\AES\AES\AES\AESDlg.cpp
;	COMDAT ?OnBnClickedCancel@CAESDlg@@QAEXXZ
_TEXT	SEGMENT
?OnBnClickedCancel@CAESDlg@@QAEXXZ PROC			; CAESDlg::OnBnClickedCancel, COMDAT
; _this$ = ecx

; 185  : 	// TODO: ajoutez ici le code de votre gestionnaire de notification de contrôle
; 186  : 	CDialogEx::OnCancel();

	jmp	?OnCancel@CDialog@@MAEXXZ		; CDialog::OnCancel
?OnBnClickedCancel@CAESDlg@@QAEXXZ ENDP			; CAESDlg::OnBnClickedCancel
_TEXT	ENDS
; Function compile flags: /Ogtp
; File I:\Projets\AES\AES\AES\AESDlg.cpp
; File C:\Program Files (x86)\Microsoft Visual Studio\2019\Enterprise\VC\Tools\MSVC\14.23.28105\atlmfc\include\afxwin2.inl
; File I:\Projets\AES\AES\AES\ColorRadioButton.cpp
; File C:\Program Files (x86)\Microsoft Visual Studio\2019\Enterprise\VC\Tools\MSVC\14.23.28105\atlmfc\include\afxwin2.inl
; File I:\Projets\AES\AES\AES\ColorRadioButton.cpp
; File C:\Program Files (x86)\Microsoft Visual Studio\2019\Enterprise\VC\Tools\MSVC\14.23.28105\atlmfc\include\afxwin2.inl
; File I:\Projets\AES\AES\AES\AESDlg.cpp
;	COMDAT ?OnBnClickedRadio1@CAESDlg@@QAEXXZ
_TEXT	SEGMENT
?OnBnClickedRadio1@CAESDlg@@QAEXXZ PROC			; CAESDlg::OnBnClickedRadio1, COMDAT
; _this$ = ecx

; 191  : {

	push	ebp
	mov	ebp, esp
	and	esp, -8					; fffffff8H
	push	ecx
	push	edi
	mov	edi, ecx

; 192  : 	if (m_radio_1.GetCheck() == TRUE)

	cmp	DWORD PTR [edi+684], 1
	jne	SHORT $LN2@OnBnClicke
; File C:\Program Files (x86)\Microsoft Visual Studio\2019\Enterprise\VC\Tools\MSVC\14.23.28105\atlmfc\include\afxwin2.inl

; 142  : 	{ ASSERT(::IsWindow(m_hWnd)); return ::RedrawWindow(m_hWnd, lpRectUpdate, (HRGN)prgnUpdate->GetSafeHandle(), flags); }

	push	261					; 00000105H
	push	0
	push	0
	push	DWORD PTR [edi+408]
; File I:\Projets\AES\AES\AES\ColorRadioButton.cpp

; 90   : 	m_rb1Checked = Value;

	mov	DWORD PTR [edi+524], 1
; File C:\Program Files (x86)\Microsoft Visual Studio\2019\Enterprise\VC\Tools\MSVC\14.23.28105\atlmfc\include\afxwin2.inl

; 142  : 	{ ASSERT(::IsWindow(m_hWnd)); return ::RedrawWindow(m_hWnd, lpRectUpdate, (HRGN)prgnUpdate->GetSafeHandle(), flags); }

	call	DWORD PTR __imp__RedrawWindow@16
	push	261					; 00000105H
	push	0
	push	0
	push	DWORD PTR [edi+568]
; File I:\Projets\AES\AES\AES\ColorRadioButton.cpp

; 90   : 	m_rb1Checked = Value;

	mov	DWORD PTR [edi+684], 0
; File C:\Program Files (x86)\Microsoft Visual Studio\2019\Enterprise\VC\Tools\MSVC\14.23.28105\atlmfc\include\afxwin2.inl

; 142  : 	{ ASSERT(::IsWindow(m_hWnd)); return ::RedrawWindow(m_hWnd, lpRectUpdate, (HRGN)prgnUpdate->GetSafeHandle(), flags); }

	call	DWORD PTR __imp__RedrawWindow@16
; File I:\Projets\AES\AES\AES\AESDlg.cpp

; 197  : 		ColorButton_1(Ordre);

	push	0
	mov	ecx, edi
	mov	DWORD PTR [edi+212], 0
	call	?ColorButton_1@CAESDlg@@IAEXH@Z		; CAESDlg::ColorButton_1

; 198  : 		Affichage(Calcul);

	push	DWORD PTR [edi+228]
	mov	ecx, edi
	push	DWORD PTR [edi+224]
	call	?Affichage@CAESDlg@@QAEX_K@Z		; CAESDlg::Affichage
$LN2@OnBnClicke:

; 199  : 	}
; 200  : }

	pop	edi
	mov	esp, ebp
	pop	ebp
	ret	0
?OnBnClickedRadio1@CAESDlg@@QAEXXZ ENDP			; CAESDlg::OnBnClickedRadio1
_TEXT	ENDS
; Function compile flags: /Ogtp
; File I:\Projets\AES\AES\AES\AESDlg.cpp
; File C:\Program Files (x86)\Microsoft Visual Studio\2019\Enterprise\VC\Tools\MSVC\14.23.28105\atlmfc\include\afxwin2.inl
; File I:\Projets\AES\AES\AES\AESDlg.cpp
; File C:\Program Files (x86)\Microsoft Visual Studio\2019\Enterprise\VC\Tools\MSVC\14.23.28105\atlmfc\include\afxwin2.inl
; File I:\Projets\AES\AES\AES\ColorRadioButton.cpp
; File C:\Program Files (x86)\Microsoft Visual Studio\2019\Enterprise\VC\Tools\MSVC\14.23.28105\atlmfc\include\afxwin2.inl
; File I:\Projets\AES\AES\AES\ColorRadioButton.cpp
; File C:\Program Files (x86)\Microsoft Visual Studio\2019\Enterprise\VC\Tools\MSVC\14.23.28105\atlmfc\include\afxwin2.inl
; File I:\Projets\AES\AES\AES\AESDlg.cpp
;	COMDAT ?OnBnClickedRadio2@CAESDlg@@QAEXXZ
_TEXT	SEGMENT
?OnBnClickedRadio2@CAESDlg@@QAEXXZ PROC			; CAESDlg::OnBnClickedRadio2, COMDAT
; _this$ = ecx

; 203  : {

	push	ebp
	mov	ebp, esp
	and	esp, -8					; fffffff8H
	push	ecx
	push	edi
; File C:\Program Files (x86)\Microsoft Visual Studio\2019\Enterprise\VC\Tools\MSVC\14.23.28105\atlmfc\include\afxwin2.inl

; 142  : 	{ ASSERT(::IsWindow(m_hWnd)); return ::RedrawWindow(m_hWnd, lpRectUpdate, (HRGN)prgnUpdate->GetSafeHandle(), flags); }

	push	261					; 00000105H
; File I:\Projets\AES\AES\AES\AESDlg.cpp

; 203  : {

	mov	edi, ecx
; File C:\Program Files (x86)\Microsoft Visual Studio\2019\Enterprise\VC\Tools\MSVC\14.23.28105\atlmfc\include\afxwin2.inl

; 142  : 	{ ASSERT(::IsWindow(m_hWnd)); return ::RedrawWindow(m_hWnd, lpRectUpdate, (HRGN)prgnUpdate->GetSafeHandle(), flags); }

	push	0
	push	0
	push	DWORD PTR [edi+408]
; File I:\Projets\AES\AES\AES\ColorRadioButton.cpp

; 90   : 	m_rb1Checked = Value;

	mov	DWORD PTR [edi+524], 0
; File C:\Program Files (x86)\Microsoft Visual Studio\2019\Enterprise\VC\Tools\MSVC\14.23.28105\atlmfc\include\afxwin2.inl

; 142  : 	{ ASSERT(::IsWindow(m_hWnd)); return ::RedrawWindow(m_hWnd, lpRectUpdate, (HRGN)prgnUpdate->GetSafeHandle(), flags); }

	call	DWORD PTR __imp__RedrawWindow@16
	push	261					; 00000105H
	push	0
	push	0
	push	DWORD PTR [edi+568]
; File I:\Projets\AES\AES\AES\ColorRadioButton.cpp

; 90   : 	m_rb1Checked = Value;

	mov	DWORD PTR [edi+684], 1
; File C:\Program Files (x86)\Microsoft Visual Studio\2019\Enterprise\VC\Tools\MSVC\14.23.28105\atlmfc\include\afxwin2.inl

; 142  : 	{ ASSERT(::IsWindow(m_hWnd)); return ::RedrawWindow(m_hWnd, lpRectUpdate, (HRGN)prgnUpdate->GetSafeHandle(), flags); }

	call	DWORD PTR __imp__RedrawWindow@16
; File I:\Projets\AES\AES\AES\AESDlg.cpp

; 208  : 		ColorButton_1(Ordre);

	push	1
	mov	ecx, edi
	mov	DWORD PTR [edi+212], 1
	call	?ColorButton_1@CAESDlg@@IAEXH@Z		; CAESDlg::ColorButton_1

; 209  : 		Affichage(Calcul);

	push	DWORD PTR [edi+228]
	mov	ecx, edi
	push	DWORD PTR [edi+224]
	call	?Affichage@CAESDlg@@QAEX_K@Z		; CAESDlg::Affichage

; 210  : 	}
; 211  : }

	pop	edi
	mov	esp, ebp
	pop	ebp
	ret	0
?OnBnClickedRadio2@CAESDlg@@QAEXXZ ENDP			; CAESDlg::OnBnClickedRadio2
_TEXT	ENDS
; Function compile flags: /Ogtp
; File I:\Projets\AES\AES\AES\AESDlg.cpp
; File C:\Program Files (x86)\Microsoft Visual Studio\2019\Enterprise\VC\Tools\MSVC\14.23.28105\atlmfc\include\afxstr.h
; File C:\Program Files (x86)\Microsoft Visual Studio\2019\Enterprise\VC\Tools\MSVC\14.23.28105\atlmfc\include\atlsimpstr.h
; File C:\Program Files (x86)\Microsoft Visual Studio\2019\Enterprise\VC\Tools\MSVC\14.23.28105\atlmfc\include\cstringt.h
; File C:\Program Files (x86)\Microsoft Visual Studio\2019\Enterprise\VC\Tools\MSVC\14.23.28105\atlmfc\include\atlsimpstr.h
; File I:\Projets\AES\AES\AES\AESDlg.cpp
; File C:\Program Files (x86)\Microsoft Visual Studio\2019\Enterprise\VC\Tools\MSVC\14.23.28105\atlmfc\include\atlsimpstr.h
; File I:\Projets\AES\AES\AES\AESDlg.cpp
; File C:\Program Files (x86)\Microsoft Visual Studio\2019\Enterprise\VC\Tools\MSVC\14.23.28105\atlmfc\include\atlsimpstr.h
; File I:\Projets\AES\AES\AES\AESDlg.cpp
; File C:\Program Files (x86)\Microsoft Visual Studio\2019\Enterprise\VC\Tools\MSVC\14.23.28105\atlmfc\include\atlsimpstr.h
; File I:\Projets\AES\AES\AES\AESDlg.cpp
; File C:\Program Files (x86)\Microsoft Visual Studio\2019\Enterprise\VC\Tools\MSVC\14.23.28105\atlmfc\include\atlsimpstr.h
; File I:\Projets\AES\AES\AES\AESDlg.cpp
; File C:\Program Files (x86)\Microsoft Visual Studio\2019\Enterprise\VC\Tools\MSVC\14.23.28105\atlmfc\include\atlsimpstr.h
; File I:\Projets\AES\AES\AES\AESDlg.cpp
;	COMDAT ?OnDropFiles@CAESDlg@@QAEXPAUHDROP__@@@Z
_TEXT	SEGMENT
_this$GSCopy$1$ = -560					; size = 4
_nFiles$1$ = -556					; size = 4
$T1 = -556						; size = 4
_this$ = -552						; size = 4
$T9 = -548						; size = 4
_hDropInfo$GSCopy$1$ = -544				; size = 4
_chaine$10 = -540					; size = 4
_szFileName$11 = -536					; size = 520
__$ArrayPad$ = -16					; size = 4
__$EHRec$ = -12						; size = 12
_hDropInfo$ = 8						; size = 4
?OnDropFiles@CAESDlg@@QAEXPAUHDROP__@@@Z PROC		; CAESDlg::OnDropFiles, COMDAT
; _this$ = ecx

; 215  : {

	push	ebp
	mov	ebp, esp
	push	-1
	push	__ehhandler$?OnDropFiles@CAESDlg@@QAEXPAUHDROP__@@@Z
	mov	eax, DWORD PTR fs:0
	push	eax
	sub	esp, 548				; 00000224H
	mov	eax, DWORD PTR ___security_cookie
	xor	eax, ebp
	mov	DWORD PTR __$ArrayPad$[ebp], eax
	push	ebx
	push	esi
	push	edi
	push	eax
	lea	eax, DWORD PTR __$EHRec$[ebp]
	mov	DWORD PTR fs:0, eax
	mov	DWORD PTR _this$GSCopy$1$[ebp], ecx
	mov	eax, DWORD PTR _hDropInfo$[ebp]

; 216  : 	// TODO: ajoutez ici le code de votre gestionnaire de messages et/ou les paramètres par défaut des appels
; 217  : 
; 218  : 	UINT i;	
; 219  : 	Analyse_back_groung *pt_traitement = new Analyse_back_groung;

	push	48					; 00000030H
	mov	DWORD PTR _hDropInfo$GSCopy$1$[ebp], eax
	call	??2@YAPAXI@Z				; operator new
	mov	esi, eax
	add	esp, 4
	mov	DWORD PTR $T1[ebp], esi
	mov	DWORD PTR __$EHRec$[ebp+8], 0
	test	esi, esi
	je	SHORT $LN6@OnDropFile
	push	48					; 00000030H
	push	0
	push	esi
	call	_memset
	add	esp, 12					; 0000000cH
	mov	ecx, esi
	call	??0Analyse_back_groung@@QAE@XZ		; Analyse_back_groung::Analyse_back_groung
	mov	ebx, eax
	mov	DWORD PTR $T9[ebp], eax
	jmp	SHORT $LN7@OnDropFile
$LN6@OnDropFile:
	xor	ebx, ebx
	mov	DWORD PTR $T9[ebp], ebx
$LN7@OnDropFile:

; 220  : 	
; 221  : 	UINT nFiles = ::DragQueryFile(hDropInfo, (UINT)-1, NULL, 0);

	mov	esi, DWORD PTR _hDropInfo$GSCopy$1$[ebp]
	push	0
	push	0
	push	-1
	push	esi
	mov	DWORD PTR __$EHRec$[ebp+8], -1
	call	DWORD PTR __imp__DragQueryFileW@16

; 223  : 	for (i = 0; i < nFiles; i++)

	xor	edi, edi
	mov	DWORD PTR _nFiles$1$[ebp], eax
	test	eax, eax
	je	$LN3@OnDropFile
	npad	6
$LL4@OnDropFile:

; 224  : 	{
; 225  : 		TCHAR szFileName[_MAX_PATH] =_T("");

	push	520					; 00000208H
	lea	eax, DWORD PTR _szFileName$11[ebp]
	push	0
	push	eax
	call	_memset
	add	esp, 12					; 0000000cH

; 226  : 
; 227  : 		::DragQueryFile(hDropInfo, i, szFileName, _MAX_PATH);

	lea	eax, DWORD PTR _szFileName$11[ebp]
	push	260					; 00000104H
	push	eax
	push	edi
	push	esi
	call	DWORD PTR __imp__DragQueryFileW@16
; File C:\Program Files (x86)\Microsoft Visual Studio\2019\Enterprise\VC\Tools\MSVC\14.23.28105\atlmfc\include\afxstr.h

; 52   : 		return( AfxGetStringManager() );

	call	?AfxGetStringManager@@YGPAUIAtlStringMgr@ATL@@XZ ; AfxGetStringManager
; File C:\Program Files (x86)\Microsoft Visual Studio\2019\Enterprise\VC\Tools\MSVC\14.23.28105\atlmfc\include\atlsimpstr.h

; 205  : 		ATLENSURE( pStringMgr != NULL );

	test	eax, eax
	je	$LN90@OnDropFile

; 206  : 		CStringData* pData = pStringMgr->GetNilString();

	mov	edx, DWORD PTR [eax]
	mov	ecx, eax
	call	DWORD PTR [edx+12]

; 59   : 		return (this+1);

	add	eax, 16					; 00000010H

; 780  : 		m_pszData = static_cast< PXSTR >( pData->data() );

	mov	DWORD PTR _chaine$10[ebp], eax
; File C:\Program Files (x86)\Microsoft Visual Studio\2019\Enterprise\VC\Tools\MSVC\14.23.28105\atlmfc\include\cstringt.h

; 2668 : 		if( (pv != NULL) && IS_INTRESOURCE( pv ) )

	lea	eax, DWORD PTR _szFileName$11[ebp]

; 1044 : 		CThisSimpleString( StringTraits::GetDefaultManager() )

	mov	DWORD PTR __$EHRec$[ebp+8], 1

; 2668 : 		if( (pv != NULL) && IS_INTRESOURCE( pv ) )

	test	eax, -65536				; ffff0000H
	jne	SHORT $LN96@OnDropFile

; 2669 : 		{
; 2670 : 			UINT nID = LOWORD( reinterpret_cast< DWORD_PTR >( pv ) );

	movzx	eax, ax

; 2671 : 			(nID);
; 2672 : #ifdef _ATL_USE_WINAPI_FAMILY_DESKTOP_APP
; 2673 : 			if( !LoadString( nID ) )

	lea	ecx, DWORD PTR _chaine$10[ebp]
	push	eax
	call	?LoadStringW@?$CStringT@_WV?$StrTraitMFC@_WV?$ChTraitsCRT@_W@ATL@@@@@ATL@@QAEHI@Z ; ATL::CStringT<wchar_t,StrTraitMFC<wchar_t,ATL::ChTraitsCRT<wchar_t> > >::LoadStringW

; 1046 : 		if( !CheckImplicitLoad( pszSrc ) )

	jmp	SHORT $LN18@OnDropFile
$LN96@OnDropFile:
; File C:\Program Files (x86)\Microsoft Visual Studio\2019\Enterprise\VC\Tools\MSVC\14.23.28105\atlmfc\include\atlsimpstr.h

; 734  : 		return( int( wcslen( psz ) ) );

	lea	edx, DWORD PTR [eax+2]
	npad	1
$LL98@OnDropFile:
	mov	cx, WORD PTR [eax]
	add	eax, 2
	test	cx, cx
	jne	SHORT $LL98@OnDropFile
	sub	eax, edx

; 602  : 		SetString( pszSrc, StringLength( pszSrc ) );

	lea	ecx, DWORD PTR _chaine$10[ebp]

; 734  : 		return( int( wcslen( psz ) ) );

	sar	eax, 1

; 602  : 		SetString( pszSrc, StringLength( pszSrc ) );

	push	eax
	lea	eax, DWORD PTR _szFileName$11[ebp]
	push	eax
	call	?SetString@?$CSimpleStringT@_W$0A@@ATL@@QAEXPB_WH@Z ; ATL::CSimpleStringT<wchar_t,0>::SetString
$LN18@OnDropFile:
; File I:\Projets\AES\AES\AES\AESDlg.cpp

; 228  : 		CString chaine(szFileName);

	mov	DWORD PTR __$EHRec$[ebp+8], 2
; File C:\Program Files (x86)\Microsoft Visual Studio\2019\Enterprise\VC\Tools\MSVC\14.23.28105\atlmfc\include\atlsimpstr.h

; 800  : 		return( reinterpret_cast< CStringData* >( m_pszData )-1 );

	mov	esi, DWORD PTR _chaine$10[ebp]
	add	esi, -16				; fffffff0H
; File I:\Projets\AES\AES\AES\AESDlg.cpp

; 229  : 		pt_traitement->Traitement_fichier(chaine);

	push	ecx
	mov	DWORD PTR _this$[ebp], esp
; File C:\Program Files (x86)\Microsoft Visual Studio\2019\Enterprise\VC\Tools\MSVC\14.23.28105\atlmfc\include\atlsimpstr.h

; 882  : 		IAtlStringMgr* pNewStringMgr = pData->pStringMgr->Clone();

	mov	ecx, DWORD PTR [esi]
	mov	eax, DWORD PTR [ecx]
	call	DWORD PTR [eax+16]

; 69   : 		return nRefs < 0;

	cmp	DWORD PTR [esi+12], 0

; 882  : 		IAtlStringMgr* pNewStringMgr = pData->pStringMgr->Clone();

	mov	ecx, eax

; 69   : 		return nRefs < 0;

	lea	eax, DWORD PTR [esi+12]

; 883  : 		if( !pData->IsLocked() && (pNewStringMgr == pData->pStringMgr) )

	jl	SHORT $LN97@OnDropFile
	cmp	ecx, DWORD PTR [esi]
	jne	SHORT $LN97@OnDropFile

; 884  : 		{
; 885  : 			pNewData = pData;

	mov	ebx, esi

; 65   : 		_InterlockedIncrement(&nRefs);

	lock	 inc	 DWORD PTR [eax]

; 887  : 		}

	jmp	SHORT $LN60@OnDropFile
$LN97@OnDropFile:

; 888  : 		else
; 889  : 		{
; 890  : 			pNewData = pNewStringMgr->Allocate( pData->nDataLength, sizeof( XCHAR ) );

	mov	eax, DWORD PTR [ecx]
	push	2
	push	DWORD PTR [esi+4]
	call	DWORD PTR [eax]
	mov	ebx, eax

; 891  : 			if( pNewData == NULL )

	test	ebx, ebx
	je	$LN91@OnDropFile

; 894  : 			}
; 895  : 			pNewData->nDataLength = pData->nDataLength;

	mov	ecx, DWORD PTR [esi+4]

; 59   : 		return (this+1);

	lea	eax, DWORD PTR [ebx+16]

; 895  : 			pNewData->nDataLength = pData->nDataLength;

	mov	DWORD PTR [ebx+4], ecx

; 59   : 		return (this+1);

	lea	ecx, DWORD PTR [esi+16]

; 896  : 			CopyChars( PXSTR( pNewData->data() ), pData->nDataLength+1,

	mov	edx, DWORD PTR [esi+4]
	inc	edx
	push	edx
	push	ecx
	push	edx
	push	eax
	call	?CopyChars@?$CSimpleStringT@_W$0A@@ATL@@SAXPA_WIPB_WH@Z ; ATL::CSimpleStringT<wchar_t,0>::CopyChars
	add	esp, 16					; 00000010H
$LN60@OnDropFile:

; 780  : 		m_pszData = static_cast< PXSTR >( pData->data() );

	mov	ecx, DWORD PTR _this$[ebp]

; 59   : 		return (this+1);

	lea	eax, DWORD PTR [ebx+16]
; File I:\Projets\AES\AES\AES\AESDlg.cpp

; 229  : 		pt_traitement->Traitement_fichier(chaine);

	mov	ebx, DWORD PTR $T9[ebp]
; File C:\Program Files (x86)\Microsoft Visual Studio\2019\Enterprise\VC\Tools\MSVC\14.23.28105\atlmfc\include\atlsimpstr.h

; 780  : 		m_pszData = static_cast< PXSTR >( pData->data() );

	mov	DWORD PTR [ecx], eax
; File I:\Projets\AES\AES\AES\AESDlg.cpp

; 229  : 		pt_traitement->Traitement_fichier(chaine);

	mov	ecx, ebx
	call	?Traitement_fichier@Analyse_back_groung@@QAE_NV?$CStringT@_WV?$StrTraitMFC@_WV?$ChTraitsCRT@_W@ATL@@@@@ATL@@@Z ; Analyse_back_groung::Traitement_fichier

; 230  : 		Affichage(pt_traitement->Calcul);

	push	DWORD PTR [ebx+4]
	mov	ecx, DWORD PTR _this$GSCopy$1$[ebp]
	push	DWORD PTR [ebx]
	call	?Affichage@CAESDlg@@QAEX_K@Z		; CAESDlg::Affichage

; 231  : 	} 

	mov	DWORD PTR __$EHRec$[ebp+8], -1
; File C:\Program Files (x86)\Microsoft Visual Studio\2019\Enterprise\VC\Tools\MSVC\14.23.28105\atlmfc\include\atlsimpstr.h

; 88   : 		if( _InterlockedDecrement( &nRefs ) <= 0 )

	lea	ecx, DWORD PTR [esi+12]
	or	eax, -1
	lock	 xadd	 DWORD PTR [ecx], eax
	dec	eax
	test	eax, eax
	jg	SHORT $LN2@OnDropFile

; 89   : 		{
; 90   : 			pStringMgr->Free( this );

	mov	ecx, DWORD PTR [esi]
	push	esi
	mov	eax, DWORD PTR [ecx]
	call	DWORD PTR [eax+4]
$LN2@OnDropFile:
; File I:\Projets\AES\AES\AES\AESDlg.cpp

; 223  : 	for (i = 0; i < nFiles; i++)

	mov	esi, DWORD PTR _hDropInfo$GSCopy$1$[ebp]
	inc	edi
	cmp	edi, DWORD PTR _nFiles$1$[ebp]
	jb	$LL4@OnDropFile
$LN3@OnDropFile:

; 232  : 
; 233  : 	delete pt_traitement;

	test	ebx, ebx
	je	SHORT $LN87@OnDropFile
	mov	ecx, ebx
	call	??1Analyse_back_groung@@QAE@XZ		; Analyse_back_groung::~Analyse_back_groung
	push	48					; 00000030H
	push	ebx
	call	??3@YAXPAXI@Z				; operator delete
	add	esp, 8
$LN87@OnDropFile:

; 234  : 	::DragFinish(hDropInfo);

	push	esi
	call	DWORD PTR __imp__DragFinish@4

; 235  : }

	mov	ecx, DWORD PTR __$EHRec$[ebp]
	mov	DWORD PTR fs:0, ecx
	pop	ecx
	pop	edi
	pop	esi
	pop	ebx
	mov	ecx, DWORD PTR __$ArrayPad$[ebp]
	xor	ecx, ebp
	call	@__security_check_cookie@4
	mov	esp, ebp
	pop	ebp
	ret	4
$LN90@OnDropFile:
; File C:\Program Files (x86)\Microsoft Visual Studio\2019\Enterprise\VC\Tools\MSVC\14.23.28105\atlmfc\include\atlsimpstr.h

; 205  : 		ATLENSURE( pStringMgr != NULL );

	push	-2147467259				; 80004005H
	call	?AtlThrowImpl@ATL@@YGXJ@Z		; ATL::AtlThrowImpl
$LN91@OnDropFile:

; 893  : 				ThrowMemoryException();

	call	?ThrowMemoryException@?$CSimpleStringT@_W$0A@@ATL@@KAXXZ ; ATL::CSimpleStringT<wchar_t,0>::ThrowMemoryException
$LN100@OnDropFile:
	int	3
_TEXT	ENDS
;	COMDAT text$x
text$x	SEGMENT
__unwindfunclet$?OnDropFiles@CAESDlg@@QAEXPAUHDROP__@@@Z$0:
	push	48					; 00000030H
	mov	eax, DWORD PTR $T1[ebp]
	push	eax
	call	??3@YAXPAXI@Z				; operator delete
	add	esp, 8
	ret	0
__unwindfunclet$?OnDropFiles@CAESDlg@@QAEXPAUHDROP__@@@Z$3:
	lea	ecx, DWORD PTR _chaine$10[ebp]
	jmp	??1?$CSimpleStringT@_W$0A@@ATL@@QAE@XZ	; ATL::CSimpleStringT<wchar_t,0>::~CSimpleStringT<wchar_t,0>
__unwindfunclet$?OnDropFiles@CAESDlg@@QAEXPAUHDROP__@@@Z$1:
	lea	ecx, DWORD PTR _chaine$10[ebp]
	jmp	??1?$CStringT@_WV?$StrTraitMFC@_WV?$ChTraitsCRT@_W@ATL@@@@@ATL@@QAE@XZ ; ATL::CStringT<wchar_t,StrTraitMFC<wchar_t,ATL::ChTraitsCRT<wchar_t> > >::~CStringT<wchar_t,StrTraitMFC<wchar_t,ATL::ChTraitsCRT<wchar_t> > >
__ehhandler$?OnDropFiles@CAESDlg@@QAEXPAUHDROP__@@@Z:
	mov	edx, DWORD PTR [esp+8]
	lea	eax, DWORD PTR [edx+12]
	mov	ecx, DWORD PTR [edx-564]
	xor	ecx, eax
	call	@__security_check_cookie@4
	mov	ecx, DWORD PTR [edx-4]
	xor	ecx, eax
	call	@__security_check_cookie@4
	mov	eax, OFFSET __ehfuncinfo$?OnDropFiles@CAESDlg@@QAEXPAUHDROP__@@@Z
	jmp	___CxxFrameHandler3
text$x	ENDS
?OnDropFiles@CAESDlg@@QAEXPAUHDROP__@@@Z ENDP		; CAESDlg::OnDropFiles
; Function compile flags: /Ogtp
; File C:\Program Files (x86)\Microsoft Visual Studio\2019\Enterprise\VC\Tools\MSVC\14.23.28105\atlmfc\include\afxwin2.inl
;	COMDAT ?Create@CDialog@@UAEHIPAVCWnd@@@Z
_TEXT	SEGMENT
_nIDTemplate$ = 8					; size = 4
_pParentWnd$ = 12					; size = 4
?Create@CDialog@@UAEHIPAVCWnd@@@Z PROC			; CDialog::Create, COMDAT
; _this$ = ecx

; 585  : 	{ return CDialog::Create(ATL_MAKEINTRESOURCE(nIDTemplate), pParentWnd); }

	push	ebp
	mov	ebp, esp
	movzx	eax, WORD PTR _nIDTemplate$[ebp]
	mov	DWORD PTR _nIDTemplate$[ebp], eax
	pop	ebp
	jmp	?Create@CDialog@@UAEHPB_WPAVCWnd@@@Z	; CDialog::Create
?Create@CDialog@@UAEHIPAVCWnd@@@Z ENDP			; CDialog::Create
_TEXT	ENDS
; Function compile flags: /Ogtp
; File C:\Program Files (x86)\Microsoft Visual Studio\2019\Enterprise\VC\Tools\MSVC\14.23.28105\atlmfc\include\afxwin2.inl
;	COMDAT ?EndModalState@CWnd@@UAEXXZ
_TEXT	SEGMENT
?EndModalState@CWnd@@UAEXXZ PROC			; CWnd::EndModalState, COMDAT
; _this$ = ecx

; 567  : 	{ ::EnableWindow(m_hWnd, TRUE); }

	push	1
	push	DWORD PTR [ecx+32]
	call	DWORD PTR __imp__EnableWindow@8
	ret	0
?EndModalState@CWnd@@UAEXXZ ENDP			; CWnd::EndModalState
_TEXT	ENDS
; Function compile flags: /Ogtp
; File C:\Program Files (x86)\Microsoft Visual Studio\2019\Enterprise\VC\Tools\MSVC\14.23.28105\atlmfc\include\afxwin2.inl
;	COMDAT ?BeginModalState@CWnd@@UAEXXZ
_TEXT	SEGMENT
?BeginModalState@CWnd@@UAEXXZ PROC			; CWnd::BeginModalState, COMDAT
; _this$ = ecx

; 565  : 	{ ::EnableWindow(m_hWnd, FALSE); }

	push	0
	push	DWORD PTR [ecx+32]
	call	DWORD PTR __imp__EnableWindow@8
	ret	0
?BeginModalState@CWnd@@UAEXXZ ENDP			; CWnd::BeginModalState
_TEXT	ENDS
; Function compile flags: /Ogtp
; File C:\Program Files (x86)\Microsoft Visual Studio\2019\Enterprise\VC\Tools\MSVC\14.23.28105\atlmfc\include\atlsimpstr.h
;	COMDAT ?AddRef@CStringData@ATL@@QAEXXZ
_TEXT	SEGMENT
?AddRef@CStringData@ATL@@QAEXXZ PROC			; ATL::CStringData::AddRef, COMDAT
; _this$ = ecx

; 64   : 		ATLASSERT(nRefs > 0);
; 65   : 		_InterlockedIncrement(&nRefs);

	lock	 inc	 DWORD PTR [ecx+12]

; 66   : 	}

	ret	0
?AddRef@CStringData@ATL@@QAEXXZ ENDP			; ATL::CStringData::AddRef
_TEXT	ENDS
; Function compile flags: /Ogtp
; File C:\Program Files (x86)\Microsoft Visual Studio\2019\Enterprise\VC\Tools\MSVC\14.23.28105\atlmfc\include\atlsimpstr.h
;	COMDAT ?CloneData@?$CSimpleStringT@_W$0A@@ATL@@CAPAUCStringData@2@PAU32@@Z
_TEXT	SEGMENT
_pData$ = 8						; size = 4
?CloneData@?$CSimpleStringT@_W$0A@@ATL@@CAPAUCStringData@2@PAU32@@Z PROC ; ATL::CSimpleStringT<wchar_t,0>::CloneData, COMDAT

; 879  : 	{

	push	ebp
	mov	ebp, esp
	push	esi

; 880  : 		CStringData* pNewData = NULL;
; 881  : 
; 882  : 		IAtlStringMgr* pNewStringMgr = pData->pStringMgr->Clone();

	mov	esi, DWORD PTR _pData$[ebp]
	push	edi
	mov	ecx, DWORD PTR [esi]
	mov	eax, DWORD PTR [ecx]
	call	DWORD PTR [eax+16]

; 69   : 		return nRefs < 0;

	cmp	DWORD PTR [esi+12], 0

; 880  : 		CStringData* pNewData = NULL;
; 881  : 
; 882  : 		IAtlStringMgr* pNewStringMgr = pData->pStringMgr->Clone();

	mov	ecx, eax

; 69   : 		return nRefs < 0;

	lea	eax, DWORD PTR [esi+12]

; 883  : 		if( !pData->IsLocked() && (pNewStringMgr == pData->pStringMgr) )

	jl	SHORT $LN2@CloneData
	cmp	ecx, DWORD PTR [esi]
	jne	SHORT $LN2@CloneData

; 884  : 		{
; 885  : 			pNewData = pData;

	mov	edi, esi

; 65   : 		_InterlockedIncrement(&nRefs);

	lock	 inc	 DWORD PTR [eax]

; 897  : 				PCXSTR( pData->data() ), pData->nDataLength+1 );  // Copy '\0'
; 898  : 		}
; 899  : 
; 900  : 		return( pNewData );

	mov	eax, edi
	pop	edi
	pop	esi

; 901  : 	}

	pop	ebp
	ret	0
$LN2@CloneData:

; 886  : 			pNewData->AddRef();
; 887  : 		}
; 888  : 		else
; 889  : 		{
; 890  : 			pNewData = pNewStringMgr->Allocate( pData->nDataLength, sizeof( XCHAR ) );

	mov	eax, DWORD PTR [ecx]
	push	2
	push	DWORD PTR [esi+4]
	call	DWORD PTR [eax]
	mov	edi, eax

; 891  : 			if( pNewData == NULL )

	test	edi, edi
	je	SHORT $LN16@CloneData

; 894  : 			}
; 895  : 			pNewData->nDataLength = pData->nDataLength;

	mov	eax, DWORD PTR [esi+4]
	mov	DWORD PTR [edi+4], eax

; 59   : 		return (this+1);

	lea	eax, DWORD PTR [esi+16]

; 896  : 			CopyChars( PXSTR( pNewData->data() ), pData->nDataLength+1,

	mov	ecx, DWORD PTR [esi+4]
	inc	ecx
	push	ecx
	push	eax
	push	ecx

; 59   : 		return (this+1);

	lea	eax, DWORD PTR [edi+16]

; 896  : 			CopyChars( PXSTR( pNewData->data() ), pData->nDataLength+1,

	push	eax
	call	?CopyChars@?$CSimpleStringT@_W$0A@@ATL@@SAXPA_WIPB_WH@Z ; ATL::CSimpleStringT<wchar_t,0>::CopyChars
	add	esp, 16					; 00000010H

; 897  : 				PCXSTR( pData->data() ), pData->nDataLength+1 );  // Copy '\0'
; 898  : 		}
; 899  : 
; 900  : 		return( pNewData );

	mov	eax, edi
	pop	edi
	pop	esi

; 901  : 	}

	pop	ebp
	ret	0
$LN16@CloneData:

; 892  : 			{
; 893  : 				ThrowMemoryException();

	call	?ThrowMemoryException@?$CSimpleStringT@_W$0A@@ATL@@KAXXZ ; ATL::CSimpleStringT<wchar_t,0>::ThrowMemoryException
$LN14@CloneData:
	int	3
?CloneData@?$CSimpleStringT@_W$0A@@ATL@@CAPAUCStringData@2@PAU32@@Z ENDP ; ATL::CSimpleStringT<wchar_t,0>::CloneData
_TEXT	ENDS
; Function compile flags: /Ogtp
; File C:\Program Files (x86)\Microsoft Visual Studio\2019\Enterprise\VC\Tools\MSVC\14.23.28105\atlmfc\include\atlsimpstr.h
;	COMDAT ??0?$CSimpleStringT@_W$0A@@ATL@@QAE@ABV01@@Z
_TEXT	SEGMENT
tv220 = 8						; size = 4
_strSrc$ = 8						; size = 4
??0?$CSimpleStringT@_W$0A@@ATL@@QAE@ABV01@@Z PROC	; ATL::CSimpleStringT<wchar_t,0>::CSimpleStringT<wchar_t,0>, COMDAT
; _this$ = ecx

; 210  : 	CSimpleStringT(_In_ const CSimpleStringT& strSrc)

	push	ebp
	mov	ebp, esp

; 800  : 		return( reinterpret_cast< CStringData* >( m_pszData )-1 );

	mov	eax, DWORD PTR _strSrc$[ebp]

; 210  : 	CSimpleStringT(_In_ const CSimpleStringT& strSrc)

	push	ebx
	push	esi
	mov	ebx, ecx

; 800  : 		return( reinterpret_cast< CStringData* >( m_pszData )-1 );

	mov	eax, DWORD PTR [eax]

; 882  : 		IAtlStringMgr* pNewStringMgr = pData->pStringMgr->Clone();

	mov	ecx, DWORD PTR [eax-16]

; 800  : 		return( reinterpret_cast< CStringData* >( m_pszData )-1 );

	lea	esi, DWORD PTR [eax-16]
	mov	DWORD PTR tv220[ebp], eax

; 882  : 		IAtlStringMgr* pNewStringMgr = pData->pStringMgr->Clone();

	mov	eax, DWORD PTR [ecx]
	call	DWORD PTR [eax+16]

; 69   : 		return nRefs < 0;

	cmp	DWORD PTR [esi+12], 0

; 882  : 		IAtlStringMgr* pNewStringMgr = pData->pStringMgr->Clone();

	mov	ecx, eax

; 69   : 		return nRefs < 0;

	lea	eax, DWORD PTR [esi+12]

; 883  : 		if( !pData->IsLocked() && (pNewStringMgr == pData->pStringMgr) )

	jl	SHORT $LN6@CSimpleStr
	cmp	ecx, DWORD PTR [esi]
	jne	SHORT $LN6@CSimpleStr

; 65   : 		_InterlockedIncrement(&nRefs);

	lock	 inc	 DWORD PTR [eax]

; 59   : 		return (this+1);

	lea	eax, DWORD PTR [esi+16]

; 780  : 		m_pszData = static_cast< PXSTR >( pData->data() );

	mov	DWORD PTR [ebx], eax

; 211  : 	{
; 212  : 		CStringData* pSrcData = strSrc.GetData();
; 213  : 		CStringData* pNewData = CloneData( pSrcData );
; 214  : 		Attach( pNewData );
; 215  : 	}

	mov	eax, ebx
	pop	esi
	pop	ebx
	pop	ebp
	ret	4
$LN6@CSimpleStr:

; 890  : 			pNewData = pNewStringMgr->Allocate( pData->nDataLength, sizeof( XCHAR ) );

	mov	eax, DWORD PTR [ecx]
	push	edi
	push	2
	push	DWORD PTR [esi+4]
	lea	edi, DWORD PTR [esi+4]
	call	DWORD PTR [eax]
	mov	esi, eax

; 891  : 			if( pNewData == NULL )

	test	esi, esi
	je	SHORT $LN25@CSimpleStr

; 894  : 			}
; 895  : 			pNewData->nDataLength = pData->nDataLength;

	mov	eax, DWORD PTR [edi]
	mov	DWORD PTR [esi+4], eax

; 896  : 			CopyChars( PXSTR( pNewData->data() ), pData->nDataLength+1,

	mov	eax, DWORD PTR [edi]
	inc	eax
	push	eax
	push	DWORD PTR tv220[ebp]
	push	eax

; 59   : 		return (this+1);

	lea	eax, DWORD PTR [esi+16]

; 896  : 			CopyChars( PXSTR( pNewData->data() ), pData->nDataLength+1,

	push	eax
	call	?CopyChars@?$CSimpleStringT@_W$0A@@ATL@@SAXPA_WIPB_WH@Z ; ATL::CSimpleStringT<wchar_t,0>::CopyChars
	add	esp, 16					; 00000010H

; 59   : 		return (this+1);

	lea	eax, DWORD PTR [esi+16]

; 780  : 		m_pszData = static_cast< PXSTR >( pData->data() );

	mov	DWORD PTR [ebx], eax

; 211  : 	{
; 212  : 		CStringData* pSrcData = strSrc.GetData();
; 213  : 		CStringData* pNewData = CloneData( pSrcData );
; 214  : 		Attach( pNewData );
; 215  : 	}

	mov	eax, ebx

; 896  : 			CopyChars( PXSTR( pNewData->data() ), pData->nDataLength+1,

	pop	edi

; 211  : 	{
; 212  : 		CStringData* pSrcData = strSrc.GetData();
; 213  : 		CStringData* pNewData = CloneData( pSrcData );
; 214  : 		Attach( pNewData );
; 215  : 	}

	pop	esi
	pop	ebx
	pop	ebp
	ret	4
$LN25@CSimpleStr:

; 893  : 				ThrowMemoryException();

	call	?ThrowMemoryException@?$CSimpleStringT@_W$0A@@ATL@@KAXXZ ; ATL::CSimpleStringT<wchar_t,0>::ThrowMemoryException
$LN23@CSimpleStr:
	int	3
??0?$CSimpleStringT@_W$0A@@ATL@@QAE@ABV01@@Z ENDP	; ATL::CSimpleStringT<wchar_t,0>::CSimpleStringT<wchar_t,0>
_TEXT	ENDS
; Function compile flags: /Ogtp
; File C:\Program Files (x86)\Microsoft Visual Studio\2019\Enterprise\VC\Tools\MSVC\14.23.28105\atlmfc\include\cstringt.h
; File C:\Program Files (x86)\Microsoft Visual Studio\2019\Enterprise\VC\Tools\MSVC\14.23.28105\atlmfc\include\atlsimpstr.h
; File C:\Program Files (x86)\Microsoft Visual Studio\2019\Enterprise\VC\Tools\MSVC\14.23.28105\atlmfc\include\cstringt.h
; File C:\Program Files (x86)\Microsoft Visual Studio\2019\Enterprise\VC\Tools\MSVC\14.23.28105\atlmfc\include\atlsimpstr.h
; File C:\Program Files (x86)\Microsoft Visual Studio\2019\Enterprise\VC\Tools\MSVC\14.23.28105\atlmfc\include\cstringt.h
; File C:\Program Files (x86)\Microsoft Visual Studio\2019\Enterprise\VC\Tools\MSVC\14.23.28105\atlmfc\include\atlsimpstr.h
; File C:\Program Files (x86)\Microsoft Visual Studio\2019\Enterprise\VC\Tools\MSVC\14.23.28105\atlmfc\include\cstringt.h
; File C:\Program Files (x86)\Microsoft Visual Studio\2019\Enterprise\VC\Tools\MSVC\14.23.28105\atlmfc\include\atlsimpstr.h
; File C:\Program Files (x86)\Microsoft Visual Studio\2019\Enterprise\VC\Tools\MSVC\14.23.28105\atlmfc\include\cstringt.h
; File C:\Program Files (x86)\Microsoft Visual Studio\2019\Enterprise\VC\Tools\MSVC\14.23.28105\atlmfc\include\atlsimpstr.h
; File C:\Program Files (x86)\Microsoft Visual Studio\2019\Enterprise\VC\Tools\MSVC\14.23.28105\atlmfc\include\cstringt.h
; File C:\Program Files (x86)\Microsoft Visual Studio\2019\Enterprise\VC\Tools\MSVC\14.23.28105\atlmfc\include\atlsimpstr.h
; File C:\Program Files (x86)\Microsoft Visual Studio\2019\Enterprise\VC\Tools\MSVC\14.23.28105\atlmfc\include\cstringt.h
;	COMDAT ??0?$CStringT@_WV?$StrTraitMFC@_WV?$ChTraitsCRT@_W@ATL@@@@@ATL@@QAE@ABV01@@Z
_TEXT	SEGMENT
_this$ = -4						; size = 4
tv252 = 8						; size = 4
_strSrc$ = 8						; size = 4
??0?$CStringT@_WV?$StrTraitMFC@_WV?$ChTraitsCRT@_W@ATL@@@@@ATL@@QAE@ABV01@@Z PROC ; ATL::CStringT<wchar_t,StrTraitMFC<wchar_t,ATL::ChTraitsCRT<wchar_t> > >::CStringT<wchar_t,StrTraitMFC<wchar_t,ATL::ChTraitsCRT<wchar_t> > >, COMDAT
; _this$ = ecx

; 1028 : 	{

	push	ebp
	mov	ebp, esp
	push	ecx
; File C:\Program Files (x86)\Microsoft Visual Studio\2019\Enterprise\VC\Tools\MSVC\14.23.28105\atlmfc\include\atlsimpstr.h

; 800  : 		return( reinterpret_cast< CStringData* >( m_pszData )-1 );

	mov	eax, DWORD PTR _strSrc$[ebp]
; File C:\Program Files (x86)\Microsoft Visual Studio\2019\Enterprise\VC\Tools\MSVC\14.23.28105\atlmfc\include\cstringt.h

; 1028 : 	{

	push	ebx
	push	esi
	mov	ebx, ecx
; File C:\Program Files (x86)\Microsoft Visual Studio\2019\Enterprise\VC\Tools\MSVC\14.23.28105\atlmfc\include\atlsimpstr.h

; 800  : 		return( reinterpret_cast< CStringData* >( m_pszData )-1 );

	mov	eax, DWORD PTR [eax]

; 882  : 		IAtlStringMgr* pNewStringMgr = pData->pStringMgr->Clone();

	mov	ecx, DWORD PTR [eax-16]

; 800  : 		return( reinterpret_cast< CStringData* >( m_pszData )-1 );

	lea	esi, DWORD PTR [eax-16]
	mov	DWORD PTR tv252[ebp], eax
; File C:\Program Files (x86)\Microsoft Visual Studio\2019\Enterprise\VC\Tools\MSVC\14.23.28105\atlmfc\include\cstringt.h

; 1028 : 	{

	mov	DWORD PTR _this$[ebp], ebx
; File C:\Program Files (x86)\Microsoft Visual Studio\2019\Enterprise\VC\Tools\MSVC\14.23.28105\atlmfc\include\atlsimpstr.h

; 882  : 		IAtlStringMgr* pNewStringMgr = pData->pStringMgr->Clone();

	mov	eax, DWORD PTR [ecx]
	call	DWORD PTR [eax+16]

; 69   : 		return nRefs < 0;

	cmp	DWORD PTR [esi+12], 0

; 882  : 		IAtlStringMgr* pNewStringMgr = pData->pStringMgr->Clone();

	mov	ecx, eax

; 69   : 		return nRefs < 0;

	lea	eax, DWORD PTR [esi+12]

; 883  : 		if( !pData->IsLocked() && (pNewStringMgr == pData->pStringMgr) )

	jl	SHORT $LN9@CStringT
	cmp	ecx, DWORD PTR [esi]
	jne	SHORT $LN9@CStringT

; 65   : 		_InterlockedIncrement(&nRefs);

	lock	 inc	 DWORD PTR [eax]

; 59   : 		return (this+1);

	lea	eax, DWORD PTR [esi+16]

; 780  : 		m_pszData = static_cast< PXSTR >( pData->data() );

	mov	DWORD PTR [ebx], eax
; File C:\Program Files (x86)\Microsoft Visual Studio\2019\Enterprise\VC\Tools\MSVC\14.23.28105\atlmfc\include\cstringt.h

; 1029 : 	}

	mov	eax, ebx
	pop	esi
	pop	ebx
	mov	esp, ebp
	pop	ebp
	ret	4
$LN9@CStringT:
; File C:\Program Files (x86)\Microsoft Visual Studio\2019\Enterprise\VC\Tools\MSVC\14.23.28105\atlmfc\include\atlsimpstr.h

; 890  : 			pNewData = pNewStringMgr->Allocate( pData->nDataLength, sizeof( XCHAR ) );

	mov	eax, DWORD PTR [ecx]
	push	edi
	push	2
	push	DWORD PTR [esi+4]
	lea	edi, DWORD PTR [esi+4]
	call	DWORD PTR [eax]
	mov	esi, eax

; 891  : 			if( pNewData == NULL )

	test	esi, esi
	je	SHORT $LN29@CStringT

; 894  : 			}
; 895  : 			pNewData->nDataLength = pData->nDataLength;

	mov	eax, DWORD PTR [edi]
	mov	DWORD PTR [esi+4], eax

; 896  : 			CopyChars( PXSTR( pNewData->data() ), pData->nDataLength+1,

	mov	eax, DWORD PTR [edi]
	inc	eax
	push	eax
	push	DWORD PTR tv252[ebp]
	push	eax

; 59   : 		return (this+1);

	lea	eax, DWORD PTR [esi+16]

; 896  : 			CopyChars( PXSTR( pNewData->data() ), pData->nDataLength+1,

	push	eax
	call	?CopyChars@?$CSimpleStringT@_W$0A@@ATL@@SAXPA_WIPB_WH@Z ; ATL::CSimpleStringT<wchar_t,0>::CopyChars
	add	esp, 16					; 00000010H

; 59   : 		return (this+1);

	lea	eax, DWORD PTR [esi+16]

; 780  : 		m_pszData = static_cast< PXSTR >( pData->data() );

	mov	DWORD PTR [ebx], eax
; File C:\Program Files (x86)\Microsoft Visual Studio\2019\Enterprise\VC\Tools\MSVC\14.23.28105\atlmfc\include\cstringt.h

; 1029 : 	}

	mov	eax, ebx
; File C:\Program Files (x86)\Microsoft Visual Studio\2019\Enterprise\VC\Tools\MSVC\14.23.28105\atlmfc\include\atlsimpstr.h

; 896  : 			CopyChars( PXSTR( pNewData->data() ), pData->nDataLength+1,

	pop	edi
; File C:\Program Files (x86)\Microsoft Visual Studio\2019\Enterprise\VC\Tools\MSVC\14.23.28105\atlmfc\include\cstringt.h

; 1029 : 	}

	pop	esi
	pop	ebx
	mov	esp, ebp
	pop	ebp
	ret	4
$LN29@CStringT:
; File C:\Program Files (x86)\Microsoft Visual Studio\2019\Enterprise\VC\Tools\MSVC\14.23.28105\atlmfc\include\atlsimpstr.h

; 893  : 				ThrowMemoryException();

	call	?ThrowMemoryException@?$CSimpleStringT@_W$0A@@ATL@@KAXXZ ; ATL::CSimpleStringT<wchar_t,0>::ThrowMemoryException
$LN27@CStringT:
	int	3
??0?$CStringT@_WV?$StrTraitMFC@_WV?$ChTraitsCRT@_W@ATL@@@@@ATL@@QAE@ABV01@@Z ENDP ; ATL::CStringT<wchar_t,StrTraitMFC<wchar_t,ATL::ChTraitsCRT<wchar_t> > >::CStringT<wchar_t,StrTraitMFC<wchar_t,ATL::ChTraitsCRT<wchar_t> > >
_TEXT	ENDS
; Function compile flags: /Ogtp
; File C:\Program Files (x86)\Microsoft Visual Studio\2019\Enterprise\VC\Tools\MSVC\14.23.28105\atlmfc\include\cstringt.h
;	COMDAT ?CheckImplicitLoad@?$CStringT@_WV?$StrTraitMFC@_WV?$ChTraitsCRT@_W@ATL@@@@@ATL@@AAE_NPBX@Z
_TEXT	SEGMENT
_pv$ = 8						; size = 4
?CheckImplicitLoad@?$CStringT@_WV?$StrTraitMFC@_WV?$ChTraitsCRT@_W@ATL@@@@@ATL@@AAE_NPBX@Z PROC ; ATL::CStringT<wchar_t,StrTraitMFC<wchar_t,ATL::ChTraitsCRT<wchar_t> > >::CheckImplicitLoad, COMDAT
; _this$ = ecx

; 2665 : 	{

	push	ebp
	mov	ebp, esp

; 2666 : 		bool bRet = false;
; 2667 : 
; 2668 : 		if( (pv != NULL) && IS_INTRESOURCE( pv ) )

	mov	eax, DWORD PTR _pv$[ebp]
	xor	dl, dl
	test	eax, eax
	je	SHORT $LN5@CheckImpli
	test	eax, -65536				; ffff0000H
	jne	SHORT $LN5@CheckImpli

; 2669 : 		{
; 2670 : 			UINT nID = LOWORD( reinterpret_cast< DWORD_PTR >( pv ) );

	movzx	eax, ax

; 2671 : 			(nID);
; 2672 : #ifdef _ATL_USE_WINAPI_FAMILY_DESKTOP_APP
; 2673 : 			if( !LoadString( nID ) )

	push	eax
	call	?LoadStringW@?$CStringT@_WV?$StrTraitMFC@_WV?$ChTraitsCRT@_W@ATL@@@@@ATL@@QAEHI@Z ; ATL::CStringT<wchar_t,StrTraitMFC<wchar_t,ATL::ChTraitsCRT<wchar_t> > >::LoadStringW

; 2674 : 			{
; 2675 : 				ATLTRACE( atlTraceString, 2, _T( "Warning: implicit LoadString(%u) failed\n" ), nID );
; 2676 : 			}
; 2677 : 			bRet = true;

	mov	al, 1

; 2678 : #else
; 2679 : 			ATLTRACE( atlTraceString, 2, _T( "Warning: LoadString(%u) not supported under the current WINAPI_FAMILY.\n" ), nID );
; 2680 : #endif
; 2681 : 		}
; 2682 : 
; 2683 : 		return( bRet );
; 2684 : 	}

	pop	ebp
	ret	4
$LN5@CheckImpli:
	mov	al, dl
	pop	ebp
	ret	4
?CheckImplicitLoad@?$CStringT@_WV?$StrTraitMFC@_WV?$ChTraitsCRT@_W@ATL@@@@@ATL@@AAE_NPBX@Z ENDP ; ATL::CStringT<wchar_t,StrTraitMFC<wchar_t,ATL::ChTraitsCRT<wchar_t> > >::CheckImplicitLoad
_TEXT	ENDS
; Function compile flags: /Ogtp
; File C:\Program Files (x86)\Microsoft Visual Studio\2019\Enterprise\VC\Tools\MSVC\14.23.28105\atlmfc\include\atlsimpstr.h
;	COMDAT ?IsLocked@CStringData@ATL@@QBE_NXZ
_TEXT	SEGMENT
?IsLocked@CStringData@ATL@@QBE_NXZ PROC			; ATL::CStringData::IsLocked, COMDAT
; _this$ = ecx

; 69   : 		return nRefs < 0;

	mov	eax, DWORD PTR [ecx+12]
	shr	eax, 31					; 0000001fH

; 70   : 	}

	ret	0
?IsLocked@CStringData@ATL@@QBE_NXZ ENDP			; ATL::CStringData::IsLocked
_TEXT	ENDS
; Function compile flags: /Ogtp
; File C:\Program Files (x86)\Microsoft Visual Studio\2019\Enterprise\VC\Tools\MSVC\14.23.28105\atlmfc\include\atlsimpstr.h
;	COMDAT ?Empty@?$CSimpleStringT@_W$0A@@ATL@@QAEXXZ
_TEXT	SEGMENT
?Empty@?$CSimpleStringT@_W$0A@@ATL@@QAEXXZ PROC		; ATL::CSimpleStringT<wchar_t,0>::Empty, COMDAT
; _this$ = ecx

; 436  : 	{

	push	esi
	mov	esi, ecx
	push	edi

; 800  : 		return( reinterpret_cast< CStringData* >( m_pszData )-1 );

	mov	eax, DWORD PTR [esi]

; 439  : 		if( pOldData->nDataLength == 0 )

	cmp	DWORD PTR [eax-12], 0

; 800  : 		return( reinterpret_cast< CStringData* >( m_pszData )-1 );

	lea	edx, DWORD PTR [eax-16]

; 437  : 		CStringData* pOldData = GetData();
; 438  : 		IAtlStringMgr* pStringMgr = pOldData->pStringMgr;

	mov	edi, DWORD PTR [edx]

; 439  : 		if( pOldData->nDataLength == 0 )

	je	SHORT $LN4@Empty

; 69   : 		return nRefs < 0;

	cmp	DWORD PTR [edx+12], 0
	lea	ecx, DWORD PTR [edx+12]

; 440  : 		{
; 441  : 			return;
; 442  : 		}
; 443  : 
; 444  : 		if( pOldData->IsLocked() )

	jge	SHORT $LN3@Empty

; 871  : 		if( nLength < 0 || nLength > GetData()->nAllocLength)

	cmp	DWORD PTR [eax-8], 0
	jl	SHORT $LN28@Empty

; 873  : 
; 874  : 		GetData()->nDataLength = nLength;

	mov	DWORD PTR [eax-12], 0

; 875  : 		m_pszData[nLength] = 0;

	xor	ecx, ecx
	mov	eax, DWORD PTR [esi]
	pop	edi

; 453  : 			Attach( pNewData );
; 454  : 		}
; 455  : 	}

	pop	esi

; 875  : 		m_pszData[nLength] = 0;

	mov	WORD PTR [eax], cx

; 453  : 			Attach( pNewData );
; 454  : 		}
; 455  : 	}

	ret	0
$LN3@Empty:

; 88   : 		if( _InterlockedDecrement( &nRefs ) <= 0 )

	or	eax, -1
	lock	 xadd	 DWORD PTR [ecx], eax
	dec	eax
	test	eax, eax
	jg	SHORT $LN20@Empty

; 89   : 		{
; 90   : 			pStringMgr->Free( this );

	mov	ecx, DWORD PTR [edx]
	push	edx
	mov	eax, DWORD PTR [ecx]
	call	DWORD PTR [eax+4]
$LN20@Empty:

; 445  : 		{
; 446  : 			// Don't reallocate a locked buffer that's shrinking
; 447  : 			SetLength( 0 );
; 448  : 		}
; 449  : 		else
; 450  : 		{
; 451  : 			pOldData->Release();
; 452  : 			CStringData* pNewData = pStringMgr->GetNilString();

	mov	eax, DWORD PTR [edi]
	mov	ecx, edi
	call	DWORD PTR [eax+12]

; 59   : 		return (this+1);

	add	eax, 16					; 00000010H

; 780  : 		m_pszData = static_cast< PXSTR >( pData->data() );

	mov	DWORD PTR [esi], eax
$LN4@Empty:
	pop	edi

; 453  : 			Attach( pNewData );
; 454  : 		}
; 455  : 	}

	pop	esi
	ret	0
$LN28@Empty:

; 872  : 			AtlThrow(E_INVALIDARG);

	push	-2147024809				; 80070057H
	call	?AtlThrowImpl@ATL@@YGXJ@Z		; ATL::AtlThrowImpl
$LN26@Empty:
	int	3
?Empty@?$CSimpleStringT@_W$0A@@ATL@@QAEXXZ ENDP		; ATL::CSimpleStringT<wchar_t,0>::Empty
_TEXT	ENDS
; Function compile flags: /Ogtp
; File C:\Program Files (x86)\Microsoft Visual Studio\2019\Enterprise\VC\Tools\MSVC\14.23.28105\atlmfc\include\atlsimpstr.h
;	COMDAT ?GetLength@?$CSimpleStringT@_W$0A@@ATL@@QBEHXZ
_TEXT	SEGMENT
?GetLength@?$CSimpleStringT@_W$0A@@ATL@@QBEHXZ PROC	; ATL::CSimpleStringT<wchar_t,0>::GetLength, COMDAT
; _this$ = ecx

; 519  : 		return( GetData()->nDataLength );

	mov	eax, DWORD PTR [ecx]
	mov	eax, DWORD PTR [eax-12]

; 520  : 	}

	ret	0
?GetLength@?$CSimpleStringT@_W$0A@@ATL@@QBEHXZ ENDP	; ATL::CSimpleStringT<wchar_t,0>::GetLength
_TEXT	ENDS
; Function compile flags: /Ogtp
; File C:\Program Files (x86)\Microsoft Visual Studio\2019\Enterprise\VC\Tools\MSVC\14.23.28105\atlmfc\include\atlsimpstr.h
;	COMDAT ?GetString@?$CSimpleStringT@_W$0A@@ATL@@QBEPB_WXZ
_TEXT	SEGMENT
?GetString@?$CSimpleStringT@_W$0A@@ATL@@QBEPB_WXZ PROC	; ATL::CSimpleStringT<wchar_t,0>::GetString, COMDAT
; _this$ = ecx

; 529  : 		return( m_pszData );

	mov	eax, DWORD PTR [ecx]

; 530  : 	}

	ret	0
?GetString@?$CSimpleStringT@_W$0A@@ATL@@QBEPB_WXZ ENDP	; ATL::CSimpleStringT<wchar_t,0>::GetString
_TEXT	ENDS
; Function compile flags: /Ogtp
; File C:\Program Files (x86)\Windows Kits\10\Include\10.0.18362.0\ucrt\corecrt_memcpy_s.h
;	COMDAT _memmove_s
_TEXT	SEGMENT
__Source$ = 8						; size = 4
__SourceSize$ = 12					; size = 4
_memmove_s PROC						; COMDAT
; __Destination$ = ecx
; __DestinationSize$ = edx

; 70   :     {

	push	ebp
	mov	ebp, esp

; 71   :         if (_SourceSize == 0)

	mov	eax, DWORD PTR __SourceSize$[ebp]
	push	esi
	mov	esi, ecx
	test	eax, eax
	je	SHORT $LN7@memmove_s

; 72   :         {
; 73   :             return 0;
; 74   :         }
; 75   : 
; 76   :         _CRT_MEMCPY_S_VALIDATE_RETURN_ERRCODE(_Destination != NULL,            EINVAL);

	test	esi, esi
	jne	SHORT $LN3@memmove_s
$LN8@memmove_s:

; 82   :         return 0;
; 83   :     }

	call	__errno
	mov	DWORD PTR [eax], 22			; 00000016H
	call	__invalid_parameter_noinfo
	mov	eax, 22					; 00000016H
	pop	esi
	pop	ebp
	ret	0
$LN3@memmove_s:

; 77   :         _CRT_MEMCPY_S_VALIDATE_RETURN_ERRCODE(_Source != NULL,                 EINVAL);

	mov	ecx, DWORD PTR __Source$[ebp]
	test	ecx, ecx
	je	SHORT $LN8@memmove_s

; 78   :         _CRT_MEMCPY_S_VALIDATE_RETURN_ERRCODE(_DestinationSize >= _SourceSize, ERANGE);

	cmp	edx, eax
	jae	SHORT $LN5@memmove_s
	call	__errno
	mov	DWORD PTR [eax], 34			; 00000022H
	call	__invalid_parameter_noinfo
	mov	eax, 34					; 00000022H
	pop	esi

; 82   :         return 0;
; 83   :     }

	pop	ebp
	ret	0
$LN5@memmove_s:

; 79   : 
; 80   : #pragma warning(suppress:4996) // Deprecation
; 81   :         memmove(_Destination, _Source, _SourceSize);

	push	eax
	push	ecx
	push	esi
	call	_memmove
	add	esp, 12					; 0000000cH
$LN7@memmove_s:

; 82   :         return 0;
; 83   :     }

	xor	eax, eax
	pop	esi
	pop	ebp
	ret	0
_memmove_s ENDP
_TEXT	ENDS
; Function compile flags: /Ogtp
; File C:\Program Files (x86)\Microsoft Visual Studio\2019\Enterprise\VC\Tools\MSVC\14.23.28105\atlmfc\include\atlsimpstr.h
; File C:\Program Files (x86)\Windows Kits\10\Include\10.0.18362.0\ucrt\corecrt_memcpy_s.h
; File C:\Program Files (x86)\Microsoft Visual Studio\2019\Enterprise\VC\Tools\MSVC\14.23.28105\atlmfc\include\atlsimpstr.h
; File C:\Program Files (x86)\Windows Kits\10\Include\10.0.18362.0\ucrt\corecrt_memcpy_s.h
; File C:\Program Files (x86)\Microsoft Visual Studio\2019\Enterprise\VC\Tools\MSVC\14.23.28105\atlmfc\include\atlsimpstr.h
; File C:\Program Files (x86)\Windows Kits\10\Include\10.0.18362.0\ucrt\corecrt_memcpy_s.h
; File C:\Program Files (x86)\Microsoft Visual Studio\2019\Enterprise\VC\Tools\MSVC\14.23.28105\atlmfc\include\atlsimpstr.h
; File C:\Program Files (x86)\Windows Kits\10\Include\10.0.18362.0\ucrt\corecrt_memcpy_s.h
; File C:\Program Files (x86)\Microsoft Visual Studio\2019\Enterprise\VC\Tools\MSVC\14.23.28105\atlmfc\include\atlsimpstr.h
; File C:\Program Files (x86)\Windows Kits\10\Include\10.0.18362.0\ucrt\corecrt_memcpy_s.h
; File C:\Program Files (x86)\Microsoft Visual Studio\2019\Enterprise\VC\Tools\MSVC\14.23.28105\atlmfc\include\atlsimpstr.h
;	COMDAT ?CopyCharsOverlapped@?$CSimpleStringT@_W$0A@@ATL@@SAXPA_WIPB_WH@Z
_TEXT	SEGMENT
_pchDest$ = 8						; size = 4
_nDestLen$ = 12						; size = 4
_pchSrc$ = 16						; size = 4
_nChars$ = 20						; size = 4
?CopyCharsOverlapped@?$CSimpleStringT@_W$0A@@ATL@@SAXPA_WIPB_WH@Z PROC ; ATL::CSimpleStringT<wchar_t,0>::CopyCharsOverlapped, COMDAT

; 716  : 	{

	push	ebp
	mov	ebp, esp

; 717  : 		memmove_s( pchDest, nDestLen*sizeof( XCHAR ),

	mov	eax, DWORD PTR _nChars$[ebp]
	lea	ecx, DWORD PTR [eax+eax]
; File C:\Program Files (x86)\Windows Kits\10\Include\10.0.18362.0\ucrt\corecrt_memcpy_s.h

; 71   :         if (_SourceSize == 0)

	test	ecx, ecx
	je	SHORT $LN3@CopyCharsO

; 76   :         _CRT_MEMCPY_S_VALIDATE_RETURN_ERRCODE(_Destination != NULL,            EINVAL);

	mov	edx, DWORD PTR _pchDest$[ebp]
	test	edx, edx
	jne	SHORT $LN5@CopyCharsO
	call	__errno
	mov	DWORD PTR [eax], 22			; 00000016H
; File C:\Program Files (x86)\Microsoft Visual Studio\2019\Enterprise\VC\Tools\MSVC\14.23.28105\atlmfc\include\atlsimpstr.h

; 719  : 	}

	pop	ebp
; File C:\Program Files (x86)\Windows Kits\10\Include\10.0.18362.0\ucrt\corecrt_memcpy_s.h

; 76   :         _CRT_MEMCPY_S_VALIDATE_RETURN_ERRCODE(_Destination != NULL,            EINVAL);

	jmp	__invalid_parameter_noinfo
$LN5@CopyCharsO:

; 77   :         _CRT_MEMCPY_S_VALIDATE_RETURN_ERRCODE(_Source != NULL,                 EINVAL);

	cmp	DWORD PTR _pchSrc$[ebp], 0
	jne	SHORT $LN6@CopyCharsO
	call	__errno
	mov	DWORD PTR [eax], 22			; 00000016H
; File C:\Program Files (x86)\Microsoft Visual Studio\2019\Enterprise\VC\Tools\MSVC\14.23.28105\atlmfc\include\atlsimpstr.h

; 719  : 	}

	pop	ebp
; File C:\Program Files (x86)\Windows Kits\10\Include\10.0.18362.0\ucrt\corecrt_memcpy_s.h

; 77   :         _CRT_MEMCPY_S_VALIDATE_RETURN_ERRCODE(_Source != NULL,                 EINVAL);

	jmp	__invalid_parameter_noinfo
$LN6@CopyCharsO:
; File C:\Program Files (x86)\Microsoft Visual Studio\2019\Enterprise\VC\Tools\MSVC\14.23.28105\atlmfc\include\atlsimpstr.h

; 717  : 		memmove_s( pchDest, nDestLen*sizeof( XCHAR ),

	mov	eax, DWORD PTR _nDestLen$[ebp]
	add	eax, eax
; File C:\Program Files (x86)\Windows Kits\10\Include\10.0.18362.0\ucrt\corecrt_memcpy_s.h

; 78   :         _CRT_MEMCPY_S_VALIDATE_RETURN_ERRCODE(_DestinationSize >= _SourceSize, ERANGE);

	cmp	eax, ecx
	jae	SHORT $LN7@CopyCharsO
	call	__errno
	mov	DWORD PTR [eax], 34			; 00000022H
; File C:\Program Files (x86)\Microsoft Visual Studio\2019\Enterprise\VC\Tools\MSVC\14.23.28105\atlmfc\include\atlsimpstr.h

; 719  : 	}

	pop	ebp
; File C:\Program Files (x86)\Windows Kits\10\Include\10.0.18362.0\ucrt\corecrt_memcpy_s.h

; 78   :         _CRT_MEMCPY_S_VALIDATE_RETURN_ERRCODE(_DestinationSize >= _SourceSize, ERANGE);

	jmp	__invalid_parameter_noinfo
$LN7@CopyCharsO:

; 79   : 
; 80   : #pragma warning(suppress:4996) // Deprecation
; 81   :         memmove(_Destination, _Source, _SourceSize);

	push	ecx
	push	DWORD PTR _pchSrc$[ebp]
	push	edx
	call	_memmove
	add	esp, 12					; 0000000cH
$LN3@CopyCharsO:
; File C:\Program Files (x86)\Microsoft Visual Studio\2019\Enterprise\VC\Tools\MSVC\14.23.28105\atlmfc\include\atlsimpstr.h

; 719  : 	}

	pop	ebp
	ret	0
?CopyCharsOverlapped@?$CSimpleStringT@_W$0A@@ATL@@SAXPA_WIPB_WH@Z ENDP ; ATL::CSimpleStringT<wchar_t,0>::CopyCharsOverlapped
_TEXT	ENDS
; Function compile flags: /Ogtp
; File C:\Program Files (x86)\Microsoft Visual Studio\2019\Enterprise\VC\Tools\MSVC\14.23.28105\atlmfc\include\atlsimpstr.h
;	COMDAT ?GetAllocLength@?$CSimpleStringT@_W$0A@@ATL@@QBEHXZ
_TEXT	SEGMENT
?GetAllocLength@?$CSimpleStringT@_W$0A@@ATL@@QBEHXZ PROC ; ATL::CSimpleStringT<wchar_t,0>::GetAllocLength, COMDAT
; _this$ = ecx

; 486  : 		return( GetData()->nAllocLength );

	mov	eax, DWORD PTR [ecx]
	mov	eax, DWORD PTR [eax-8]

; 487  : 	}

	ret	0
?GetAllocLength@?$CSimpleStringT@_W$0A@@ATL@@QBEHXZ ENDP ; ATL::CSimpleStringT<wchar_t,0>::GetAllocLength
_TEXT	ENDS
; Function compile flags: /Ogtp
; File C:\Program Files (x86)\Microsoft Visual Studio\2019\Enterprise\VC\Tools\MSVC\14.23.28105\atlmfc\include\atlsimpstr.h
; File C:\Program Files (x86)\Windows Kits\10\Include\10.0.18362.0\ucrt\corecrt_memcpy_s.h
; File C:\Program Files (x86)\Microsoft Visual Studio\2019\Enterprise\VC\Tools\MSVC\14.23.28105\atlmfc\include\atlsimpstr.h
; File C:\Program Files (x86)\Windows Kits\10\Include\10.0.18362.0\ucrt\corecrt_memcpy_s.h
; File C:\Program Files (x86)\Microsoft Visual Studio\2019\Enterprise\VC\Tools\MSVC\14.23.28105\atlmfc\include\atlsimpstr.h
;	COMDAT ?SetString@?$CSimpleStringT@_W$0A@@ATL@@QAEXPB_WH@Z
_TEXT	SEGMENT
_pszSrc$ = 8						; size = 4
_nOldLength$1$ = 12					; size = 4
_nLength$ = 12						; size = 4
?SetString@?$CSimpleStringT@_W$0A@@ATL@@QAEXPB_WH@Z PROC ; ATL::CSimpleStringT<wchar_t,0>::SetString, COMDAT
; _this$ = ecx

; 607  : 	{

	push	ebp
	mov	ebp, esp
	push	esi

; 608  : 		if( nLength == 0 )

	mov	esi, DWORD PTR _nLength$[ebp]
	push	edi
	mov	edi, ecx
	test	esi, esi
	jne	SHORT $LN2@SetString

; 800  : 		return( reinterpret_cast< CStringData* >( m_pszData )-1 );

	mov	eax, DWORD PTR [edi]

; 439  : 		if( pOldData->nDataLength == 0 )

	cmp	DWORD PTR [eax-12], 0

; 800  : 		return( reinterpret_cast< CStringData* >( m_pszData )-1 );

	lea	edx, DWORD PTR [eax-16]

; 438  : 		IAtlStringMgr* pStringMgr = pOldData->pStringMgr;

	mov	esi, DWORD PTR [edx]

; 439  : 		if( pOldData->nDataLength == 0 )

	je	SHORT $LN70@SetString

; 69   : 		return nRefs < 0;

	cmp	DWORD PTR [edx+12], 0
	lea	ecx, DWORD PTR [edx+12]

; 444  : 		if( pOldData->IsLocked() )

	jge	SHORT $LN10@SetString

; 871  : 		if( nLength < 0 || nLength > GetData()->nAllocLength)

	cmp	DWORD PTR [eax-8], 0
	jl	$LN69@SetString

; 873  : 
; 874  : 		GetData()->nDataLength = nLength;

	mov	DWORD PTR [eax-12], 0

; 875  : 		m_pszData[nLength] = 0;

	xor	ecx, ecx
	mov	eax, DWORD PTR [edi]
	mov	WORD PTR [eax], cx
$LN70@SetString:
	pop	edi

; 637  : 			}
; 638  : 			ReleaseBufferSetLength( nLength );
; 639  : 		}
; 640  : 	}

	pop	esi
	pop	ebp
	ret	8
$LN10@SetString:

; 88   : 		if( _InterlockedDecrement( &nRefs ) <= 0 )

	or	eax, -1
	lock	 xadd	 DWORD PTR [ecx], eax
	dec	eax
	test	eax, eax
	jg	SHORT $LN27@SetString

; 89   : 		{
; 90   : 			pStringMgr->Free( this );

	mov	ecx, DWORD PTR [edx]
	push	edx
	mov	eax, DWORD PTR [ecx]
	call	DWORD PTR [eax+4]
$LN27@SetString:

; 452  : 			CStringData* pNewData = pStringMgr->GetNilString();

	mov	eax, DWORD PTR [esi]
	mov	ecx, esi
	call	DWORD PTR [eax+12]

; 59   : 		return (this+1);

	add	eax, 16					; 00000010H

; 780  : 		m_pszData = static_cast< PXSTR >( pData->data() );

	mov	DWORD PTR [edi], eax
	pop	edi

; 637  : 			}
; 638  : 			ReleaseBufferSetLength( nLength );
; 639  : 		}
; 640  : 	}

	pop	esi
	pop	ebp
	ret	8
$LN2@SetString:

; 609  : 		{
; 610  : 			Empty();
; 611  : 		}
; 612  : 		else
; 613  : 		{
; 614  : 			// It is possible that pszSrc points to a location inside of our
; 615  : 			// buffer.  GetBuffer() might change m_pszData if (1) the buffer
; 616  : 			// is shared or (2) the buffer is too small to hold the new
; 617  : 			// string.  We detect this aliasing, and modify pszSrc to point
; 618  : 			// into the newly allocated buffer instead.
; 619  : 
; 620  : 			if(pszSrc == NULL)

	mov	eax, DWORD PTR _pszSrc$[ebp]
	test	eax, eax
	je	$LN69@SetString

; 519  : 		return( GetData()->nDataLength );

	mov	edx, DWORD PTR [edi]
	push	ebx

; 621  : 				AtlThrow(E_INVALIDARG);
; 622  : 
; 623  : 			UINT nOldLength = GetLength();
; 624  : 			UINT_PTR nOffset = pszSrc-GetString();

	mov	ebx, eax
	sub	ebx, edx
	mov	ecx, DWORD PTR [edx-12]
	sar	ebx, 1
	mov	DWORD PTR _nOldLength$1$[ebp], ecx

; 804  : 		if (nLength < 0)

	test	esi, esi
	js	$LN69@SetString

; 805  : 			AtlThrow(E_INVALIDARG);
; 806  : 
; 807  : 		CStringData* pOldData = GetData();
; 808  : 		int nShared = 1-pOldData->nRefs;  // nShared < 0 means true, >= 0 means false
; 809  : 		int nTooShort = pOldData->nAllocLength-nLength;  // nTooShort < 0 means true, >= 0 means false

	mov	eax, DWORD PTR [edx-8]
	mov	ecx, 1
	sub	ecx, DWORD PTR [edx-4]
	sub	eax, esi

; 810  : 		if( (nShared|nTooShort) < 0 )  // If either sign bit is set (i.e. either is less than zero), we need to copy data

	or	ecx, eax
	jge	SHORT $LN44@SetString

; 811  : 		{
; 812  : 			PrepareWrite2( nLength );

	push	esi
	mov	ecx, edi
	call	?PrepareWrite2@?$CSimpleStringT@_W$0A@@ATL@@AAEXH@Z ; ATL::CSimpleStringT<wchar_t,0>::PrepareWrite2
	mov	edx, DWORD PTR [edi]
$LN44@SetString:

; 625  : 			// If 0 <= nOffset <= nOldLength, then pszSrc points into our
; 626  : 			// buffer
; 627  : 
; 628  : 			PXSTR pszBuffer = GetBuffer( nLength );
; 629  : 			if( nOffset <= nOldLength )

	cmp	ebx, DWORD PTR _nOldLength$1$[ebp]
	ja	SHORT $LN5@SetString

; 486  : 		return( GetData()->nAllocLength );

	mov	eax, DWORD PTR [edx-8]

; 717  : 		memmove_s( pchDest, nDestLen*sizeof( XCHAR ),

	lea	ecx, DWORD PTR [esi+esi]

; 630  : 			{
; 631  : 				CopyCharsOverlapped( pszBuffer, GetAllocLength(),

	lea	ebx, DWORD PTR [edx+ebx*2]
; File C:\Program Files (x86)\Windows Kits\10\Include\10.0.18362.0\ucrt\corecrt_memcpy_s.h

; 71   :         if (_SourceSize == 0)

	test	ecx, ecx
	je	SHORT $LN6@SetString

; 72   :         {
; 73   :             return 0;
; 74   :         }
; 75   : 
; 76   :         _CRT_MEMCPY_S_VALIDATE_RETURN_ERRCODE(_Destination != NULL,            EINVAL);
; 77   :         _CRT_MEMCPY_S_VALIDATE_RETURN_ERRCODE(_Source != NULL,                 EINVAL);

	test	ebx, ebx
	jne	SHORT $LN58@SetString
	call	__errno
	mov	DWORD PTR [eax], 22			; 00000016H
	call	__invalid_parameter_noinfo
	jmp	SHORT $LN6@SetString
$LN58@SetString:
; File C:\Program Files (x86)\Microsoft Visual Studio\2019\Enterprise\VC\Tools\MSVC\14.23.28105\atlmfc\include\atlsimpstr.h

; 717  : 		memmove_s( pchDest, nDestLen*sizeof( XCHAR ),

	add	eax, eax
; File C:\Program Files (x86)\Windows Kits\10\Include\10.0.18362.0\ucrt\corecrt_memcpy_s.h

; 78   :         _CRT_MEMCPY_S_VALIDATE_RETURN_ERRCODE(_DestinationSize >= _SourceSize, ERANGE);

	cmp	eax, ecx
	jae	SHORT $LN59@SetString
	call	__errno
	mov	DWORD PTR [eax], 34			; 00000022H
	call	__invalid_parameter_noinfo
	jmp	SHORT $LN6@SetString
$LN59@SetString:

; 79   : 
; 80   : #pragma warning(suppress:4996) // Deprecation
; 81   :         memmove(_Destination, _Source, _SourceSize);

	push	ecx
	push	ebx
	push	edx
	call	_memmove
	add	esp, 12					; 0000000cH
; File C:\Program Files (x86)\Microsoft Visual Studio\2019\Enterprise\VC\Tools\MSVC\14.23.28105\atlmfc\include\atlsimpstr.h

; 633  : 			}

	jmp	SHORT $LN6@SetString
$LN5@SetString:

; 634  : 			else
; 635  : 			{
; 636  : 				CopyChars( pszBuffer, GetAllocLength(), pszSrc, nLength );

	push	esi
	push	DWORD PTR _pszSrc$[ebp]
	push	DWORD PTR [edx-8]
	push	edx
	call	?CopyChars@?$CSimpleStringT@_W$0A@@ATL@@SAXPA_WIPB_WH@Z ; ATL::CSimpleStringT<wchar_t,0>::CopyChars
	add	esp, 16					; 00000010H
$LN6@SetString:

; 871  : 		if( nLength < 0 || nLength > GetData()->nAllocLength)

	mov	eax, DWORD PTR [edi]
	pop	ebx
	cmp	esi, DWORD PTR [eax-8]
	jg	SHORT $LN69@SetString

; 873  : 
; 874  : 		GetData()->nDataLength = nLength;

	mov	DWORD PTR [eax-12], esi

; 875  : 		m_pszData[nLength] = 0;

	xor	ecx, ecx
	mov	eax, DWORD PTR [edi]
	pop	edi
	mov	WORD PTR [eax+esi*2], cx

; 637  : 			}
; 638  : 			ReleaseBufferSetLength( nLength );
; 639  : 		}
; 640  : 	}

	pop	esi
	pop	ebp
	ret	8
$LN69@SetString:

; 872  : 			AtlThrow(E_INVALIDARG);

	push	-2147024809				; 80070057H
	call	?AtlThrowImpl@ATL@@YGXJ@Z		; ATL::AtlThrowImpl
$LN76@SetString:
	int	3
?SetString@?$CSimpleStringT@_W$0A@@ATL@@QAEXPB_WH@Z ENDP ; ATL::CSimpleStringT<wchar_t,0>::SetString
_TEXT	ENDS
; Function compile flags: /Ogtp
; File C:\Program Files (x86)\Microsoft Visual Studio\2019\Enterprise\VC\Tools\MSVC\14.23.28105\atlmfc\include\atlsimpstr.h
;	COMDAT ?StringLength@?$CSimpleStringT@_W$0A@@ATL@@SAHPB_W@Z
_TEXT	SEGMENT
_psz$ = 8						; size = 4
?StringLength@?$CSimpleStringT@_W$0A@@ATL@@SAHPB_W@Z PROC ; ATL::CSimpleStringT<wchar_t,0>::StringLength, COMDAT

; 729  : 	{

	push	ebp
	mov	ebp, esp

; 730  : 		if( psz == NULL )

	mov	eax, DWORD PTR _psz$[ebp]
	test	eax, eax
	jne	SHORT $LN2@StringLeng

; 735  : 	}

	pop	ebp
	ret	0
$LN2@StringLeng:

; 731  : 		{
; 732  : 			return( 0 );
; 733  : 		}
; 734  : 		return( int( wcslen( psz ) ) );

	lea	edx, DWORD PTR [eax+2]
	npad	1
$LL4@StringLeng:
	mov	cx, WORD PTR [eax]
	add	eax, 2
	test	cx, cx
	jne	SHORT $LL4@StringLeng
	sub	eax, edx
	sar	eax, 1

; 735  : 	}

	pop	ebp
	ret	0
?StringLength@?$CSimpleStringT@_W$0A@@ATL@@SAHPB_W@Z ENDP ; ATL::CSimpleStringT<wchar_t,0>::StringLength
_TEXT	ENDS
; Function compile flags: /Ogtp
; File C:\Program Files (x86)\Microsoft Visual Studio\2019\Enterprise\VC\Tools\MSVC\14.23.28105\atlmfc\include\atlsimpstr.h
;	COMDAT ?SetString@?$CSimpleStringT@_W$0A@@ATL@@QAEXPB_W@Z
_TEXT	SEGMENT
_pszSrc$ = 8						; size = 4
?SetString@?$CSimpleStringT@_W$0A@@ATL@@QAEXPB_W@Z PROC	; ATL::CSimpleStringT<wchar_t,0>::SetString, COMDAT
; _this$ = ecx

; 601  : 	{

	push	ebp
	mov	ebp, esp

; 730  : 		if( psz == NULL )

	mov	edx, DWORD PTR _pszSrc$[ebp]

; 601  : 	{

	push	esi
	mov	esi, ecx

; 730  : 		if( psz == NULL )

	test	edx, edx
	jne	SHORT $LN4@SetString

; 731  : 		{
; 732  : 			return( 0 );

	xor	eax, eax

; 602  : 		SetString( pszSrc, StringLength( pszSrc ) );

	push	eax
	push	edx
	call	?SetString@?$CSimpleStringT@_W$0A@@ATL@@QAEXPB_WH@Z ; ATL::CSimpleStringT<wchar_t,0>::SetString
	pop	esi

; 603  : 	}

	pop	ebp
	ret	4
$LN4@SetString:

; 734  : 		return( int( wcslen( psz ) ) );

	mov	eax, edx
	push	edi
	lea	edi, DWORD PTR [eax+2]
$LL6@SetString:
	mov	cx, WORD PTR [eax]
	add	eax, 2
	test	cx, cx
	jne	SHORT $LL6@SetString
	sub	eax, edi

; 602  : 		SetString( pszSrc, StringLength( pszSrc ) );

	mov	ecx, esi

; 734  : 		return( int( wcslen( psz ) ) );

	pop	edi
	sar	eax, 1

; 602  : 		SetString( pszSrc, StringLength( pszSrc ) );

	push	eax
	push	edx
	call	?SetString@?$CSimpleStringT@_W$0A@@ATL@@QAEXPB_WH@Z ; ATL::CSimpleStringT<wchar_t,0>::SetString
	pop	esi

; 603  : 	}

	pop	ebp
	ret	4
?SetString@?$CSimpleStringT@_W$0A@@ATL@@QAEXPB_W@Z ENDP	; ATL::CSimpleStringT<wchar_t,0>::SetString
_TEXT	ENDS
; Function compile flags: /Ogtp
; File C:\Program Files (x86)\Microsoft Visual Studio\2019\Enterprise\VC\Tools\MSVC\14.23.28105\atlmfc\include\atlsimpstr.h
;	COMDAT ??4?$CSimpleStringT@_W$0A@@ATL@@QAEAAV01@PB_W@Z
_TEXT	SEGMENT
_pszSrc$ = 8						; size = 4
??4?$CSimpleStringT@_W$0A@@ATL@@QAEAAV01@PB_W@Z PROC	; ATL::CSimpleStringT<wchar_t,0>::operator=, COMDAT
; _this$ = ecx

; 313  : 	{

	push	ebp
	mov	ebp, esp

; 730  : 		if( psz == NULL )

	mov	edx, DWORD PTR _pszSrc$[ebp]

; 313  : 	{

	push	esi
	mov	esi, ecx

; 730  : 		if( psz == NULL )

	test	edx, edx
	jne	SHORT $LN6@operator

; 731  : 		{
; 732  : 			return( 0 );

	xor	eax, eax

; 602  : 		SetString( pszSrc, StringLength( pszSrc ) );

	push	eax
	push	edx
	call	?SetString@?$CSimpleStringT@_W$0A@@ATL@@QAEXPB_WH@Z ; ATL::CSimpleStringT<wchar_t,0>::SetString

; 314  : 		SetString( pszSrc );
; 315  : 
; 316  : 		return( *this );

	mov	eax, esi
	pop	esi

; 317  : 	}

	pop	ebp
	ret	4
$LN6@operator:

; 734  : 		return( int( wcslen( psz ) ) );

	mov	eax, edx
	push	edi
	lea	edi, DWORD PTR [eax+2]
$LL8@operator:
	mov	cx, WORD PTR [eax]
	add	eax, 2
	test	cx, cx
	jne	SHORT $LL8@operator
	sub	eax, edi

; 602  : 		SetString( pszSrc, StringLength( pszSrc ) );

	mov	ecx, esi

; 734  : 		return( int( wcslen( psz ) ) );

	pop	edi
	sar	eax, 1

; 602  : 		SetString( pszSrc, StringLength( pszSrc ) );

	push	eax
	push	edx
	call	?SetString@?$CSimpleStringT@_W$0A@@ATL@@QAEXPB_WH@Z ; ATL::CSimpleStringT<wchar_t,0>::SetString

; 314  : 		SetString( pszSrc );
; 315  : 
; 316  : 		return( *this );

	mov	eax, esi
	pop	esi

; 317  : 	}

	pop	ebp
	ret	4
??4?$CSimpleStringT@_W$0A@@ATL@@QAEAAV01@PB_W@Z ENDP	; ATL::CSimpleStringT<wchar_t,0>::operator=
_TEXT	ENDS
; Function compile flags: /Ogtp
; File C:\Program Files (x86)\Microsoft Visual Studio\2019\Enterprise\VC\Tools\MSVC\14.23.28105\atlmfc\include\cstringt.h
; File C:\Program Files (x86)\Microsoft Visual Studio\2019\Enterprise\VC\Tools\MSVC\14.23.28105\atlmfc\include\atlsimpstr.h
; File C:\Program Files (x86)\Microsoft Visual Studio\2019\Enterprise\VC\Tools\MSVC\14.23.28105\atlmfc\include\cstringt.h
; File C:\Program Files (x86)\Microsoft Visual Studio\2019\Enterprise\VC\Tools\MSVC\14.23.28105\atlmfc\include\atlsimpstr.h
; File C:\Program Files (x86)\Microsoft Visual Studio\2019\Enterprise\VC\Tools\MSVC\14.23.28105\atlmfc\include\cstringt.h
; File C:\Program Files (x86)\Microsoft Visual Studio\2019\Enterprise\VC\Tools\MSVC\14.23.28105\atlmfc\include\atlsimpstr.h
; File C:\Program Files (x86)\Microsoft Visual Studio\2019\Enterprise\VC\Tools\MSVC\14.23.28105\atlmfc\include\cstringt.h
;	COMDAT ??4?$CStringT@_WV?$StrTraitMFC@_WV?$ChTraitsCRT@_W@ATL@@@@@ATL@@QAEAAV01@PB_W@Z
_TEXT	SEGMENT
_pszSrc$ = 8						; size = 4
??4?$CStringT@_WV?$StrTraitMFC@_WV?$ChTraitsCRT@_W@ATL@@@@@ATL@@QAEAAV01@PB_W@Z PROC ; ATL::CStringT<wchar_t,StrTraitMFC<wchar_t,ATL::ChTraitsCRT<wchar_t> > >::operator=, COMDAT
; _this$ = ecx

; 1314 : 	{

	push	ebp
	mov	ebp, esp
; File C:\Program Files (x86)\Microsoft Visual Studio\2019\Enterprise\VC\Tools\MSVC\14.23.28105\atlmfc\include\atlsimpstr.h

; 730  : 		if( psz == NULL )

	mov	edx, DWORD PTR _pszSrc$[ebp]
; File C:\Program Files (x86)\Microsoft Visual Studio\2019\Enterprise\VC\Tools\MSVC\14.23.28105\atlmfc\include\cstringt.h

; 1314 : 	{

	push	esi
	mov	esi, ecx
; File C:\Program Files (x86)\Microsoft Visual Studio\2019\Enterprise\VC\Tools\MSVC\14.23.28105\atlmfc\include\atlsimpstr.h

; 730  : 		if( psz == NULL )

	test	edx, edx
	jne	SHORT $LN8@operator

; 731  : 		{
; 732  : 			return( 0 );

	xor	eax, eax

; 602  : 		SetString( pszSrc, StringLength( pszSrc ) );

	push	eax
	push	edx
	call	?SetString@?$CSimpleStringT@_W$0A@@ATL@@QAEXPB_WH@Z ; ATL::CSimpleStringT<wchar_t,0>::SetString
; File C:\Program Files (x86)\Microsoft Visual Studio\2019\Enterprise\VC\Tools\MSVC\14.23.28105\atlmfc\include\cstringt.h

; 1317 : 		return( *this );

	mov	eax, esi
	pop	esi

; 1318 : 	}

	pop	ebp
	ret	4
$LN8@operator:
; File C:\Program Files (x86)\Microsoft Visual Studio\2019\Enterprise\VC\Tools\MSVC\14.23.28105\atlmfc\include\atlsimpstr.h

; 734  : 		return( int( wcslen( psz ) ) );

	mov	eax, edx
	push	edi
	lea	edi, DWORD PTR [eax+2]
$LL10@operator:
	mov	cx, WORD PTR [eax]
	add	eax, 2
	test	cx, cx
	jne	SHORT $LL10@operator
	sub	eax, edi

; 602  : 		SetString( pszSrc, StringLength( pszSrc ) );

	mov	ecx, esi

; 734  : 		return( int( wcslen( psz ) ) );

	pop	edi
	sar	eax, 1

; 602  : 		SetString( pszSrc, StringLength( pszSrc ) );

	push	eax
	push	edx
	call	?SetString@?$CSimpleStringT@_W$0A@@ATL@@QAEXPB_WH@Z ; ATL::CSimpleStringT<wchar_t,0>::SetString
; File C:\Program Files (x86)\Microsoft Visual Studio\2019\Enterprise\VC\Tools\MSVC\14.23.28105\atlmfc\include\cstringt.h

; 1317 : 		return( *this );

	mov	eax, esi
	pop	esi

; 1318 : 	}

	pop	ebp
	ret	4
??4?$CStringT@_WV?$StrTraitMFC@_WV?$ChTraitsCRT@_W@ATL@@@@@ATL@@QAEAAV01@PB_W@Z ENDP ; ATL::CStringT<wchar_t,StrTraitMFC<wchar_t,ATL::ChTraitsCRT<wchar_t> > >::operator=
_TEXT	ENDS
; Function compile flags: /Ogtp
; File C:\Program Files (x86)\Microsoft Visual Studio\2019\Enterprise\VC\Tools\MSVC\14.23.28105\atlmfc\include\cstringt.h
; File C:\Program Files (x86)\Microsoft Visual Studio\2019\Enterprise\VC\Tools\MSVC\14.23.28105\atlmfc\include\afxstr.h
; File C:\Program Files (x86)\Microsoft Visual Studio\2019\Enterprise\VC\Tools\MSVC\14.23.28105\atlmfc\include\atlsimpstr.h
; File C:\Program Files (x86)\Microsoft Visual Studio\2019\Enterprise\VC\Tools\MSVC\14.23.28105\atlmfc\include\cstringt.h
; File C:\Program Files (x86)\Microsoft Visual Studio\2019\Enterprise\VC\Tools\MSVC\14.23.28105\atlmfc\include\atlsimpstr.h
; File C:\Program Files (x86)\Microsoft Visual Studio\2019\Enterprise\VC\Tools\MSVC\14.23.28105\atlmfc\include\cstringt.h
; File C:\Program Files (x86)\Microsoft Visual Studio\2019\Enterprise\VC\Tools\MSVC\14.23.28105\atlmfc\include\atlsimpstr.h
; File C:\Program Files (x86)\Microsoft Visual Studio\2019\Enterprise\VC\Tools\MSVC\14.23.28105\atlmfc\include\cstringt.h
;	COMDAT ??0?$CStringT@_WV?$StrTraitMFC@_WV?$ChTraitsCRT@_W@ATL@@@@@ATL@@QAE@PB_W@Z
_TEXT	SEGMENT
_this$ = -16						; size = 4
__$EHRec$ = -12						; size = 12
_pszSrc$ = 8						; size = 4
??0?$CStringT@_WV?$StrTraitMFC@_WV?$ChTraitsCRT@_W@ATL@@@@@ATL@@QAE@PB_W@Z PROC ; ATL::CStringT<wchar_t,StrTraitMFC<wchar_t,ATL::ChTraitsCRT<wchar_t> > >::CStringT<wchar_t,StrTraitMFC<wchar_t,ATL::ChTraitsCRT<wchar_t> > >, COMDAT
; _this$ = ecx

; 1045 : 	{

	push	ebp
	mov	ebp, esp
	push	-1
	push	__ehhandler$??0?$CStringT@_WV?$StrTraitMFC@_WV?$ChTraitsCRT@_W@ATL@@@@@ATL@@QAE@PB_W@Z
	mov	eax, DWORD PTR fs:0
	push	eax
	push	ecx
	push	esi
	push	edi
	mov	eax, DWORD PTR ___security_cookie
	xor	eax, ebp
	push	eax
	lea	eax, DWORD PTR __$EHRec$[ebp]
	mov	DWORD PTR fs:0, eax
	mov	esi, ecx
	mov	DWORD PTR _this$[ebp], esi
; File C:\Program Files (x86)\Microsoft Visual Studio\2019\Enterprise\VC\Tools\MSVC\14.23.28105\atlmfc\include\afxstr.h

; 52   : 		return( AfxGetStringManager() );

	call	?AfxGetStringManager@@YGPAUIAtlStringMgr@ATL@@XZ ; AfxGetStringManager
	mov	ecx, eax
; File C:\Program Files (x86)\Microsoft Visual Studio\2019\Enterprise\VC\Tools\MSVC\14.23.28105\atlmfc\include\atlsimpstr.h

; 205  : 		ATLENSURE( pStringMgr != NULL );

	test	ecx, ecx
	je	SHORT $LN40@CStringT

; 206  : 		CStringData* pData = pStringMgr->GetNilString();

	mov	eax, DWORD PTR [ecx]
	call	DWORD PTR [eax+12]

; 59   : 		return (this+1);

	add	eax, 16					; 00000010H

; 780  : 		m_pszData = static_cast< PXSTR >( pData->data() );

	mov	DWORD PTR [esi], eax
; File C:\Program Files (x86)\Microsoft Visual Studio\2019\Enterprise\VC\Tools\MSVC\14.23.28105\atlmfc\include\cstringt.h

; 2668 : 		if( (pv != NULL) && IS_INTRESOURCE( pv ) )

	mov	edx, DWORD PTR _pszSrc$[ebp]

; 1044 : 		CThisSimpleString( StringTraits::GetDefaultManager() )

	mov	DWORD PTR __$EHRec$[ebp+8], 0

; 2668 : 		if( (pv != NULL) && IS_INTRESOURCE( pv ) )

	test	edx, edx
	je	SHORT $LN35@CStringT
	test	edx, -65536				; ffff0000H
	jne	SHORT $LN32@CStringT

; 2669 : 		{
; 2670 : 			UINT nID = LOWORD( reinterpret_cast< DWORD_PTR >( pv ) );

	movzx	eax, dx

; 2671 : 			(nID);
; 2672 : #ifdef _ATL_USE_WINAPI_FAMILY_DESKTOP_APP
; 2673 : 			if( !LoadString( nID ) )

	mov	ecx, esi
	push	eax
	call	?LoadStringW@?$CStringT@_WV?$StrTraitMFC@_WV?$ChTraitsCRT@_W@ATL@@@@@ATL@@QAEHI@Z ; ATL::CStringT<wchar_t,StrTraitMFC<wchar_t,ATL::ChTraitsCRT<wchar_t> > >::LoadStringW

; 1046 : 		if( !CheckImplicitLoad( pszSrc ) )

	jmp	SHORT $LN2@CStringT
$LN32@CStringT:
; File C:\Program Files (x86)\Microsoft Visual Studio\2019\Enterprise\VC\Tools\MSVC\14.23.28105\atlmfc\include\atlsimpstr.h

; 734  : 		return( int( wcslen( psz ) ) );

	mov	ecx, edx
	lea	edi, DWORD PTR [ecx+2]
$LL36@CStringT:
	mov	ax, WORD PTR [ecx]
	add	ecx, 2
	test	ax, ax
	jne	SHORT $LL36@CStringT
	sub	ecx, edi
	sar	ecx, 1
	jmp	SHORT $LN31@CStringT
$LN35@CStringT:

; 603  : 	}
; 604  : 	void SetString(
; 605  : 		_In_reads_opt_(nLength) PCXSTR pszSrc,
; 606  : 		_In_ int nLength)
; 607  : 	{
; 608  : 		if( nLength == 0 )
; 609  : 		{
; 610  : 			Empty();
; 611  : 		}
; 612  : 		else
; 613  : 		{
; 614  : 			// It is possible that pszSrc points to a location inside of our
; 615  : 			// buffer.  GetBuffer() might change m_pszData if (1) the buffer
; 616  : 			// is shared or (2) the buffer is too small to hold the new
; 617  : 			// string.  We detect this aliasing, and modify pszSrc to point
; 618  : 			// into the newly allocated buffer instead.
; 619  : 
; 620  : 			if(pszSrc == NULL)
; 621  : 				AtlThrow(E_INVALIDARG);
; 622  : 
; 623  : 			UINT nOldLength = GetLength();
; 624  : 			UINT_PTR nOffset = pszSrc-GetString();
; 625  : 			// If 0 <= nOffset <= nOldLength, then pszSrc points into our
; 626  : 			// buffer
; 627  : 
; 628  : 			PXSTR pszBuffer = GetBuffer( nLength );
; 629  : 			if( nOffset <= nOldLength )
; 630  : 			{
; 631  : 				CopyCharsOverlapped( pszBuffer, GetAllocLength(),
; 632  : 					pszBuffer+nOffset, nLength );
; 633  : 			}
; 634  : 			else
; 635  : 			{
; 636  : 				CopyChars( pszBuffer, GetAllocLength(), pszSrc, nLength );
; 637  : 			}
; 638  : 			ReleaseBufferSetLength( nLength );
; 639  : 		}
; 640  : 	}
; 641  : 
; 642  : public:
; 643  : 	friend CSimpleStringT operator+(
; 644  : 		_In_ const CSimpleStringT& str1,
; 645  : 		_In_ const CSimpleStringT& str2)
; 646  : 	{
; 647  : 		CSimpleStringT s( str1.GetManager() );
; 648  : 
; 649  : 		Concatenate( s, str1, str1.GetLength(), str2, str2.GetLength() );
; 650  : 
; 651  : 		return( s );
; 652  : 	}
; 653  : 
; 654  : 	friend CSimpleStringT operator+(
; 655  : 		_In_ const CSimpleStringT& str1,
; 656  : 		_In_z_ PCXSTR psz2)
; 657  : 	{
; 658  : 		CSimpleStringT s( str1.GetManager() );
; 659  : 
; 660  : 		Concatenate( s, str1, str1.GetLength(), psz2, StringLength( psz2 ) );
; 661  : 
; 662  : 		return( s );
; 663  : 	}
; 664  : 
; 665  : 	friend CSimpleStringT operator+(
; 666  : 		_In_z_ PCXSTR psz1,
; 667  : 		_In_ const CSimpleStringT& str2)
; 668  : 	{
; 669  : 		CSimpleStringT s( str2.GetManager() );
; 670  : 
; 671  : 		Concatenate( s, psz1, StringLength( psz1 ), str2, str2.GetLength() );
; 672  : 
; 673  : 		return( s );
; 674  : 	}
; 675  : 
; 676  : 	_ATL_INSECURE_DEPRECATE("CSimpleStringT::CopyChars must be passed a buffer size")
; 677  : 	static void __cdecl CopyChars(
; 678  : 		_Out_writes_(nChars) XCHAR* pchDest,
; 679  : 		_In_reads_opt_(nChars) const XCHAR* pchSrc,
; 680  : 		_In_ int nChars) throw()
; 681  : 	{
; 682  : 		if (pchSrc != NULL)
; 683  : 		{
; 684  : 			#pragma warning (push)
; 685  : 			#pragma warning(disable : 4996)
; 686  : 			memcpy( pchDest, pchSrc, nChars*sizeof( XCHAR ) );
; 687  : 			#pragma warning (pop)
; 688  : 		}
; 689  : 	}
; 690  : 	static void __cdecl CopyChars(
; 691  : 		_Out_writes_to_(nDestLen,nChars) XCHAR* pchDest,
; 692  : 		_In_ size_t nDestLen,
; 693  : 		_In_reads_opt_(nChars) const XCHAR* pchSrc,
; 694  : 		_In_ int nChars) throw()
; 695  : 	{
; 696  : 		memcpy_s( pchDest, nDestLen*sizeof( XCHAR ),
; 697  : 			pchSrc, nChars*sizeof( XCHAR ) );
; 698  : 	}
; 699  : 
; 700  : 	_ATL_INSECURE_DEPRECATE("CSimpleStringT::CopyCharsOverlapped must be passed a buffer size")
; 701  : 	static void __cdecl CopyCharsOverlapped(
; 702  : 		_Out_writes_(nChars) XCHAR* pchDest,
; 703  : 		_In_reads_(nChars) const XCHAR* pchSrc,
; 704  : 		_In_ int nChars) throw()
; 705  : 	{
; 706  : 		#pragma warning (push)
; 707  : 		#pragma warning(disable : 4996)
; 708  : 		memmove( pchDest, pchSrc, nChars*sizeof( XCHAR ) );
; 709  : 		#pragma warning (pop)
; 710  : 	}
; 711  : 	static void __cdecl CopyCharsOverlapped(
; 712  : 		_Out_writes_to_(nDestLen, nDestLen) XCHAR* pchDest,
; 713  : 		_In_ size_t nDestLen,
; 714  : 		_In_reads_(nChars) const XCHAR* pchSrc,
; 715  : 		_In_ int nChars) throw()
; 716  : 	{
; 717  : 		memmove_s( pchDest, nDestLen*sizeof( XCHAR ),
; 718  : 			pchSrc, nChars*sizeof( XCHAR ) );
; 719  : 	}
; 720  : 	static int __cdecl StringLength(_In_opt_z_ const char* psz) throw()
; 721  : 	{
; 722  : 		if( psz == NULL )
; 723  : 		{
; 724  : 			return( 0 );
; 725  : 		}
; 726  : 		return( int( strlen( psz ) ) );
; 727  : 	}
; 728  : 	static int __cdecl StringLength(_In_opt_z_ const wchar_t* psz) throw()
; 729  : 	{
; 730  : 		if( psz == NULL )
; 731  : 		{
; 732  : 			return( 0 );

	xor	ecx, ecx
$LN31@CStringT:

; 602  : 		SetString( pszSrc, StringLength( pszSrc ) );

	push	ecx
	push	edx
	mov	ecx, esi
	call	?SetString@?$CSimpleStringT@_W$0A@@ATL@@QAEXPB_WH@Z ; ATL::CSimpleStringT<wchar_t,0>::SetString
$LN2@CStringT:
; File C:\Program Files (x86)\Microsoft Visual Studio\2019\Enterprise\VC\Tools\MSVC\14.23.28105\atlmfc\include\cstringt.h

; 1050 : 	}

	mov	eax, esi
	mov	ecx, DWORD PTR __$EHRec$[ebp]
	mov	DWORD PTR fs:0, ecx
	pop	ecx
	pop	edi
	pop	esi
	mov	esp, ebp
	pop	ebp
	ret	4
$LN40@CStringT:
; File C:\Program Files (x86)\Microsoft Visual Studio\2019\Enterprise\VC\Tools\MSVC\14.23.28105\atlmfc\include\atlsimpstr.h

; 205  : 		ATLENSURE( pStringMgr != NULL );

	push	-2147467259				; 80004005H
	call	?AtlThrowImpl@ATL@@YGXJ@Z		; ATL::AtlThrowImpl
$LN38@CStringT:
	int	3
_TEXT	ENDS
;	COMDAT text$x
text$x	SEGMENT
__unwindfunclet$??0?$CStringT@_WV?$StrTraitMFC@_WV?$ChTraitsCRT@_W@ATL@@@@@ATL@@QAE@PB_W@Z$0:
	mov	ecx, DWORD PTR _this$[ebp]
	jmp	??1?$CSimpleStringT@_W$0A@@ATL@@QAE@XZ	; ATL::CSimpleStringT<wchar_t,0>::~CSimpleStringT<wchar_t,0>
__ehhandler$??0?$CStringT@_WV?$StrTraitMFC@_WV?$ChTraitsCRT@_W@ATL@@@@@ATL@@QAE@PB_W@Z:
	mov	edx, DWORD PTR [esp+8]
	lea	eax, DWORD PTR [edx+12]
	mov	ecx, DWORD PTR [edx-16]
	xor	ecx, eax
	call	@__security_check_cookie@4
	mov	eax, OFFSET __ehfuncinfo$??0?$CStringT@_WV?$StrTraitMFC@_WV?$ChTraitsCRT@_W@ATL@@@@@ATL@@QAE@PB_W@Z
	jmp	___CxxFrameHandler3
text$x	ENDS
??0?$CStringT@_WV?$StrTraitMFC@_WV?$ChTraitsCRT@_W@ATL@@@@@ATL@@QAE@PB_W@Z ENDP ; ATL::CStringT<wchar_t,StrTraitMFC<wchar_t,ATL::ChTraitsCRT<wchar_t> > >::CStringT<wchar_t,StrTraitMFC<wchar_t,ATL::ChTraitsCRT<wchar_t> > >
; Function compile flags: /Ogtp
; File C:\Program Files (x86)\Microsoft Visual Studio\2019\Enterprise\VC\Tools\MSVC\14.23.28105\atlmfc\include\afxwin1.inl
;	COMDAT ?DrawIcon@CDC@@QAEHHHPAUHICON__@@@Z
_TEXT	SEGMENT
_x$ = 8							; size = 4
_y$ = 12						; size = 4
_hIcon$ = 16						; size = 4
?DrawIcon@CDC@@QAEHHHPAUHICON__@@@Z PROC		; CDC::DrawIcon, COMDAT
; _this$ = ecx

; 482  : 	{ ASSERT(m_hDC != NULL); return ::DrawIcon(m_hDC, x, y, hIcon); }

	push	ebp
	mov	ebp, esp
	push	DWORD PTR _hIcon$[ebp]
	push	DWORD PTR _y$[ebp]
	push	DWORD PTR _x$[ebp]
	push	DWORD PTR [ecx+4]
	call	DWORD PTR __imp__DrawIcon@16
	pop	ebp
	ret	12					; 0000000cH
?DrawIcon@CDC@@QAEHHHPAUHICON__@@@Z ENDP		; CDC::DrawIcon
_TEXT	ENDS
; Function compile flags: /Ogtp
; File C:\Program Files (x86)\Microsoft Visual Studio\2019\Enterprise\VC\Tools\MSVC\14.23.28105\atlmfc\include\atltypes.h
;	COMDAT ?Height@CRect@@QBEHXZ
_TEXT	SEGMENT
?Height@CRect@@QBEHXZ PROC				; CRect::Height, COMDAT
; _this$ = ecx

; 581  : 	return bottom - top;

	mov	eax, DWORD PTR [ecx+12]
	sub	eax, DWORD PTR [ecx+4]

; 582  : }

	ret	0
?Height@CRect@@QBEHXZ ENDP				; CRect::Height
_TEXT	ENDS
; Function compile flags: /Ogtp
; File C:\Program Files (x86)\Microsoft Visual Studio\2019\Enterprise\VC\Tools\MSVC\14.23.28105\atlmfc\include\atltypes.h
;	COMDAT ?Width@CRect@@QBEHXZ
_TEXT	SEGMENT
?Width@CRect@@QBEHXZ PROC				; CRect::Width, COMDAT
; _this$ = ecx

; 576  : 	return right - left;

	mov	eax, DWORD PTR [ecx+8]
	sub	eax, DWORD PTR [ecx]

; 577  : }

	ret	0
?Width@CRect@@QBEHXZ ENDP				; CRect::Width
_TEXT	ENDS
; Function compile flags: /Ogtp
; File C:\Program Files (x86)\Microsoft Visual Studio\2019\Enterprise\VC\Tools\MSVC\14.23.28105\atlmfc\include\afxwin2.inl
;	COMDAT ?GetClientRect@CWnd@@QBEXPAUtagRECT@@@Z
_TEXT	SEGMENT
_lpRect$ = 8						; size = 4
?GetClientRect@CWnd@@QBEXPAUtagRECT@@@Z PROC		; CWnd::GetClientRect, COMDAT
; _this$ = ecx

; 86   : 	{ ASSERT(::IsWindow(m_hWnd)); ::GetClientRect(m_hWnd, lpRect); }

	push	ebp
	mov	ebp, esp
	push	DWORD PTR _lpRect$[ebp]
	push	DWORD PTR [ecx+32]
	call	DWORD PTR __imp__GetClientRect@8
	pop	ebp
	ret	4
?GetClientRect@CWnd@@QBEXPAUtagRECT@@@Z ENDP		; CWnd::GetClientRect
_TEXT	ENDS
; Function compile flags: /Ogtp
; File C:\Program Files (x86)\Microsoft Visual Studio\2019\Enterprise\VC\Tools\MSVC\14.23.28105\atlmfc\include\atltypes.h
;	COMDAT ??0CRect@@QAE@XZ
_TEXT	SEGMENT
??0CRect@@QAE@XZ PROC					; CRect::CRect, COMDAT
; _this$ = ecx

; 528  : 	left = 0;

	mov	DWORD PTR [ecx], 0

; 529  : 	top = 0;
; 530  : 	right = 0;
; 531  : 	bottom = 0;
; 532  : }

	mov	eax, ecx
	mov	DWORD PTR [ecx+4], 0
	mov	DWORD PTR [ecx+8], 0
	mov	DWORD PTR [ecx+12], 0
	ret	0
??0CRect@@QAE@XZ ENDP					; CRect::CRect
_TEXT	ENDS
; Function compile flags: /Ogtp
; File C:\Program Files (x86)\Microsoft Visual Studio\2019\Enterprise\VC\Tools\MSVC\14.23.28105\atlmfc\include\afxwin1.inl
;	COMDAT ?GetSafeHdc@CDC@@QBEPAUHDC__@@XZ
_TEXT	SEGMENT
?GetSafeHdc@CDC@@QBEPAUHDC__@@XZ PROC			; CDC::GetSafeHdc, COMDAT
; _this$ = ecx

; 316  : 	{ return this == NULL ? NULL : m_hDC; }

	test	ecx, ecx
	jne	SHORT $LN3@GetSafeHdc
	xor	eax, eax
	ret	0
$LN3@GetSafeHdc:
	mov	eax, DWORD PTR [ecx+4]
	ret	0
?GetSafeHdc@CDC@@QBEPAUHDC__@@XZ ENDP			; CDC::GetSafeHdc
_TEXT	ENDS
; Function compile flags: /Ogtp
; File C:\Program Files (x86)\Microsoft Visual Studio\2019\Enterprise\VC\Tools\MSVC\14.23.28105\atlmfc\include\afxwin2.inl
;	COMDAT ?SendMessageW@CWnd@@QBEJIIJ@Z
_TEXT	SEGMENT
_message$ = 8						; size = 4
_wParam$ = 12						; size = 4
_lParam$ = 16						; size = 4
?SendMessageW@CWnd@@QBEJIIJ@Z PROC			; CWnd::SendMessageW, COMDAT
; _this$ = ecx

; 32   : 	{ ASSERT(::IsWindow(m_hWnd)); return ::SendMessage(m_hWnd, message, wParam, lParam); }

	push	ebp
	mov	ebp, esp
	push	DWORD PTR _lParam$[ebp]
	push	DWORD PTR _wParam$[ebp]
	push	DWORD PTR _message$[ebp]
	push	DWORD PTR [ecx+32]
	call	DWORD PTR __imp__SendMessageW@16
	pop	ebp
	ret	12					; 0000000cH
?SendMessageW@CWnd@@QBEJIIJ@Z ENDP			; CWnd::SendMessageW
_TEXT	ENDS
; Function compile flags: /Ogtp
; File C:\Program Files (x86)\Microsoft Visual Studio\2019\Enterprise\VC\Tools\MSVC\14.23.28105\atlmfc\include\afxwin2.inl
;	COMDAT ?IsIconic@CWnd@@QBEHXZ
_TEXT	SEGMENT
?IsIconic@CWnd@@QBEHXZ PROC				; CWnd::IsIconic, COMDAT
; _this$ = ecx

; 69   : 	{ ASSERT(::IsWindow(m_hWnd)); return ::IsIconic(m_hWnd); }

	push	DWORD PTR [ecx+32]
	call	DWORD PTR __imp__IsIconic@4
	ret	0
?IsIconic@CWnd@@QBEHXZ ENDP				; CWnd::IsIconic
_TEXT	ENDS
; Function compile flags: /Ogtp
; File C:\Program Files (x86)\Microsoft Visual Studio\2019\Enterprise\VC\Tools\MSVC\14.23.28105\atlmfc\include\afxstr.h
;	COMDAT ?FindStringResourceInstance@?$StrTraitMFC@_WV?$ChTraitsCRT@_W@ATL@@@@SAPAUHINSTANCE__@@I@Z
_TEXT	SEGMENT
_nID$ = 8						; size = 4
?FindStringResourceInstance@?$StrTraitMFC@_WV?$ChTraitsCRT@_W@ATL@@@@SAPAUHINSTANCE__@@I@Z PROC ; StrTraitMFC<wchar_t,ATL::ChTraitsCRT<wchar_t> >::FindStringResourceInstance, COMDAT

; 46   : 	{

	push	ebp
	mov	ebp, esp

; 47   : 		return( AfxFindStringResourceHandle( nID ) );

	push	DWORD PTR _nID$[ebp]
	call	?AfxFindStringResourceHandle@@YGPAUHINSTANCE__@@I@Z ; AfxFindStringResourceHandle

; 48   : 	}

	pop	ebp
	ret	0
?FindStringResourceInstance@?$StrTraitMFC@_WV?$ChTraitsCRT@_W@ATL@@@@SAPAUHINSTANCE__@@I@Z ENDP ; StrTraitMFC<wchar_t,ATL::ChTraitsCRT<wchar_t> >::FindStringResourceInstance
_TEXT	ENDS
; Function compile flags: /Ogtp
; File C:\Program Files (x86)\Microsoft Visual Studio\2019\Enterprise\VC\Tools\MSVC\14.23.28105\atlmfc\include\atlcore.h
;	COMDAT ?_AtlGetStringResourceImage@ATL@@YAPBUATLSTRINGRESOURCEIMAGE@1@PAUHINSTANCE__@@PAUHRSRC__@@I@Z
_TEXT	SEGMENT
_hInstance$ = 8						; size = 4
_hResource$ = 12					; size = 4
_id$ = 16						; size = 4
?_AtlGetStringResourceImage@ATL@@YAPBUATLSTRINGRESOURCEIMAGE@1@PAUHINSTANCE__@@PAUHRSRC__@@I@Z PROC ; ATL::_AtlGetStringResourceImage, COMDAT

; 327  : {

	push	ebp
	mov	ebp, esp
	push	esi

; 328  : 	const ATLSTRINGRESOURCEIMAGE* pImage;
; 329  : 	const ATLSTRINGRESOURCEIMAGE* pImageEnd;
; 330  : 	ULONG nResourceSize;
; 331  : 	HGLOBAL hGlobal;
; 332  : 	UINT iIndex;
; 333  : 
; 334  : 	hGlobal = ::LoadResource( hInstance, hResource );

	push	DWORD PTR _hResource$[ebp]
	push	DWORD PTR _hInstance$[ebp]
	call	DWORD PTR __imp__LoadResource@8

; 335  : 	if( hGlobal == NULL )

	test	eax, eax
	je	SHORT $LN14@AtlGetStri

; 336  : 	{
; 337  : 		return( NULL );
; 338  : 	}
; 339  : 
; 340  : 	pImage = (const ATLSTRINGRESOURCEIMAGE*)::LockResource( hGlobal );

	push	eax
	call	DWORD PTR __imp__LockResource@4
	mov	esi, eax

; 341  : 	if( pImage == NULL )

	test	esi, esi
	je	SHORT $LN14@AtlGetStri

; 342  : 	{
; 343  : 		return( NULL );
; 344  : 	}
; 345  : 
; 346  : 	nResourceSize = ::SizeofResource( hInstance, hResource );

	push	DWORD PTR _hResource$[ebp]
	push	DWORD PTR _hInstance$[ebp]
	call	DWORD PTR __imp__SizeofResource@8

; 347  : 	pImageEnd = (const ATLSTRINGRESOURCEIMAGE*)(LPBYTE( pImage )+nResourceSize);
; 348  : 	iIndex = id&0x000f;

	mov	ecx, DWORD PTR _id$[ebp]
	lea	edx, DWORD PTR [esi+eax]
	and	ecx, 15					; 0000000fH

; 349  : 
; 350  : 	while( (iIndex > 0) && (pImage < pImageEnd) )

	jbe	SHORT $LN3@AtlGetStri
$LL2@AtlGetStri:
	cmp	esi, edx
	jae	SHORT $LN14@AtlGetStri

; 351  : 	{
; 352  : 		pImage = (const ATLSTRINGRESOURCEIMAGE*)(LPBYTE( pImage )+(sizeof( ATLSTRINGRESOURCEIMAGE )+(pImage->nLength*sizeof( WCHAR ))));

	movzx	eax, WORD PTR [esi]
	lea	esi, DWORD PTR [esi+eax*2]
	add	esi, 2

; 353  : 		iIndex--;

	sub	ecx, 1
	jne	SHORT $LL2@AtlGetStri
$LN3@AtlGetStri:

; 354  : 	}
; 355  : 	if( pImage >= pImageEnd )

	cmp	esi, edx
	jae	SHORT $LN14@AtlGetStri

; 356  : 	{
; 357  : 		return( NULL );
; 358  : 	}
; 359  : 	if( pImage->nLength == 0 )

	cmp	WORD PTR [esi], 0
	je	SHORT $LN14@AtlGetStri

; 362  : 	}
; 363  : 
; 364  : 	return( pImage );

	mov	eax, esi
	pop	esi

; 365  : }

	pop	ebp
	ret	0
$LN14@AtlGetStri:

; 360  : 	{
; 361  : 		return( NULL );

	xor	eax, eax
	pop	esi

; 365  : }

	pop	ebp
	ret	0
?_AtlGetStringResourceImage@ATL@@YAPBUATLSTRINGRESOURCEIMAGE@1@PAUHINSTANCE__@@PAUHRSRC__@@I@Z ENDP ; ATL::_AtlGetStringResourceImage
_TEXT	ENDS
; Function compile flags: /Ogtp
; File C:\Program Files (x86)\Microsoft Visual Studio\2019\Enterprise\VC\Tools\MSVC\14.23.28105\atlmfc\include\atlcore.h
;	COMDAT ?AtlGetStringResourceImage@ATL@@YAPBUATLSTRINGRESOURCEIMAGE@1@PAUHINSTANCE__@@I@Z
_TEXT	SEGMENT
_hInstance$ = 8						; size = 4
_hResource$1$ = 12					; size = 4
_id$ = 12						; size = 4
?AtlGetStringResourceImage@ATL@@YAPBUATLSTRINGRESOURCEIMAGE@1@PAUHINSTANCE__@@I@Z PROC ; ATL::AtlGetStringResourceImage, COMDAT

; 370  : {

	push	ebp
	mov	ebp, esp
	push	ebx

; 371  : 	HRSRC hResource;
; 372  : 	/*
; 373  : 		The and operation (& static_cast<WORD>(~0)) protects the expression from being greater
; 374  : 		than WORD - this would cause a runtime error when the application is compiled with /RTCc flag.
; 375  : 	*/
; 376  : 	hResource = ::FindResourceW(hInstance, MAKEINTRESOURCEW( (((id>>4)+1) & static_cast<WORD>(~0)) ), (LPWSTR) RT_STRING);

	mov	ebx, DWORD PTR _hInstance$[ebp]
	push	edi
	mov	edi, DWORD PTR _id$[ebp]
	mov	eax, edi
	shr	eax, 4
	inc	eax
	push	6
	movzx	eax, ax
	push	eax
	push	ebx
	call	DWORD PTR __imp__FindResourceW@12
	mov	DWORD PTR _hResource$1$[ebp], eax

; 377  : 	if( hResource == NULL )

	test	eax, eax
	jne	SHORT $LN2@AtlGetStri

; 383  : }

	pop	edi
	pop	ebx
	pop	ebp
	ret	0
$LN2@AtlGetStri:
	push	esi

; 334  : 	hGlobal = ::LoadResource( hInstance, hResource );

	push	eax
	push	ebx
	call	DWORD PTR __imp__LoadResource@8

; 335  : 	if( hGlobal == NULL )

	test	eax, eax
	jne	SHORT $LN7@AtlGetStri
$LN17@AtlGetStri:

; 378  : 	{
; 379  : 		return( NULL );
; 380  : 	}
; 381  : 
; 382  : 	return _AtlGetStringResourceImage( hInstance, hResource, id );

	xor	esi, esi
	mov	eax, esi
	pop	esi
	pop	edi

; 383  : }

	pop	ebx
	pop	ebp
	ret	0
$LN7@AtlGetStri:

; 340  : 	pImage = (const ATLSTRINGRESOURCEIMAGE*)::LockResource( hGlobal );

	push	eax
	call	DWORD PTR __imp__LockResource@4
	mov	esi, eax

; 341  : 	if( pImage == NULL )

	test	esi, esi
	je	SHORT $LN17@AtlGetStri

; 342  : 	{
; 343  : 		return( NULL );
; 344  : 	}
; 345  : 
; 346  : 	nResourceSize = ::SizeofResource( hInstance, hResource );

	push	DWORD PTR _hResource$1$[ebp]
	push	ebx
	call	DWORD PTR __imp__SizeofResource@8

; 347  : 	pImageEnd = (const ATLSTRINGRESOURCEIMAGE*)(LPBYTE( pImage )+nResourceSize);

	lea	ecx, DWORD PTR [esi+eax]

; 348  : 	iIndex = id&0x000f;

	and	edi, 15					; 0000000fH

; 349  : 
; 350  : 	while( (iIndex > 0) && (pImage < pImageEnd) )

	jbe	SHORT $LN6@AtlGetStri
	npad	2
$LL5@AtlGetStri:
	cmp	esi, ecx
	jae	SHORT $LN17@AtlGetStri

; 351  : 	{
; 352  : 		pImage = (const ATLSTRINGRESOURCEIMAGE*)(LPBYTE( pImage )+(sizeof( ATLSTRINGRESOURCEIMAGE )+(pImage->nLength*sizeof( WCHAR ))));

	movzx	eax, WORD PTR [esi]
	lea	esi, DWORD PTR [esi+eax*2]
	add	esi, 2

; 353  : 		iIndex--;

	sub	edi, 1
	jne	SHORT $LL5@AtlGetStri
$LN6@AtlGetStri:

; 354  : 	}
; 355  : 	if( pImage >= pImageEnd )

	cmp	esi, ecx
	jae	SHORT $LN17@AtlGetStri

; 356  : 	{
; 357  : 		return( NULL );
; 358  : 	}
; 359  : 	if( pImage->nLength == 0 )

	xor	eax, eax
	cmp	WORD PTR [esi], ax
	cmove	esi, eax

; 378  : 	{
; 379  : 		return( NULL );
; 380  : 	}
; 381  : 
; 382  : 	return _AtlGetStringResourceImage( hInstance, hResource, id );

	mov	eax, esi
	pop	esi
	pop	edi

; 383  : }

	pop	ebx
	pop	ebp
	ret	0
?AtlGetStringResourceImage@ATL@@YAPBUATLSTRINGRESOURCEIMAGE@1@PAUHINSTANCE__@@I@Z ENDP ; ATL::AtlGetStringResourceImage
_TEXT	ENDS
; Function compile flags: /Ogtp
; File C:\Program Files (x86)\Microsoft Visual Studio\2019\Enterprise\VC\Tools\MSVC\14.23.28105\atlmfc\include\cstringt.h
;	COMDAT ?GetBaseTypeLength@?$ChTraitsCRT@_W@ATL@@SAHPB_WH@Z
_TEXT	SEGMENT
_pszSrc$ = 8						; size = 4
_nLength$ = 12						; size = 4
?GetBaseTypeLength@?$ChTraitsCRT@_W@ATL@@SAHPB_WH@Z PROC ; ATL::ChTraitsCRT<wchar_t>::GetBaseTypeLength, COMDAT

; 764  : 	{

	push	ebp
	mov	ebp, esp

; 765  : 		(void)pszSrc;
; 766  : 		// Returns required buffer size in wchar_ts
; 767  : 		return nLength;

	mov	eax, DWORD PTR _nLength$[ebp]

; 768  : 	}

	pop	ebp
	ret	0
?GetBaseTypeLength@?$ChTraitsCRT@_W@ATL@@SAHPB_WH@Z ENDP ; ATL::ChTraitsCRT<wchar_t>::GetBaseTypeLength
_TEXT	ENDS
; Function compile flags: /Ogtp
; File C:\Program Files (x86)\Microsoft Visual Studio\2019\Enterprise\VC\Tools\MSVC\14.23.28105\atlmfc\include\atlcore.h
;	COMDAT ?AtlStrLen@ATL@@YAHPB_W@Z
_TEXT	SEGMENT
_str$ = 8						; size = 4
?AtlStrLen@ATL@@YAHPB_W@Z PROC				; ATL::AtlStrLen, COMDAT

; 60   : {

	push	ebp
	mov	ebp, esp

; 61   : 	if (str == NULL)

	mov	eax, DWORD PTR _str$[ebp]
	test	eax, eax
	jne	SHORT $LN2@AtlStrLen

; 64   : }

	pop	ebp
	ret	0
$LN2@AtlStrLen:

; 62   : 		return 0;
; 63   : 	return static_cast<int>(::wcslen(str));

	lea	edx, DWORD PTR [eax+2]
	npad	1
$LL4@AtlStrLen:
	mov	cx, WORD PTR [eax]
	add	eax, 2
	test	cx, cx
	jne	SHORT $LL4@AtlStrLen
	sub	eax, edx
	sar	eax, 1

; 64   : }

	pop	ebp
	ret	0
?AtlStrLen@ATL@@YAHPB_W@Z ENDP				; ATL::AtlStrLen
_TEXT	ENDS
; Function compile flags: /Ogtp
; File C:\Program Files (x86)\Microsoft Visual Studio\2019\Enterprise\VC\Tools\MSVC\14.23.28105\atlmfc\include\cstringt.h
; File C:\Program Files (x86)\Microsoft Visual Studio\2019\Enterprise\VC\Tools\MSVC\14.23.28105\atlmfc\include\atlcore.h
; File C:\Program Files (x86)\Microsoft Visual Studio\2019\Enterprise\VC\Tools\MSVC\14.23.28105\atlmfc\include\cstringt.h
; File C:\Program Files (x86)\Microsoft Visual Studio\2019\Enterprise\VC\Tools\MSVC\14.23.28105\atlmfc\include\atlcore.h
; File C:\Program Files (x86)\Microsoft Visual Studio\2019\Enterprise\VC\Tools\MSVC\14.23.28105\atlmfc\include\cstringt.h
;	COMDAT ?GetBaseTypeLength@?$ChTraitsCRT@_W@ATL@@SAHPB_W@Z
_TEXT	SEGMENT
_pszSrc$ = 8						; size = 4
?GetBaseTypeLength@?$ChTraitsCRT@_W@ATL@@SAHPB_W@Z PROC	; ATL::ChTraitsCRT<wchar_t>::GetBaseTypeLength, COMDAT

; 756  : 	{

	push	ebp
	mov	ebp, esp
; File C:\Program Files (x86)\Microsoft Visual Studio\2019\Enterprise\VC\Tools\MSVC\14.23.28105\atlmfc\include\atlcore.h

; 61   : 	if (str == NULL)

	mov	eax, DWORD PTR _pszSrc$[ebp]
	test	eax, eax
	jne	SHORT $LN4@GetBaseTyp
; File C:\Program Files (x86)\Microsoft Visual Studio\2019\Enterprise\VC\Tools\MSVC\14.23.28105\atlmfc\include\cstringt.h

; 759  : 	}

	pop	ebp
	ret	0
$LN4@GetBaseTyp:
; File C:\Program Files (x86)\Microsoft Visual Studio\2019\Enterprise\VC\Tools\MSVC\14.23.28105\atlmfc\include\atlcore.h

; 63   : 	return static_cast<int>(::wcslen(str));

	lea	edx, DWORD PTR [eax+2]
	npad	1
$LL6@GetBaseTyp:
	mov	cx, WORD PTR [eax]
	add	eax, 2
	test	cx, cx
	jne	SHORT $LL6@GetBaseTyp
	sub	eax, edx
	sar	eax, 1
; File C:\Program Files (x86)\Microsoft Visual Studio\2019\Enterprise\VC\Tools\MSVC\14.23.28105\atlmfc\include\cstringt.h

; 759  : 	}

	pop	ebp
	ret	0
?GetBaseTypeLength@?$ChTraitsCRT@_W@ATL@@SAHPB_W@Z ENDP	; ATL::ChTraitsCRT<wchar_t>::GetBaseTypeLength
_TEXT	ENDS
; Function compile flags: /Ogtp
; File C:\Program Files (x86)\Microsoft Visual Studio\2019\Enterprise\VC\Tools\MSVC\14.23.28105\atlmfc\include\afx.h
;	COMDAT ?AfxCrtErrorCheck@@YAHH@Z
_TEXT	SEGMENT
_error$ = 8						; size = 4
?AfxCrtErrorCheck@@YAHH@Z PROC				; AfxCrtErrorCheck, COMDAT

; 503  : {

	push	ebp
	mov	ebp, esp

; 504  : 	switch(error)

	mov	ecx, DWORD PTR _error$[ebp]
	cmp	ecx, 80					; 00000050H
	ja	SHORT $LN7@AfxCrtErro
	movzx	eax, BYTE PTR $LN9@AfxCrtErro[ecx]
	jmp	DWORD PTR $LN10@AfxCrtErro[eax*4]
$LN4@AfxCrtErro:

; 505  : 	{
; 506  : 	case ENOMEM:
; 507  : 		AfxThrowMemoryException();

	jmp	?AfxThrowMemoryException@@YGXXZ		; AfxThrowMemoryException
$LN6@AfxCrtErro:

; 518  : 		break;
; 519  : 	}
; 520  : 	return error;

	mov	eax, ecx

; 521  : }

	pop	ebp
	ret	0
$LN7@AfxCrtErro:

; 508  : 		break;
; 509  : 	case EINVAL:
; 510  : 	case ERANGE:
; 511  : 		AfxThrowInvalidArgException();
; 512  : 		break;
; 513  : 	case STRUNCATE:
; 514  : 	case 0:
; 515  : 		break;
; 516  : 	default:
; 517  : 		AfxThrowInvalidArgException();

	jmp	?AfxThrowInvalidArgException@@YGXXZ	; AfxThrowInvalidArgException
	npad	1
$LN10@AfxCrtErro:

; 521  : }

	DD	$LN6@AfxCrtErro
	DD	$LN4@AfxCrtErro
	DD	$LN7@AfxCrtErro
	DD	$LN7@AfxCrtErro
$LN9@AfxCrtErro:
	DB	0
	DB	3
	DB	3
	DB	3
	DB	3
	DB	3
	DB	3
	DB	3
	DB	3
	DB	3
	DB	3
	DB	3
	DB	1
	DB	3
	DB	3
	DB	3
	DB	3
	DB	3
	DB	3
	DB	3
	DB	3
	DB	3
	DB	2
	DB	3
	DB	3
	DB	3
	DB	3
	DB	3
	DB	3
	DB	3
	DB	3
	DB	3
	DB	3
	DB	3
	DB	2
	DB	3
	DB	3
	DB	3
	DB	3
	DB	3
	DB	3
	DB	3
	DB	3
	DB	3
	DB	3
	DB	3
	DB	3
	DB	3
	DB	3
	DB	3
	DB	3
	DB	3
	DB	3
	DB	3
	DB	3
	DB	3
	DB	3
	DB	3
	DB	3
	DB	3
	DB	3
	DB	3
	DB	3
	DB	3
	DB	3
	DB	3
	DB	3
	DB	3
	DB	3
	DB	3
	DB	3
	DB	3
	DB	3
	DB	3
	DB	3
	DB	3
	DB	3
	DB	3
	DB	3
	DB	3
	DB	0
?AfxCrtErrorCheck@@YAHH@Z ENDP				; AfxCrtErrorCheck
_TEXT	ENDS
; Function compile flags: /Ogtp
; File C:\Program Files (x86)\Microsoft Visual Studio\2019\Enterprise\VC\Tools\MSVC\14.23.28105\atlmfc\include\atlchecked.h
; File C:\Program Files (x86)\Microsoft Visual Studio\2019\Enterprise\VC\Tools\MSVC\14.23.28105\atlmfc\include\afx.h
; File C:\Program Files (x86)\Microsoft Visual Studio\2019\Enterprise\VC\Tools\MSVC\14.23.28105\atlmfc\include\atlchecked.h
;	COMDAT ?wmemcpy_s@Checked@ATL@@YAXPA_WIPB_WI@Z
_TEXT	SEGMENT
__S1$ = 8						; size = 4
__N1$ = 12						; size = 4
__S2$ = 16						; size = 4
__N$ = 20						; size = 4
?wmemcpy_s@Checked@ATL@@YAXPA_WIPB_WI@Z PROC		; ATL::Checked::wmemcpy_s, COMDAT

; 77   : {

	push	ebp
	mov	ebp, esp

; 78   : 	ATLMFC_CRT_ERRORCHECK(::wmemcpy_s(_S1, _N1, _S2, _N));

	push	DWORD PTR __N$[ebp]
	push	DWORD PTR __S2$[ebp]
	push	DWORD PTR __N1$[ebp]
	push	DWORD PTR __S1$[ebp]
	call	_wmemcpy_s
	add	esp, 16					; 00000010H
; File C:\Program Files (x86)\Microsoft Visual Studio\2019\Enterprise\VC\Tools\MSVC\14.23.28105\atlmfc\include\afx.h

; 504  : 	switch(error)

	cmp	eax, 80					; 00000050H
	ja	SHORT $LN9@wmemcpy_s
	movzx	eax, BYTE PTR $LN12@wmemcpy_s[eax]
	jmp	DWORD PTR $LN13@wmemcpy_s[eax*4]
$LN6@wmemcpy_s:

; 505  : 	{
; 506  : 	case ENOMEM:
; 507  : 		AfxThrowMemoryException();

	jmp	?AfxThrowMemoryException@@YGXXZ		; AfxThrowMemoryException
$LN9@wmemcpy_s:

; 508  : 		break;
; 509  : 	case EINVAL:
; 510  : 	case ERANGE:
; 511  : 		AfxThrowInvalidArgException();
; 512  : 		break;
; 513  : 	case STRUNCATE:
; 514  : 	case 0:
; 515  : 		break;
; 516  : 	default:
; 517  : 		AfxThrowInvalidArgException();

	jmp	?AfxThrowInvalidArgException@@YGXXZ	; AfxThrowInvalidArgException
$LN4@wmemcpy_s:
; File C:\Program Files (x86)\Microsoft Visual Studio\2019\Enterprise\VC\Tools\MSVC\14.23.28105\atlmfc\include\atlchecked.h

; 79   : }

	pop	ebp
	ret	0
	npad	2
$LN13@wmemcpy_s:
	DD	$LN4@wmemcpy_s
	DD	$LN6@wmemcpy_s
	DD	$LN9@wmemcpy_s
	DD	$LN9@wmemcpy_s
$LN12@wmemcpy_s:
	DB	0
	DB	3
	DB	3
	DB	3
	DB	3
	DB	3
	DB	3
	DB	3
	DB	3
	DB	3
	DB	3
	DB	3
	DB	1
	DB	3
	DB	3
	DB	3
	DB	3
	DB	3
	DB	3
	DB	3
	DB	3
	DB	3
	DB	2
	DB	3
	DB	3
	DB	3
	DB	3
	DB	3
	DB	3
	DB	3
	DB	3
	DB	3
	DB	3
	DB	3
	DB	2
	DB	3
	DB	3
	DB	3
	DB	3
	DB	3
	DB	3
	DB	3
	DB	3
	DB	3
	DB	3
	DB	3
	DB	3
	DB	3
	DB	3
	DB	3
	DB	3
	DB	3
	DB	3
	DB	3
	DB	3
	DB	3
	DB	3
	DB	3
	DB	3
	DB	3
	DB	3
	DB	3
	DB	3
	DB	3
	DB	3
	DB	3
	DB	3
	DB	3
	DB	3
	DB	3
	DB	3
	DB	3
	DB	3
	DB	3
	DB	3
	DB	3
	DB	3
	DB	3
	DB	3
	DB	3
	DB	0
?wmemcpy_s@Checked@ATL@@YAXPA_WIPB_WI@Z ENDP		; ATL::Checked::wmemcpy_s
_TEXT	ENDS
; Function compile flags: /Ogtp
; File C:\Program Files (x86)\Microsoft Visual Studio\2019\Enterprise\VC\Tools\MSVC\14.23.28105\atlmfc\include\cstringt.h
; File C:\Program Files (x86)\Microsoft Visual Studio\2019\Enterprise\VC\Tools\MSVC\14.23.28105\atlmfc\include\atlcore.h
; File C:\Program Files (x86)\Microsoft Visual Studio\2019\Enterprise\VC\Tools\MSVC\14.23.28105\atlmfc\include\cstringt.h
; File C:\Program Files (x86)\Microsoft Visual Studio\2019\Enterprise\VC\Tools\MSVC\14.23.28105\atlmfc\include\atlchecked.h
; File C:\Program Files (x86)\Microsoft Visual Studio\2019\Enterprise\VC\Tools\MSVC\14.23.28105\atlmfc\include\afx.h
; File C:\Program Files (x86)\Microsoft Visual Studio\2019\Enterprise\VC\Tools\MSVC\14.23.28105\atlmfc\include\cstringt.h
; File C:\Program Files (x86)\Microsoft Visual Studio\2019\Enterprise\VC\Tools\MSVC\14.23.28105\atlmfc\include\afx.h
; File C:\Program Files (x86)\Microsoft Visual Studio\2019\Enterprise\VC\Tools\MSVC\14.23.28105\atlmfc\include\cstringt.h
;	COMDAT ?ConvertToBaseType@?$ChTraitsCRT@_W@ATL@@SAXPA_WHPB_WH@Z
_TEXT	SEGMENT
_pszDest$ = 8						; size = 4
_nDestLength$ = 12					; size = 4
_pszSrc$ = 16						; size = 4
_nSrcLength$ = 20					; size = 4
?ConvertToBaseType@?$ChTraitsCRT@_W@ATL@@SAXPA_WHPB_WH@Z PROC ; ATL::ChTraitsCRT<wchar_t>::ConvertToBaseType, COMDAT

; 785  : 	{

	push	ebp
	mov	ebp, esp

; 786  : 		if (nSrcLength == -1) { nSrcLength=1 + GetBaseTypeLength(pszSrc); }

	mov	ecx, DWORD PTR _nSrcLength$[ebp]
	mov	edx, DWORD PTR _pszSrc$[ebp]
	cmp	ecx, -1
	jne	SHORT $LN2@ConvertToB
; File C:\Program Files (x86)\Microsoft Visual Studio\2019\Enterprise\VC\Tools\MSVC\14.23.28105\atlmfc\include\atlcore.h

; 61   : 	if (str == NULL)

	test	edx, edx
	jne	SHORT $LN7@ConvertToB

; 62   : 		return 0;

	xor	ecx, ecx
	jmp	SHORT $LN6@ConvertToB
$LN7@ConvertToB:

; 63   : 	return static_cast<int>(::wcslen(str));

	mov	ecx, edx
	push	esi
	lea	esi, DWORD PTR [ecx+2]
	npad	4
$LL21@ConvertToB:
	mov	ax, WORD PTR [ecx]
	add	ecx, 2
	test	ax, ax
	jne	SHORT $LL21@ConvertToB
	sub	ecx, esi
	sar	ecx, 1
	pop	esi
$LN6@ConvertToB:
; File C:\Program Files (x86)\Microsoft Visual Studio\2019\Enterprise\VC\Tools\MSVC\14.23.28105\atlmfc\include\cstringt.h

; 786  : 		if (nSrcLength == -1) { nSrcLength=1 + GetBaseTypeLength(pszSrc); }

	inc	ecx
$LN2@ConvertToB:
; File C:\Program Files (x86)\Microsoft Visual Studio\2019\Enterprise\VC\Tools\MSVC\14.23.28105\atlmfc\include\atlchecked.h

; 78   : 	ATLMFC_CRT_ERRORCHECK(::wmemcpy_s(_S1, _N1, _S2, _N));

	push	ecx
	push	edx
	push	DWORD PTR _nDestLength$[ebp]
	push	DWORD PTR _pszDest$[ebp]
	call	_wmemcpy_s
	add	esp, 16					; 00000010H
; File C:\Program Files (x86)\Microsoft Visual Studio\2019\Enterprise\VC\Tools\MSVC\14.23.28105\atlmfc\include\afx.h

; 504  : 	switch(error)

	cmp	eax, 80					; 00000050H
	ja	SHORT $LN17@ConvertToB
	movzx	eax, BYTE PTR $LN22@ConvertToB[eax]
	jmp	DWORD PTR $LN23@ConvertToB[eax*4]
$LN12@ConvertToB:
; File C:\Program Files (x86)\Microsoft Visual Studio\2019\Enterprise\VC\Tools\MSVC\14.23.28105\atlmfc\include\cstringt.h

; 789  : 	}

	pop	ebp
	ret	0
$LN14@ConvertToB:
; File C:\Program Files (x86)\Microsoft Visual Studio\2019\Enterprise\VC\Tools\MSVC\14.23.28105\atlmfc\include\afx.h

; 507  : 		AfxThrowMemoryException();

	call	?AfxThrowMemoryException@@YGXXZ		; AfxThrowMemoryException
$LN17@ConvertToB:

; 508  : 		break;
; 509  : 	case EINVAL:
; 510  : 	case ERANGE:
; 511  : 		AfxThrowInvalidArgException();
; 512  : 		break;
; 513  : 	case STRUNCATE:
; 514  : 	case 0:
; 515  : 		break;
; 516  : 	default:
; 517  : 		AfxThrowInvalidArgException();

	call	?AfxThrowInvalidArgException@@YGXXZ	; AfxThrowInvalidArgException
$LN24@ConvertToB:
$LN23@ConvertToB:
; File C:\Program Files (x86)\Microsoft Visual Studio\2019\Enterprise\VC\Tools\MSVC\14.23.28105\atlmfc\include\cstringt.h

; 789  : 	}

	DD	$LN12@ConvertToB
	DD	$LN14@ConvertToB
	DD	$LN17@ConvertToB
	DD	$LN17@ConvertToB
$LN22@ConvertToB:
	DB	0
	DB	3
	DB	3
	DB	3
	DB	3
	DB	3
	DB	3
	DB	3
	DB	3
	DB	3
	DB	3
	DB	3
	DB	1
	DB	3
	DB	3
	DB	3
	DB	3
	DB	3
	DB	3
	DB	3
	DB	3
	DB	3
	DB	2
	DB	3
	DB	3
	DB	3
	DB	3
	DB	3
	DB	3
	DB	3
	DB	3
	DB	3
	DB	3
	DB	3
	DB	2
	DB	3
	DB	3
	DB	3
	DB	3
	DB	3
	DB	3
	DB	3
	DB	3
	DB	3
	DB	3
	DB	3
	DB	3
	DB	3
	DB	3
	DB	3
	DB	3
	DB	3
	DB	3
	DB	3
	DB	3
	DB	3
	DB	3
	DB	3
	DB	3
	DB	3
	DB	3
	DB	3
	DB	3
	DB	3
	DB	3
	DB	3
	DB	3
	DB	3
	DB	3
	DB	3
	DB	3
	DB	3
	DB	3
	DB	3
	DB	3
	DB	3
	DB	3
	DB	3
	DB	3
	DB	3
	DB	0
?ConvertToBaseType@?$ChTraitsCRT@_W@ATL@@SAXPA_WHPB_WH@Z ENDP ; ATL::ChTraitsCRT<wchar_t>::ConvertToBaseType
_TEXT	ENDS
; Function compile flags: /Ogtp
; File C:\Program Files (x86)\Microsoft Visual Studio\2019\Enterprise\VC\Tools\MSVC\14.23.28105\atlmfc\include\cstringt.h
; File C:\Program Files (x86)\Microsoft Visual Studio\2019\Enterprise\VC\Tools\MSVC\14.23.28105\atlmfc\include\atlcore.h
; File C:\Program Files (x86)\Microsoft Visual Studio\2019\Enterprise\VC\Tools\MSVC\14.23.28105\atlmfc\include\cstringt.h
; File C:\Program Files (x86)\Microsoft Visual Studio\2019\Enterprise\VC\Tools\MSVC\14.23.28105\atlmfc\include\atlcore.h
; File C:\Program Files (x86)\Microsoft Visual Studio\2019\Enterprise\VC\Tools\MSVC\14.23.28105\atlmfc\include\atlsimpstr.h
; File C:\Program Files (x86)\Microsoft Visual Studio\2019\Enterprise\VC\Tools\MSVC\14.23.28105\atlmfc\include\cstringt.h
; File C:\Program Files (x86)\Microsoft Visual Studio\2019\Enterprise\VC\Tools\MSVC\14.23.28105\atlmfc\include\atlsimpstr.h
; File C:\Program Files (x86)\Microsoft Visual Studio\2019\Enterprise\VC\Tools\MSVC\14.23.28105\atlmfc\include\cstringt.h
; File C:\Program Files (x86)\Microsoft Visual Studio\2019\Enterprise\VC\Tools\MSVC\14.23.28105\atlmfc\include\atlchecked.h
; File C:\Program Files (x86)\Microsoft Visual Studio\2019\Enterprise\VC\Tools\MSVC\14.23.28105\atlmfc\include\afx.h
; File C:\Program Files (x86)\Microsoft Visual Studio\2019\Enterprise\VC\Tools\MSVC\14.23.28105\atlmfc\include\atlsimpstr.h
; File C:\Program Files (x86)\Microsoft Visual Studio\2019\Enterprise\VC\Tools\MSVC\14.23.28105\atlmfc\include\cstringt.h
; File C:\Program Files (x86)\Microsoft Visual Studio\2019\Enterprise\VC\Tools\MSVC\14.23.28105\atlmfc\include\atlsimpstr.h
; File C:\Program Files (x86)\Microsoft Visual Studio\2019\Enterprise\VC\Tools\MSVC\14.23.28105\atlmfc\include\cstringt.h
; File C:\Program Files (x86)\Microsoft Visual Studio\2019\Enterprise\VC\Tools\MSVC\14.23.28105\atlmfc\include\afx.h
; File C:\Program Files (x86)\Microsoft Visual Studio\2019\Enterprise\VC\Tools\MSVC\14.23.28105\atlmfc\include\atlsimpstr.h
; File C:\Program Files (x86)\Microsoft Visual Studio\2019\Enterprise\VC\Tools\MSVC\14.23.28105\atlmfc\include\afx.h
; File C:\Program Files (x86)\Microsoft Visual Studio\2019\Enterprise\VC\Tools\MSVC\14.23.28105\atlmfc\include\cstringt.h
;	COMDAT ?LoadStringW@?$CStringT@_WV?$StrTraitMFC@_WV?$ChTraitsCRT@_W@ATL@@@@@ATL@@QAEHPAUHINSTANCE__@@I@Z
_TEXT	SEGMENT
$T4 = 8							; size = 4
_hInstance$ = 8						; size = 4
_hResource$1$ = 12					; size = 4
_nID$ = 12						; size = 4
?LoadStringW@?$CStringT@_WV?$StrTraitMFC@_WV?$ChTraitsCRT@_W@ATL@@@@@ATL@@QAEHPAUHINSTANCE__@@I@Z PROC ; ATL::CStringT<wchar_t,StrTraitMFC<wchar_t,ATL::ChTraitsCRT<wchar_t> > >::LoadStringW, COMDAT
; _this$ = ecx

; 2344 : 	{

	push	ebp
	mov	ebp, esp
	push	ebx
	push	esi
; File C:\Program Files (x86)\Microsoft Visual Studio\2019\Enterprise\VC\Tools\MSVC\14.23.28105\atlmfc\include\atlcore.h

; 376  : 	hResource = ::FindResourceW(hInstance, MAKEINTRESOURCEW( (((id>>4)+1) & static_cast<WORD>(~0)) ), (LPWSTR) RT_STRING);

	mov	esi, DWORD PTR _hInstance$[ebp]
; File C:\Program Files (x86)\Microsoft Visual Studio\2019\Enterprise\VC\Tools\MSVC\14.23.28105\atlmfc\include\cstringt.h

; 2344 : 	{

	mov	ebx, ecx
	push	edi
; File C:\Program Files (x86)\Microsoft Visual Studio\2019\Enterprise\VC\Tools\MSVC\14.23.28105\atlmfc\include\atlcore.h

; 376  : 	hResource = ::FindResourceW(hInstance, MAKEINTRESOURCEW( (((id>>4)+1) & static_cast<WORD>(~0)) ), (LPWSTR) RT_STRING);

	mov	edi, DWORD PTR _nID$[ebp]
	mov	eax, edi
	shr	eax, 4
	inc	eax
	push	6
	movzx	eax, ax
	push	eax
	push	esi
	call	DWORD PTR __imp__FindResourceW@12
	mov	DWORD PTR _hResource$1$[ebp], eax

; 377  : 	if( hResource == NULL )

	test	eax, eax
	je	$LN61@LoadString

; 334  : 	hGlobal = ::LoadResource( hInstance, hResource );

	push	eax
	push	esi
	call	DWORD PTR __imp__LoadResource@8

; 335  : 	if( hGlobal == NULL )

	test	eax, eax
	je	$LN61@LoadString

; 336  : 	{
; 337  : 		return( NULL );
; 338  : 	}
; 339  : 
; 340  : 	pImage = (const ATLSTRINGRESOURCEIMAGE*)::LockResource( hGlobal );

	push	eax
	call	DWORD PTR __imp__LockResource@4
	mov	esi, eax

; 341  : 	if( pImage == NULL )

	test	esi, esi
	je	$LN61@LoadString

; 342  : 	{
; 343  : 		return( NULL );
; 344  : 	}
; 345  : 
; 346  : 	nResourceSize = ::SizeofResource( hInstance, hResource );

	push	DWORD PTR _hResource$1$[ebp]
	push	DWORD PTR _hInstance$[ebp]
	call	DWORD PTR __imp__SizeofResource@8

; 347  : 	pImageEnd = (const ATLSTRINGRESOURCEIMAGE*)(LPBYTE( pImage )+nResourceSize);

	lea	ecx, DWORD PTR [esi+eax]

; 348  : 	iIndex = id&0x000f;

	and	edi, 15					; 0000000fH

; 349  : 
; 350  : 	while( (iIndex > 0) && (pImage < pImageEnd) )

	jbe	SHORT $LN9@LoadString
$LL8@LoadString:
	cmp	esi, ecx
	jae	$LN61@LoadString

; 351  : 	{
; 352  : 		pImage = (const ATLSTRINGRESOURCEIMAGE*)(LPBYTE( pImage )+(sizeof( ATLSTRINGRESOURCEIMAGE )+(pImage->nLength*sizeof( WCHAR ))));

	movzx	eax, WORD PTR [esi]
	lea	esi, DWORD PTR [esi+eax*2]
	add	esi, 2

; 353  : 		iIndex--;

	sub	edi, 1
	jne	SHORT $LL8@LoadString
$LN9@LoadString:

; 354  : 	}
; 355  : 	if( pImage >= pImageEnd )

	cmp	esi, ecx
	jae	SHORT $LN61@LoadString

; 356  : 	{
; 357  : 		return( NULL );
; 358  : 	}
; 359  : 	if( pImage->nLength == 0 )

	movzx	eax, WORD PTR [esi]
	test	ax, ax
	je	SHORT $LN61@LoadString
; File C:\Program Files (x86)\Microsoft Visual Studio\2019\Enterprise\VC\Tools\MSVC\14.23.28105\atlmfc\include\atlsimpstr.h

; 800  : 		return( reinterpret_cast< CStringData* >( m_pszData )-1 );

	mov	edx, DWORD PTR [ebx]
; File C:\Program Files (x86)\Microsoft Visual Studio\2019\Enterprise\VC\Tools\MSVC\14.23.28105\atlmfc\include\cstringt.h

; 2351 : 		int nLength = StringTraits::GetBaseTypeLength( pImage->achString, pImage->nLength );

	mov	edi, eax
; File C:\Program Files (x86)\Microsoft Visual Studio\2019\Enterprise\VC\Tools\MSVC\14.23.28105\atlmfc\include\atlsimpstr.h

; 810  : 		if( (nShared|nTooShort) < 0 )  // If either sign bit is set (i.e. either is less than zero), we need to copy data

	mov	DWORD PTR $T4[ebp], eax
	mov	ecx, 1
	mov	eax, DWORD PTR [edx-8]
	sub	ecx, DWORD PTR [edx-4]
	sub	eax, edi
	or	ecx, eax
	jge	SHORT $LN64@LoadString

; 811  : 		{
; 812  : 			PrepareWrite2( nLength );

	push	edi
	mov	ecx, ebx
	call	?PrepareWrite2@?$CSimpleStringT@_W$0A@@ATL@@AAEXH@Z ; ATL::CSimpleStringT<wchar_t,0>::PrepareWrite2
	mov	edx, DWORD PTR [ebx]
	movzx	eax, WORD PTR [esi]
	jmp	SHORT $LN19@LoadString
$LN64@LoadString:

; 810  : 		if( (nShared|nTooShort) < 0 )  // If either sign bit is set (i.e. either is less than zero), we need to copy data

	mov	eax, DWORD PTR $T4[ebp]
$LN19@LoadString:
; File C:\Program Files (x86)\Microsoft Visual Studio\2019\Enterprise\VC\Tools\MSVC\14.23.28105\atlmfc\include\cstringt.h

; 2353 : 		StringTraits::ConvertToBaseType( pszBuffer, nLength, pImage->achString, pImage->nLength );

	movzx	ecx, ax
	lea	eax, DWORD PTR [esi+2]
; File C:\Program Files (x86)\Microsoft Visual Studio\2019\Enterprise\VC\Tools\MSVC\14.23.28105\atlmfc\include\atlchecked.h

; 78   : 	ATLMFC_CRT_ERRORCHECK(::wmemcpy_s(_S1, _N1, _S2, _N));

	push	ecx
	push	eax
	push	edi
	push	edx
	call	_wmemcpy_s
	add	esp, 16					; 00000010H
; File C:\Program Files (x86)\Microsoft Visual Studio\2019\Enterprise\VC\Tools\MSVC\14.23.28105\atlmfc\include\afx.h

; 504  : 	switch(error)

	cmp	eax, 80					; 00000050H
	ja	SHORT $LN41@LoadString
	movzx	eax, BYTE PTR $LN62@LoadString[eax]
	jmp	DWORD PTR $LN63@LoadString[eax*4]
$LN40@LoadString:
; File C:\Program Files (x86)\Microsoft Visual Studio\2019\Enterprise\VC\Tools\MSVC\14.23.28105\atlmfc\include\atlsimpstr.h

; 871  : 		if( nLength < 0 || nLength > GetData()->nAllocLength)

	mov	ecx, DWORD PTR [ebx]
	cmp	edi, DWORD PTR [ecx-8]
	jg	SHORT $LN49@LoadString

; 873  : 
; 874  : 		GetData()->nDataLength = nLength;

	mov	DWORD PTR [ecx-12], edi

; 875  : 		m_pszData[nLength] = 0;

	xor	edx, edx
	mov	ecx, DWORD PTR [ebx]
; File C:\Program Files (x86)\Microsoft Visual Studio\2019\Enterprise\VC\Tools\MSVC\14.23.28105\atlmfc\include\cstringt.h

; 2356 : 		return( TRUE );

	lea	eax, DWORD PTR [edx+1]
; File C:\Program Files (x86)\Microsoft Visual Studio\2019\Enterprise\VC\Tools\MSVC\14.23.28105\atlmfc\include\atlsimpstr.h

; 875  : 		m_pszData[nLength] = 0;

	mov	WORD PTR [ecx+edi*2], dx
	pop	edi
; File C:\Program Files (x86)\Microsoft Visual Studio\2019\Enterprise\VC\Tools\MSVC\14.23.28105\atlmfc\include\cstringt.h

; 2357 : 	}

	pop	esi
	pop	ebx
	pop	ebp
	ret	8
$LN61@LoadString:
	pop	edi
	pop	esi
	xor	eax, eax
	pop	ebx
	pop	ebp
	ret	8
$LN38@LoadString:
; File C:\Program Files (x86)\Microsoft Visual Studio\2019\Enterprise\VC\Tools\MSVC\14.23.28105\atlmfc\include\afx.h

; 507  : 		AfxThrowMemoryException();

	call	?AfxThrowMemoryException@@YGXXZ		; AfxThrowMemoryException
$LN49@LoadString:
; File C:\Program Files (x86)\Microsoft Visual Studio\2019\Enterprise\VC\Tools\MSVC\14.23.28105\atlmfc\include\atlsimpstr.h

; 872  : 			AtlThrow(E_INVALIDARG);

	push	-2147024809				; 80070057H
	call	?AtlThrowImpl@ATL@@YGXJ@Z		; ATL::AtlThrowImpl
$LN41@LoadString:
; File C:\Program Files (x86)\Microsoft Visual Studio\2019\Enterprise\VC\Tools\MSVC\14.23.28105\atlmfc\include\afx.h

; 517  : 		AfxThrowInvalidArgException();

	call	?AfxThrowInvalidArgException@@YGXXZ	; AfxThrowInvalidArgException
$LN65@LoadString:
	npad	1
$LN63@LoadString:
; File C:\Program Files (x86)\Microsoft Visual Studio\2019\Enterprise\VC\Tools\MSVC\14.23.28105\atlmfc\include\cstringt.h

; 2357 : 	}

	DD	$LN40@LoadString
	DD	$LN38@LoadString
	DD	$LN41@LoadString
	DD	$LN41@LoadString
$LN62@LoadString:
	DB	0
	DB	3
	DB	3
	DB	3
	DB	3
	DB	3
	DB	3
	DB	3
	DB	3
	DB	3
	DB	3
	DB	3
	DB	1
	DB	3
	DB	3
	DB	3
	DB	3
	DB	3
	DB	3
	DB	3
	DB	3
	DB	3
	DB	2
	DB	3
	DB	3
	DB	3
	DB	3
	DB	3
	DB	3
	DB	3
	DB	3
	DB	3
	DB	3
	DB	3
	DB	2
	DB	3
	DB	3
	DB	3
	DB	3
	DB	3
	DB	3
	DB	3
	DB	3
	DB	3
	DB	3
	DB	3
	DB	3
	DB	3
	DB	3
	DB	3
	DB	3
	DB	3
	DB	3
	DB	3
	DB	3
	DB	3
	DB	3
	DB	3
	DB	3
	DB	3
	DB	3
	DB	3
	DB	3
	DB	3
	DB	3
	DB	3
	DB	3
	DB	3
	DB	3
	DB	3
	DB	3
	DB	3
	DB	3
	DB	3
	DB	3
	DB	3
	DB	3
	DB	3
	DB	3
	DB	3
	DB	0
?LoadStringW@?$CStringT@_WV?$StrTraitMFC@_WV?$ChTraitsCRT@_W@ATL@@@@@ATL@@QAEHPAUHINSTANCE__@@I@Z ENDP ; ATL::CStringT<wchar_t,StrTraitMFC<wchar_t,ATL::ChTraitsCRT<wchar_t> > >::LoadStringW
_TEXT	ENDS
; Function compile flags: /Ogtp
; File C:\Program Files (x86)\Microsoft Visual Studio\2019\Enterprise\VC\Tools\MSVC\14.23.28105\atlmfc\include\cstringt.h
; File C:\Program Files (x86)\Microsoft Visual Studio\2019\Enterprise\VC\Tools\MSVC\14.23.28105\atlmfc\include\afxstr.h
; File C:\Program Files (x86)\Microsoft Visual Studio\2019\Enterprise\VC\Tools\MSVC\14.23.28105\atlmfc\include\cstringt.h
; File C:\Program Files (x86)\Microsoft Visual Studio\2019\Enterprise\VC\Tools\MSVC\14.23.28105\atlmfc\include\afxstr.h
; File C:\Program Files (x86)\Microsoft Visual Studio\2019\Enterprise\VC\Tools\MSVC\14.23.28105\atlmfc\include\cstringt.h
; File C:\Program Files (x86)\Microsoft Visual Studio\2019\Enterprise\VC\Tools\MSVC\14.23.28105\atlmfc\include\atlcore.h
; File C:\Program Files (x86)\Microsoft Visual Studio\2019\Enterprise\VC\Tools\MSVC\14.23.28105\atlmfc\include\atlsimpstr.h
; File C:\Program Files (x86)\Microsoft Visual Studio\2019\Enterprise\VC\Tools\MSVC\14.23.28105\atlmfc\include\cstringt.h
; File C:\Program Files (x86)\Microsoft Visual Studio\2019\Enterprise\VC\Tools\MSVC\14.23.28105\atlmfc\include\atlsimpstr.h
; File C:\Program Files (x86)\Microsoft Visual Studio\2019\Enterprise\VC\Tools\MSVC\14.23.28105\atlmfc\include\cstringt.h
; File C:\Program Files (x86)\Microsoft Visual Studio\2019\Enterprise\VC\Tools\MSVC\14.23.28105\atlmfc\include\atlchecked.h
; File C:\Program Files (x86)\Microsoft Visual Studio\2019\Enterprise\VC\Tools\MSVC\14.23.28105\atlmfc\include\afx.h
; File C:\Program Files (x86)\Microsoft Visual Studio\2019\Enterprise\VC\Tools\MSVC\14.23.28105\atlmfc\include\atlsimpstr.h
; File C:\Program Files (x86)\Microsoft Visual Studio\2019\Enterprise\VC\Tools\MSVC\14.23.28105\atlmfc\include\cstringt.h
; File C:\Program Files (x86)\Microsoft Visual Studio\2019\Enterprise\VC\Tools\MSVC\14.23.28105\atlmfc\include\afx.h
; File C:\Program Files (x86)\Microsoft Visual Studio\2019\Enterprise\VC\Tools\MSVC\14.23.28105\atlmfc\include\atlsimpstr.h
; File C:\Program Files (x86)\Microsoft Visual Studio\2019\Enterprise\VC\Tools\MSVC\14.23.28105\atlmfc\include\afx.h
; File C:\Program Files (x86)\Microsoft Visual Studio\2019\Enterprise\VC\Tools\MSVC\14.23.28105\atlmfc\include\cstringt.h
;	COMDAT ?LoadStringW@?$CStringT@_WV?$StrTraitMFC@_WV?$ChTraitsCRT@_W@ATL@@@@@ATL@@QAEHI@Z
_TEXT	SEGMENT
_hInst$1$ = -4						; size = 4
_hResource$1$ = 8					; size = 4
$T5 = 8							; size = 4
_nID$ = 8						; size = 4
?LoadStringW@?$CStringT@_WV?$StrTraitMFC@_WV?$ChTraitsCRT@_W@ATL@@@@@ATL@@QAEHI@Z PROC ; ATL::CStringT<wchar_t,StrTraitMFC<wchar_t,ATL::ChTraitsCRT<wchar_t> > >::LoadStringW, COMDAT
; _this$ = ecx

; 2330 : 	{

	push	ebp
	mov	ebp, esp
	push	ecx
	push	ebx
	push	esi
	push	edi
; File C:\Program Files (x86)\Microsoft Visual Studio\2019\Enterprise\VC\Tools\MSVC\14.23.28105\atlmfc\include\afxstr.h

; 47   : 		return( AfxFindStringResourceHandle( nID ) );

	mov	edi, DWORD PTR _nID$[ebp]
; File C:\Program Files (x86)\Microsoft Visual Studio\2019\Enterprise\VC\Tools\MSVC\14.23.28105\atlmfc\include\cstringt.h

; 2330 : 	{

	mov	ebx, ecx
; File C:\Program Files (x86)\Microsoft Visual Studio\2019\Enterprise\VC\Tools\MSVC\14.23.28105\atlmfc\include\afxstr.h

; 47   : 		return( AfxFindStringResourceHandle( nID ) );

	push	edi
	call	?AfxFindStringResourceHandle@@YGPAUHINSTANCE__@@I@Z ; AfxFindStringResourceHandle
; File C:\Program Files (x86)\Microsoft Visual Studio\2019\Enterprise\VC\Tools\MSVC\14.23.28105\atlmfc\include\cstringt.h

; 2331 : 		HINSTANCE hInst = StringTraits::FindStringResourceInstance( nID );

	mov	esi, eax
	mov	DWORD PTR _hInst$1$[ebp], esi

; 2332 : 		if( hInst == NULL )

	test	esi, esi
	je	$LN67@LoadString
; File C:\Program Files (x86)\Microsoft Visual Studio\2019\Enterprise\VC\Tools\MSVC\14.23.28105\atlmfc\include\atlcore.h

; 376  : 	hResource = ::FindResourceW(hInstance, MAKEINTRESOURCEW( (((id>>4)+1) & static_cast<WORD>(~0)) ), (LPWSTR) RT_STRING);

	mov	eax, edi
	shr	eax, 4
	inc	eax
	push	6
	movzx	eax, ax
	push	eax
	push	esi
	call	DWORD PTR __imp__FindResourceW@12
	mov	DWORD PTR _hResource$1$[ebp], eax

; 377  : 	if( hResource == NULL )

	test	eax, eax
	je	$LN67@LoadString

; 334  : 	hGlobal = ::LoadResource( hInstance, hResource );

	push	eax
	push	esi
	call	DWORD PTR __imp__LoadResource@8

; 335  : 	if( hGlobal == NULL )

	test	eax, eax
	je	$LN67@LoadString

; 336  : 	{
; 337  : 		return( NULL );
; 338  : 	}
; 339  : 
; 340  : 	pImage = (const ATLSTRINGRESOURCEIMAGE*)::LockResource( hGlobal );

	push	eax
	call	DWORD PTR __imp__LockResource@4
	mov	esi, eax

; 341  : 	if( pImage == NULL )

	test	esi, esi
	je	$LN67@LoadString

; 342  : 	{
; 343  : 		return( NULL );
; 344  : 	}
; 345  : 
; 346  : 	nResourceSize = ::SizeofResource( hInstance, hResource );

	push	DWORD PTR _hResource$1$[ebp]
	push	DWORD PTR _hInst$1$[ebp]
	call	DWORD PTR __imp__SizeofResource@8

; 347  : 	pImageEnd = (const ATLSTRINGRESOURCEIMAGE*)(LPBYTE( pImage )+nResourceSize);

	lea	ecx, DWORD PTR [esi+eax]

; 348  : 	iIndex = id&0x000f;

	and	edi, 15					; 0000000fH

; 349  : 
; 350  : 	while( (iIndex > 0) && (pImage < pImageEnd) )

	jbe	SHORT $LN14@LoadString
$LL13@LoadString:
	cmp	esi, ecx
	jae	$LN67@LoadString

; 351  : 	{
; 352  : 		pImage = (const ATLSTRINGRESOURCEIMAGE*)(LPBYTE( pImage )+(sizeof( ATLSTRINGRESOURCEIMAGE )+(pImage->nLength*sizeof( WCHAR ))));

	movzx	eax, WORD PTR [esi]
	lea	esi, DWORD PTR [esi+eax*2]
	add	esi, 2

; 353  : 		iIndex--;

	sub	edi, 1
	jne	SHORT $LL13@LoadString
$LN14@LoadString:

; 354  : 	}
; 355  : 	if( pImage >= pImageEnd )

	cmp	esi, ecx
	jae	SHORT $LN67@LoadString

; 356  : 	{
; 357  : 		return( NULL );
; 358  : 	}
; 359  : 	if( pImage->nLength == 0 )

	movzx	eax, WORD PTR [esi]
	test	ax, ax
	je	SHORT $LN67@LoadString
; File C:\Program Files (x86)\Microsoft Visual Studio\2019\Enterprise\VC\Tools\MSVC\14.23.28105\atlmfc\include\atlsimpstr.h

; 800  : 		return( reinterpret_cast< CStringData* >( m_pszData )-1 );

	mov	edx, DWORD PTR [ebx]
; File C:\Program Files (x86)\Microsoft Visual Studio\2019\Enterprise\VC\Tools\MSVC\14.23.28105\atlmfc\include\cstringt.h

; 2351 : 		int nLength = StringTraits::GetBaseTypeLength( pImage->achString, pImage->nLength );

	mov	edi, eax
; File C:\Program Files (x86)\Microsoft Visual Studio\2019\Enterprise\VC\Tools\MSVC\14.23.28105\atlmfc\include\atlsimpstr.h

; 810  : 		if( (nShared|nTooShort) < 0 )  // If either sign bit is set (i.e. either is less than zero), we need to copy data

	mov	DWORD PTR $T5[ebp], eax
	mov	ecx, 1
	mov	eax, DWORD PTR [edx-8]
	sub	ecx, DWORD PTR [edx-4]
	sub	eax, edi
	or	ecx, eax
	jge	SHORT $LN70@LoadString

; 811  : 		{
; 812  : 			PrepareWrite2( nLength );

	push	edi
	mov	ecx, ebx
	call	?PrepareWrite2@?$CSimpleStringT@_W$0A@@ATL@@AAEXH@Z ; ATL::CSimpleStringT<wchar_t,0>::PrepareWrite2
	mov	edx, DWORD PTR [ebx]
	movzx	eax, WORD PTR [esi]
	jmp	SHORT $LN24@LoadString
$LN70@LoadString:

; 810  : 		if( (nShared|nTooShort) < 0 )  // If either sign bit is set (i.e. either is less than zero), we need to copy data

	mov	eax, DWORD PTR $T5[ebp]
$LN24@LoadString:
; File C:\Program Files (x86)\Microsoft Visual Studio\2019\Enterprise\VC\Tools\MSVC\14.23.28105\atlmfc\include\cstringt.h

; 2353 : 		StringTraits::ConvertToBaseType( pszBuffer, nLength, pImage->achString, pImage->nLength );

	movzx	ecx, ax
	lea	eax, DWORD PTR [esi+2]
; File C:\Program Files (x86)\Microsoft Visual Studio\2019\Enterprise\VC\Tools\MSVC\14.23.28105\atlmfc\include\atlchecked.h

; 78   : 	ATLMFC_CRT_ERRORCHECK(::wmemcpy_s(_S1, _N1, _S2, _N));

	push	ecx
	push	eax
	push	edi
	push	edx
	call	_wmemcpy_s
	add	esp, 16					; 00000010H
; File C:\Program Files (x86)\Microsoft Visual Studio\2019\Enterprise\VC\Tools\MSVC\14.23.28105\atlmfc\include\afx.h

; 504  : 	switch(error)

	cmp	eax, 80					; 00000050H
	ja	SHORT $LN46@LoadString
	movzx	eax, BYTE PTR $LN68@LoadString[eax]
	jmp	DWORD PTR $LN69@LoadString[eax*4]
$LN45@LoadString:
; File C:\Program Files (x86)\Microsoft Visual Studio\2019\Enterprise\VC\Tools\MSVC\14.23.28105\atlmfc\include\atlsimpstr.h

; 871  : 		if( nLength < 0 || nLength > GetData()->nAllocLength)

	mov	eax, DWORD PTR [ebx]
	cmp	edi, DWORD PTR [eax-8]
	jg	SHORT $LN54@LoadString

; 873  : 
; 874  : 		GetData()->nDataLength = nLength;

	mov	DWORD PTR [eax-12], edi

; 875  : 		m_pszData[nLength] = 0;

	xor	ecx, ecx
	mov	eax, DWORD PTR [ebx]
	mov	WORD PTR [eax+edi*2], cx
; File C:\Program Files (x86)\Microsoft Visual Studio\2019\Enterprise\VC\Tools\MSVC\14.23.28105\atlmfc\include\cstringt.h

; 2356 : 		return( TRUE );

	lea	eax, DWORD PTR [ecx+1]
	pop	edi

; 2338 : 	}

	pop	esi
	pop	ebx
	mov	esp, ebp
	pop	ebp
	ret	4
$LN67@LoadString:
	pop	edi
	pop	esi
	xor	eax, eax
	pop	ebx
	mov	esp, ebp
	pop	ebp
	ret	4
$LN43@LoadString:
; File C:\Program Files (x86)\Microsoft Visual Studio\2019\Enterprise\VC\Tools\MSVC\14.23.28105\atlmfc\include\afx.h

; 507  : 		AfxThrowMemoryException();

	call	?AfxThrowMemoryException@@YGXXZ		; AfxThrowMemoryException
$LN54@LoadString:
; File C:\Program Files (x86)\Microsoft Visual Studio\2019\Enterprise\VC\Tools\MSVC\14.23.28105\atlmfc\include\atlsimpstr.h

; 872  : 			AtlThrow(E_INVALIDARG);

	push	-2147024809				; 80070057H
	call	?AtlThrowImpl@ATL@@YGXJ@Z		; ATL::AtlThrowImpl
$LN46@LoadString:
; File C:\Program Files (x86)\Microsoft Visual Studio\2019\Enterprise\VC\Tools\MSVC\14.23.28105\atlmfc\include\afx.h

; 517  : 		AfxThrowInvalidArgException();

	call	?AfxThrowInvalidArgException@@YGXXZ	; AfxThrowInvalidArgException
$LN71@LoadString:
$LN69@LoadString:
; File C:\Program Files (x86)\Microsoft Visual Studio\2019\Enterprise\VC\Tools\MSVC\14.23.28105\atlmfc\include\cstringt.h

; 2338 : 	}

	DD	$LN45@LoadString
	DD	$LN43@LoadString
	DD	$LN46@LoadString
	DD	$LN46@LoadString
$LN68@LoadString:
	DB	0
	DB	3
	DB	3
	DB	3
	DB	3
	DB	3
	DB	3
	DB	3
	DB	3
	DB	3
	DB	3
	DB	3
	DB	1
	DB	3
	DB	3
	DB	3
	DB	3
	DB	3
	DB	3
	DB	3
	DB	3
	DB	3
	DB	2
	DB	3
	DB	3
	DB	3
	DB	3
	DB	3
	DB	3
	DB	3
	DB	3
	DB	3
	DB	3
	DB	3
	DB	2
	DB	3
	DB	3
	DB	3
	DB	3
	DB	3
	DB	3
	DB	3
	DB	3
	DB	3
	DB	3
	DB	3
	DB	3
	DB	3
	DB	3
	DB	3
	DB	3
	DB	3
	DB	3
	DB	3
	DB	3
	DB	3
	DB	3
	DB	3
	DB	3
	DB	3
	DB	3
	DB	3
	DB	3
	DB	3
	DB	3
	DB	3
	DB	3
	DB	3
	DB	3
	DB	3
	DB	3
	DB	3
	DB	3
	DB	3
	DB	3
	DB	3
	DB	3
	DB	3
	DB	3
	DB	3
	DB	0
?LoadStringW@?$CStringT@_WV?$StrTraitMFC@_WV?$ChTraitsCRT@_W@ATL@@@@@ATL@@QAEHI@Z ENDP ; ATL::CStringT<wchar_t,StrTraitMFC<wchar_t,ATL::ChTraitsCRT<wchar_t> > >::LoadStringW
_TEXT	ENDS
; Function compile flags: /Ogtp
; File C:\Program Files (x86)\Microsoft Visual Studio\2019\Enterprise\VC\Tools\MSVC\14.23.28105\atlmfc\include\afxwin2.inl
;	COMDAT ?DragAcceptFiles@CWnd@@QAEXH@Z
_TEXT	SEGMENT
_bAccept$dead$ = 8					; size = 4
?DragAcceptFiles@CWnd@@QAEXH@Z PROC			; CWnd::DragAcceptFiles, COMDAT
; _this$ = ecx

; 48   : 	{ ASSERT(::IsWindow(m_hWnd)); ::DragAcceptFiles(m_hWnd, bAccept); }

	push	1
	push	DWORD PTR [ecx+32]
	call	DWORD PTR __imp__DragAcceptFiles@8
	ret	4
?DragAcceptFiles@CWnd@@QAEXH@Z ENDP			; CWnd::DragAcceptFiles
_TEXT	ENDS
; Function compile flags: /Ogtp
; File C:\Program Files (x86)\Microsoft Visual Studio\2019\Enterprise\VC\Tools\MSVC\14.23.28105\atlmfc\include\afxwin2.inl
;	COMDAT ?SetIcon@CWnd@@QAEPAUHICON__@@PAU2@H@Z
_TEXT	SEGMENT
_hIcon$ = 8						; size = 4
_bBigIcon$ = 12						; size = 4
?SetIcon@CWnd@@QAEPAUHICON__@@PAU2@H@Z PROC		; CWnd::SetIcon, COMDAT
; _this$ = ecx

; 262  : 	{ ASSERT(::IsWindow(m_hWnd)); return (HICON)::SendMessage(m_hWnd, WM_SETICON, bBigIcon, (LPARAM)hIcon); }

	push	ebp
	mov	ebp, esp
	push	DWORD PTR _hIcon$[ebp]
	push	DWORD PTR _bBigIcon$[ebp]
	push	128					; 00000080H
	push	DWORD PTR [ecx+32]
	call	DWORD PTR __imp__SendMessageW@16
	pop	ebp
	ret	8
?SetIcon@CWnd@@QAEPAUHICON__@@PAU2@H@Z ENDP		; CWnd::SetIcon
_TEXT	ENDS
; Function compile flags: /Ogtp
; File C:\Program Files (x86)\Microsoft Visual Studio\2019\Enterprise\VC\Tools\MSVC\14.23.28105\atlmfc\include\afxwin2.inl
;	COMDAT ?DoDataExchange@CWnd@@MAEXPAVCDataExchange@@@Z
_TEXT	SEGMENT
___formal$ = 8						; size = 4
?DoDataExchange@CWnd@@MAEXPAVCDataExchange@@@Z PROC	; CWnd::DoDataExchange, COMDAT
; _this$ = ecx

; 561  : 	{ } // default does nothing

	ret	4
?DoDataExchange@CWnd@@MAEXPAVCDataExchange@@@Z ENDP	; CWnd::DoDataExchange
_TEXT	ENDS
; Function compile flags: /Ogtp
; File C:\Program Files (x86)\Microsoft Visual Studio\2019\Enterprise\VC\Tools\MSVC\14.23.28105\atlmfc\include\afxwin1.inl
;	COMDAT ?AfxGetApp@@YGPAVCWinApp@@XZ
_TEXT	SEGMENT
?AfxGetApp@@YGPAVCWinApp@@XZ PROC			; AfxGetApp, COMDAT

; 19   : 	{ return afxCurrentWinApp; }

	call	?AfxGetModuleState@@YGPAVAFX_MODULE_STATE@@XZ ; AfxGetModuleState
	mov	eax, DWORD PTR [eax+4]
	ret	0
?AfxGetApp@@YGPAVCWinApp@@XZ ENDP			; AfxGetApp
_TEXT	ENDS
; Function compile flags: /Ogtp
; File C:\Program Files (x86)\Microsoft Visual Studio\2019\Enterprise\VC\Tools\MSVC\14.23.28105\atlmfc\include\afxwin1.inl
;	COMDAT ?AfxGetResourceHandle@@YGPAUHINSTANCE__@@XZ
_TEXT	SEGMENT
?AfxGetResourceHandle@@YGPAUHINSTANCE__@@XZ PROC	; AfxGetResourceHandle, COMDAT

; 25   : 		return afxCurrentResourceHandle; }

	call	?AfxGetModuleState@@YGPAVAFX_MODULE_STATE@@XZ ; AfxGetModuleState
	mov	eax, DWORD PTR [eax+12]
	ret	0
?AfxGetResourceHandle@@YGPAUHINSTANCE__@@XZ ENDP	; AfxGetResourceHandle
_TEXT	ENDS
; Function compile flags: /Ogtp
; File C:\Program Files (x86)\Microsoft Visual Studio\2019\Enterprise\VC\Tools\MSVC\14.23.28105\atlmfc\include\afxwin2.inl
; File C:\Program Files (x86)\Microsoft Visual Studio\2019\Enterprise\VC\Tools\MSVC\14.23.28105\atlmfc\include\afxwin1.inl
; File C:\Program Files (x86)\Microsoft Visual Studio\2019\Enterprise\VC\Tools\MSVC\14.23.28105\atlmfc\include\afxwin2.inl
;	COMDAT ?LoadIconW@CWinApp@@QBEPAUHICON__@@I@Z
_TEXT	SEGMENT
_nIDResource$ = 8					; size = 4
?LoadIconW@CWinApp@@QBEPAUHICON__@@I@Z PROC		; CWinApp::LoadIconW, COMDAT
; _this$ = ecx

; 1054 : 	{ return ::LoadIconW(AfxFindResourceHandle(ATL_MAKEINTRESOURCE(nIDResource),

	push	ebp
	mov	ebp, esp
; File C:\Program Files (x86)\Microsoft Visual Studio\2019\Enterprise\VC\Tools\MSVC\14.23.28105\atlmfc\include\afxwin1.inl

; 25   : 		return afxCurrentResourceHandle; }

	call	?AfxGetModuleState@@YGPAVAFX_MODULE_STATE@@XZ ; AfxGetModuleState
	mov	ecx, DWORD PTR [eax+12]
; File C:\Program Files (x86)\Microsoft Visual Studio\2019\Enterprise\VC\Tools\MSVC\14.23.28105\atlmfc\include\afxwin2.inl

; 1054 : 	{ return ::LoadIconW(AfxFindResourceHandle(ATL_MAKEINTRESOURCE(nIDResource),

	movzx	eax, WORD PTR _nIDResource$[ebp]
	push	eax
	push	ecx
	call	DWORD PTR __imp__LoadIconW@8

; 1055 : 		ATL_RT_GROUP_ICON), ATL_MAKEINTRESOURCEW(nIDResource)); }

	pop	ebp
	ret	4
?LoadIconW@CWinApp@@QBEPAUHICON__@@I@Z ENDP		; CWinApp::LoadIconW
_TEXT	ENDS
END
