; Listing generated by Microsoft (R) Optimizing Compiler Version 19.29.30133.0 

	TITLE	j:\work\aes\aes\aes\release\ajustfilename.obj
	.686P
	.XMM
	include listing.inc
	.model	flat

INCLUDELIB OLDNAMES

PUBLIC	??_C@_02DKCKIIND@?$CFs@				; `string'
PUBLIC	??_C@_1O@KODPLLAD@?$AA?$CF?$AAs?$AA?$CK?$AA?4?$AA?$CF?$AAs@ ; `string'
PUBLIC	??_C@_19GJNGALLN@?$AA?$CI?$AA1?$AA?$CJ?$AA?4@	; `string'
PUBLIC	??_C@_1BC@NHBIDBIC@?$AA?$CF?$AAs?$AA?$CI?$AA1?$AA?$CJ?$AA?4?$AA?$CF?$AAs@ ; `string'
PUBLIC	??_C@_1BC@LJIHGCAI@?$AA?$CF?$AAs?$AA?$CI?$AA?$CF?$AAd?$AA?$CJ?$AA?$CF?$AAs@ ; `string'
EXTRN	_wcschr:PROC
EXTRN	_wcsrchr:PROC
EXTRN	__wtoi:PROC
EXTRN	?SetAtGrow@CStringArray@@QAEXHABV?$CStringT@_WV?$StrTraitMFC@_WV?$ChTraitsCRT@_W@ATL@@@@@ATL@@@Z:PROC ; CStringArray::SetAtGrow
EXTRN	?GetFilePath@CFileFind@@UBE?AV?$CStringT@_WV?$StrTraitMFC@_WV?$ChTraitsCRT@_W@ATL@@@@@ATL@@XZ:PROC ; CFileFind::GetFilePath
EXTRN	?FindNextFileW@CFileFind@@UAEHXZ:PROC		; CFileFind::FindNextFileW
EXTRN	?FindFile@CFileFind@@UAEHPB_WK@Z:PROC		; CFileFind::FindFile
EXTRN	??1CFileFind@@UAE@XZ:PROC			; CFileFind::~CFileFind
EXTRN	??0CFileFind@@QAE@XZ:PROC			; CFileFind::CFileFind
EXTRN	??_V@YAXPAX@Z:PROC				; operator delete[]
EXTRN	___stdio_common_vsprintf:PROC
EXTRN	_wcstombs_s:PROC
EXTRN	??_U@YAPAXI@Z:PROC				; operator new[]
EXTRN	__imp__MultiByteToWideChar@24:PROC
EXTRN	_qsort:PROC
EXTRN	?Close@CFile@@UAEXXZ:PROC			; CFile::Close
EXTRN	?Open@CFile@@UAEHPB_WIPAVCFileException@@@Z:PROC ; CFile::Open
EXTRN	??1CFile@@UAE@XZ:PROC				; CFile::~CFile
EXTRN	??0CFile@@QAE@XZ:PROC				; CFile::CFile
EXTRN	?SetSize@CStringArray@@QAEXHH@Z:PROC		; CStringArray::SetSize
EXTRN	??1CStringArray@@UAE@XZ:PROC			; CStringArray::~CStringArray
EXTRN	??0CStringArray@@QAE@XZ:PROC			; CStringArray::CStringArray
;	COMDAT ??_C@_1BC@LJIHGCAI@?$AA?$CF?$AAs?$AA?$CI?$AA?$CF?$AAd?$AA?$CJ?$AA?$CF?$AAs@
CONST	SEGMENT
??_C@_1BC@LJIHGCAI@?$AA?$CF?$AAs?$AA?$CI?$AA?$CF?$AAd?$AA?$CJ?$AA?$CF?$AAs@ DB '%'
	DB	00H, 's', 00H, '(', 00H, '%', 00H, 'd', 00H, ')', 00H, '%', 00H
	DB	's', 00H, 00H, 00H				; `string'
CONST	ENDS
;	COMDAT ??_C@_1BC@NHBIDBIC@?$AA?$CF?$AAs?$AA?$CI?$AA1?$AA?$CJ?$AA?4?$AA?$CF?$AAs@
CONST	SEGMENT
??_C@_1BC@NHBIDBIC@?$AA?$CF?$AAs?$AA?$CI?$AA1?$AA?$CJ?$AA?4?$AA?$CF?$AAs@ DB '%'
	DB	00H, 's', 00H, '(', 00H, '1', 00H, ')', 00H, '.', 00H, '%', 00H
	DB	's', 00H, 00H, 00H				; `string'
CONST	ENDS
;	COMDAT ??_C@_19GJNGALLN@?$AA?$CI?$AA1?$AA?$CJ?$AA?4@
CONST	SEGMENT
??_C@_19GJNGALLN@?$AA?$CI?$AA1?$AA?$CJ?$AA?4@ DB '(', 00H, '1', 00H, ')', 00H
	DB	'.', 00H, 00H, 00H				; `string'
CONST	ENDS
;	COMDAT ??_C@_1O@KODPLLAD@?$AA?$CF?$AAs?$AA?$CK?$AA?4?$AA?$CF?$AAs@
CONST	SEGMENT
??_C@_1O@KODPLLAD@?$AA?$CF?$AAs?$AA?$CK?$AA?4?$AA?$CF?$AAs@ DB '%', 00H, 's'
	DB	00H, '*', 00H, '.', 00H, '%', 00H, 's', 00H, 00H, 00H ; `string'
CONST	ENDS
;	COMDAT ??_C@_02DKCKIIND@?$CFs@
CONST	SEGMENT
??_C@_02DKCKIIND@?$CFs@ DB '%s', 00H			; `string'
PUBLIC	?RemoveAll@CStringArray@@QAEXXZ			; CStringArray::RemoveAll
PUBLIC	?Compare@?$CStringT@_WV?$StrTraitMFC@_WV?$ChTraitsCRT@_W@ATL@@@@@ATL@@QBEHPB_W@Z ; ATL::CStringT<wchar_t,StrTraitMFC<wchar_t,ATL::ChTraitsCRT<wchar_t> > >::Compare
PUBLIC	?StringCompare@?$ChTraitsCRT@_W@ATL@@SAHPB_W0@Z	; ATL::ChTraitsCRT<wchar_t>::StringCompare
PUBLIC	?AtlIsValidString@ATL@@YAHPB_WI@Z		; ATL::AtlIsValidString
PUBLIC	?GetSize@CStringArray@@QBEHXZ			; CStringArray::GetSize
PUBLIC	??ACStringArray@@QAEAAV?$CStringT@_WV?$StrTraitMFC@_WV?$ChTraitsCRT@_W@ATL@@@@@ATL@@H@Z ; CStringArray::operator[]
PUBLIC	?ElementAt@CStringArray@@QAEAAV?$CStringT@_WV?$StrTraitMFC@_WV?$ChTraitsCRT@_W@ATL@@@@@ATL@@H@Z ; CStringArray::ElementAt
PUBLIC	??0?$CStringT@_WV?$StrTraitMFC@_WV?$ChTraitsCRT@_W@ATL@@@@@ATL@@QAE@PBD@Z ; ATL::CStringT<wchar_t,StrTraitMFC<wchar_t,ATL::ChTraitsCRT<wchar_t> > >::CStringT<wchar_t,StrTraitMFC<wchar_t,ATL::ChTraitsCRT<wchar_t> > >
PUBLIC	??4?$CStringT@_WV?$StrTraitMFC@_WV?$ChTraitsCRT@_W@ATL@@@@@ATL@@QAEAAV01@PBD@Z ; ATL::CStringT<wchar_t,StrTraitMFC<wchar_t,ATL::ChTraitsCRT<wchar_t> > >::operator=
PUBLIC	?ConvertToBaseType@?$ChTraitsCRT@_W@ATL@@SAXPA_WHPBDH@Z ; ATL::ChTraitsCRT<wchar_t>::ConvertToBaseType
PUBLIC	?_AtlGetConversionACP@ATL@@YGIXZ		; ATL::_AtlGetConversionACP
PUBLIC	?GetBaseTypeLength@?$ChTraitsCRT@_W@ATL@@SAHPBD@Z ; ATL::ChTraitsCRT<wchar_t>::GetBaseTypeLength
PUBLIC	??4?$CStringT@_WV?$StrTraitMFC@_WV?$ChTraitsCRT@_W@ATL@@@@@ATL@@QAEAAV01@ABV01@@Z ; ATL::CStringT<wchar_t,StrTraitMFC<wchar_t,ATL::ChTraitsCRT<wchar_t> > >::operator=
PUBLIC	??4?$CSimpleStringT@_W$0A@@ATL@@QAEAAV01@ABV01@@Z ; ATL::CSimpleStringT<wchar_t,0>::operator=
PUBLIC	?Add@CStringArray@@QAEHABV?$CStringT@_WV?$StrTraitMFC@_WV?$ChTraitsCRT@_W@ATL@@@@@ATL@@@Z ; CStringArray::Add
PUBLIC	??HATL@@YA?AV?$CStringT@_WV?$StrTraitMFC@_WV?$ChTraitsCRT@_W@ATL@@@@@0@ABV10@PB_W@Z ; ATL::operator+
PUBLIC	?Concatenate@?$CSimpleStringT@_W$0A@@ATL@@KAXAAV12@PB_WH1H@Z ; ATL::CSimpleStringT<wchar_t,0>::Concatenate
PUBLIC	??0?$CStringT@_WV?$StrTraitMFC@_WV?$ChTraitsCRT@_W@ATL@@@@@ATL@@QAE@PAUIAtlStringMgr@1@@Z ; ATL::CStringT<wchar_t,StrTraitMFC<wchar_t,ATL::ChTraitsCRT<wchar_t> > >::CStringT<wchar_t,StrTraitMFC<wchar_t,ATL::ChTraitsCRT<wchar_t> > >
PUBLIC	?GetAt@CStringArray@@QBEABV?$CStringT@_WV?$StrTraitMFC@_WV?$ChTraitsCRT@_W@ATL@@@@@ATL@@H@Z ; CStringArray::GetAt
PUBLIC	?Mid@?$CStringT@_WV?$StrTraitMFC@_WV?$ChTraitsCRT@_W@ATL@@@@@ATL@@QBE?AV12@HH@Z ; ATL::CStringT<wchar_t,StrTraitMFC<wchar_t,ATL::ChTraitsCRT<wchar_t> > >::Mid
PUBLIC	??0?$CStringT@_WV?$StrTraitMFC@_WV?$ChTraitsCRT@_W@ATL@@@@@ATL@@QAE@PB_WHPAUIAtlStringMgr@1@@Z ; ATL::CStringT<wchar_t,StrTraitMFC<wchar_t,ATL::ChTraitsCRT<wchar_t> > >::CStringT<wchar_t,StrTraitMFC<wchar_t,ATL::ChTraitsCRT<wchar_t> > >
PUBLIC	??0?$CSimpleStringT@_W$0A@@ATL@@QAE@PB_WHPAUIAtlStringMgr@1@@Z ; ATL::CSimpleStringT<wchar_t,0>::CSimpleStringT<wchar_t,0>
PUBLIC	??$AtlAddThrow@H@ATL@@YAHHH@Z			; ATL::AtlAddThrow<int>
PUBLIC	??$AtlAdd@H@ATL@@YAJPAHHH@Z			; ATL::AtlAdd<int>
PUBLIC	_HRESULT_FROM_WIN32
PUBLIC	?StringFindCharRev@?$ChTraitsCRT@_W@ATL@@SAPB_WPB_W_W@Z ; ATL::ChTraitsCRT<wchar_t>::StringFindCharRev
PUBLIC	?StringFindChar@?$ChTraitsCRT@_W@ATL@@SAPB_WPB_W_W@Z ; ATL::ChTraitsCRT<wchar_t>::StringFindChar
PUBLIC	?GetBuffer@?$CSimpleStringT@_W$0A@@ATL@@QAEPA_WXZ ; ATL::CSimpleStringT<wchar_t,0>::GetBuffer
PUBLIC	?Find@?$CStringT@_WV?$StrTraitMFC@_WV?$ChTraitsCRT@_W@ATL@@@@@ATL@@QBEH_WH@Z ; ATL::CStringT<wchar_t,StrTraitMFC<wchar_t,ATL::ChTraitsCRT<wchar_t> > >::Find
PUBLIC	?ReverseFind@?$CStringT@_WV?$StrTraitMFC@_WV?$ChTraitsCRT@_W@ATL@@@@@ATL@@QBEH_W@Z ; ATL::CStringT<wchar_t,StrTraitMFC<wchar_t,ATL::ChTraitsCRT<wchar_t> > >::ReverseFind
PUBLIC	?Right@?$CStringT@_WV?$StrTraitMFC@_WV?$ChTraitsCRT@_W@ATL@@@@@ATL@@QBE?AV12@H@Z ; ATL::CStringT<wchar_t,StrTraitMFC<wchar_t,ATL::ChTraitsCRT<wchar_t> > >::Right
PUBLIC	?Left@?$CStringT@_WV?$StrTraitMFC@_WV?$ChTraitsCRT@_W@ATL@@@@@ATL@@QBE?AV12@H@Z ; ATL::CStringT<wchar_t,StrTraitMFC<wchar_t,ATL::ChTraitsCRT<wchar_t> > >::Left
PUBLIC	??HATL@@YA?AV?$CStringT@_WV?$StrTraitMFC@_WV?$ChTraitsCRT@_W@ATL@@@@@0@ABV10@0@Z ; ATL::operator+
PUBLIC	??9ATL@@YA_NABV?$CStringT@_WV?$StrTraitMFC@_WV?$ChTraitsCRT@_W@ATL@@@@@0@0@Z ; ATL::operator!=
PUBLIC	?BuildName@AjustFileName@@AAE?AV?$CStringT@_WV?$StrTraitMFC@_WV?$ChTraitsCRT@_W@ATL@@@@@ATL@@V23@@Z ; AjustFileName::BuildName
PUBLIC	?__autoclassinit2@CFileFind@@QAEXI@Z		; CFileFind::__autoclassinit2
PUBLIC	?Do@AjustFileName@@QAE?AV?$CStringT@_WV?$StrTraitMFC@_WV?$ChTraitsCRT@_W@ATL@@@@@ATL@@V23@@Z ; AjustFileName::Do
PUBLIC	?SortStringArray@AjustFileName@@AAEXAAVCStringArray@@H@Z ; AjustFileName::SortStringArray
PUBLIC	?CompareDescending@@YAHPBX0@Z			; CompareDescending
PUBLIC	?CompareAscending@@YAHPBX0@Z			; CompareAscending
PUBLIC	?__autoclassinit2@CFile@@QAEXI@Z		; CFile::__autoclassinit2
PUBLIC	?FileExist@AjustFileName@@AAEHV?$CStringT@_WV?$StrTraitMFC@_WV?$ChTraitsCRT@_W@ATL@@@@@ATL@@@Z ; AjustFileName::FileExist
PUBLIC	?Get_Extension@AjustFileName@@AAE?AV?$CStringT@_WV?$StrTraitMFC@_WV?$ChTraitsCRT@_W@ATL@@@@@ATL@@V23@@Z ; AjustFileName::Get_Extension
PUBLIC	?Supprime_Extension@AjustFileName@@AAE?AV?$CStringT@_WV?$StrTraitMFC@_WV?$ChTraitsCRT@_W@ATL@@@@@ATL@@V23@@Z ; AjustFileName::Supprime_Extension
PUBLIC	??1AjustFileName@@QAE@XZ			; AjustFileName::~AjustFileName
PUBLIC	??0AjustFileName@@QAE@XZ			; AjustFileName::AjustFileName
PUBLIC	?__autoclassinit2@CStringArray@@QAEXI@Z		; CStringArray::__autoclassinit2
PUBLIC	?List@@3VCStringArray@@A			; List
?List@@3VCStringArray@@A DB 014H DUP (?)		; List
_BSS	ENDS
;	COMDAT xdata$x
xdata$x	SEGMENT
__unwindtable$?Supprime_Extension@AjustFileName@@AAE?AV?$CStringT@_WV?$StrTraitMFC@_WV?$ChTraitsCRT@_W@ATL@@@@@ATL@@V23@@Z DD 0ffffffffH
	DD	FLAT:__unwindfunclet$?Supprime_Extension@AjustFileName@@AAE?AV?$CStringT@_WV?$StrTraitMFC@_WV?$ChTraitsCRT@_W@ATL@@@@@ATL@@V23@@Z$0
__ehfuncinfo$?Supprime_Extension@AjustFileName@@AAE?AV?$CStringT@_WV?$StrTraitMFC@_WV?$ChTraitsCRT@_W@ATL@@@@@ATL@@V23@@Z DQ 00000000119930522r ; 2.33398e-314
	DD	FLAT:__unwindtable$?Supprime_Extension@AjustFileName@@AAE?AV?$CStringT@_WV?$StrTraitMFC@_WV?$ChTraitsCRT@_W@ATL@@@@@ATL@@V23@@Z
	DQ	00000000000000000r		; 0
	DQ	00000000000000000r		; 0
	DQ	00000000100000000r		; 2.122e-314
xdata$x	ENDS
;	COMDAT xdata$x
xdata$x	SEGMENT
__unwindtable$?Get_Extension@AjustFileName@@AAE?AV?$CStringT@_WV?$StrTraitMFC@_WV?$ChTraitsCRT@_W@ATL@@@@@ATL@@V23@@Z DD 0ffffffffH
	DD	FLAT:__unwindfunclet$?Get_Extension@AjustFileName@@AAE?AV?$CStringT@_WV?$StrTraitMFC@_WV?$ChTraitsCRT@_W@ATL@@@@@ATL@@V23@@Z$0
__ehfuncinfo$?Get_Extension@AjustFileName@@AAE?AV?$CStringT@_WV?$StrTraitMFC@_WV?$ChTraitsCRT@_W@ATL@@@@@ATL@@V23@@Z DQ 00000000119930522r ; 2.33398e-314
	DD	FLAT:__unwindtable$?Get_Extension@AjustFileName@@AAE?AV?$CStringT@_WV?$StrTraitMFC@_WV?$ChTraitsCRT@_W@ATL@@@@@ATL@@V23@@Z
	DQ	00000000000000000r		; 0
	DQ	00000000000000000r		; 0
	DQ	00000000100000000r		; 2.122e-314
xdata$x	ENDS
;	COMDAT xdata$x
xdata$x	SEGMENT
__unwindtable$?FileExist@AjustFileName@@AAEHV?$CStringT@_WV?$StrTraitMFC@_WV?$ChTraitsCRT@_W@ATL@@@@@ATL@@@Z DD 0ffffffffH
	DD	FLAT:__unwindfunclet$?FileExist@AjustFileName@@AAEHV?$CStringT@_WV?$StrTraitMFC@_WV?$ChTraitsCRT@_W@ATL@@@@@ATL@@@Z$0
	DD	00H
	DD	FLAT:__unwindfunclet$?FileExist@AjustFileName@@AAEHV?$CStringT@_WV?$StrTraitMFC@_WV?$ChTraitsCRT@_W@ATL@@@@@ATL@@@Z$1
__ehfuncinfo$?FileExist@AjustFileName@@AAEHV?$CStringT@_WV?$StrTraitMFC@_WV?$ChTraitsCRT@_W@ATL@@@@@ATL@@@Z DQ 00000000219930522r ; 4.45598e-314
	DD	FLAT:__unwindtable$?FileExist@AjustFileName@@AAEHV?$CStringT@_WV?$StrTraitMFC@_WV?$ChTraitsCRT@_W@ATL@@@@@ATL@@@Z
	DQ	00000000000000000r		; 0
	DQ	00000000000000000r		; 0
	DQ	00000000100000000r		; 2.122e-314
xdata$x	ENDS
;	COMDAT xdata$x
xdata$x	SEGMENT
__ehfuncinfo$?Do@AjustFileName@@QAE?AV?$CStringT@_WV?$StrTraitMFC@_WV?$ChTraitsCRT@_W@ATL@@@@@ATL@@V23@@Z DQ 00000000919930522r ; 1.93099e-313
	DD	FLAT:__unwindtable$?Do@AjustFileName@@QAE?AV?$CStringT@_WV?$StrTraitMFC@_WV?$ChTraitsCRT@_W@ATL@@@@@ATL@@V23@@Z
	DQ	00000000000000000r		; 0
	DQ	00000000000000000r		; 0
	DQ	00000000100000000r		; 2.122e-314
__unwindtable$?Do@AjustFileName@@QAE?AV?$CStringT@_WV?$StrTraitMFC@_WV?$ChTraitsCRT@_W@ATL@@@@@ATL@@V23@@Z DD 0ffffffffH
	DD	FLAT:__unwindfunclet$?Do@AjustFileName@@QAE?AV?$CStringT@_WV?$StrTraitMFC@_WV?$ChTraitsCRT@_W@ATL@@@@@ATL@@V23@@Z$0
	DD	00H
	DD	FLAT:__unwindfunclet$?Do@AjustFileName@@QAE?AV?$CStringT@_WV?$StrTraitMFC@_WV?$ChTraitsCRT@_W@ATL@@@@@ATL@@V23@@Z$1
	DD	01H
	DD	FLAT:__unwindfunclet$?Do@AjustFileName@@QAE?AV?$CStringT@_WV?$StrTraitMFC@_WV?$ChTraitsCRT@_W@ATL@@@@@ATL@@V23@@Z$2
	DD	02H
	DD	FLAT:__unwindfunclet$?Do@AjustFileName@@QAE?AV?$CStringT@_WV?$StrTraitMFC@_WV?$ChTraitsCRT@_W@ATL@@@@@ATL@@V23@@Z$4
	DD	03H
	DD	FLAT:__unwindfunclet$?Do@AjustFileName@@QAE?AV?$CStringT@_WV?$StrTraitMFC@_WV?$ChTraitsCRT@_W@ATL@@@@@ATL@@V23@@Z$6
	DD	04H
	DD	FLAT:__unwindfunclet$?Do@AjustFileName@@QAE?AV?$CStringT@_WV?$StrTraitMFC@_WV?$ChTraitsCRT@_W@ATL@@@@@ATL@@V23@@Z$20
	DD	05H
	DD	FLAT:__unwindfunclet$?Do@AjustFileName@@QAE?AV?$CStringT@_WV?$StrTraitMFC@_WV?$ChTraitsCRT@_W@ATL@@@@@ATL@@V23@@Z$21
	DD	04H
	DD	FLAT:__unwindfunclet$?Do@AjustFileName@@QAE?AV?$CStringT@_WV?$StrTraitMFC@_WV?$ChTraitsCRT@_W@ATL@@@@@ATL@@V23@@Z$8
	DD	04H
	DD	FLAT:__unwindfunclet$?Do@AjustFileName@@QAE?AV?$CStringT@_WV?$StrTraitMFC@_WV?$ChTraitsCRT@_W@ATL@@@@@ATL@@V23@@Z$9
xdata$x	ENDS
;	COMDAT xdata$x
xdata$x	SEGMENT
__ehfuncinfo$?BuildName@AjustFileName@@AAE?AV?$CStringT@_WV?$StrTraitMFC@_WV?$ChTraitsCRT@_W@ATL@@@@@ATL@@V23@@Z DQ 00000000519930522r ; 1.0822e-313
	DD	FLAT:__unwindtable$?BuildName@AjustFileName@@AAE?AV?$CStringT@_WV?$StrTraitMFC@_WV?$ChTraitsCRT@_W@ATL@@@@@ATL@@V23@@Z
	DQ	00000000000000000r		; 0
	DQ	00000000000000000r		; 0
	DQ	00000000100000000r		; 2.122e-314
__unwindtable$?BuildName@AjustFileName@@AAE?AV?$CStringT@_WV?$StrTraitMFC@_WV?$ChTraitsCRT@_W@ATL@@@@@ATL@@V23@@Z DD 0ffffffffH
	DD	FLAT:__unwindfunclet$?BuildName@AjustFileName@@AAE?AV?$CStringT@_WV?$StrTraitMFC@_WV?$ChTraitsCRT@_W@ATL@@@@@ATL@@V23@@Z$1
	DD	00H
	DD	FLAT:__unwindfunclet$?BuildName@AjustFileName@@AAE?AV?$CStringT@_WV?$StrTraitMFC@_WV?$ChTraitsCRT@_W@ATL@@@@@ATL@@V23@@Z$0
	DD	01H
	DD	FLAT:__unwindfunclet$?BuildName@AjustFileName@@AAE?AV?$CStringT@_WV?$StrTraitMFC@_WV?$ChTraitsCRT@_W@ATL@@@@@ATL@@V23@@Z$2
	DD	02H
	DD	FLAT:__unwindfunclet$?BuildName@AjustFileName@@AAE?AV?$CStringT@_WV?$StrTraitMFC@_WV?$ChTraitsCRT@_W@ATL@@@@@ATL@@V23@@Z$3
	DD	03H
	DD	FLAT:__unwindfunclet$?BuildName@AjustFileName@@AAE?AV?$CStringT@_WV?$StrTraitMFC@_WV?$ChTraitsCRT@_W@ATL@@@@@ATL@@V23@@Z$4
xdata$x	ENDS
;	COMDAT xdata$x
xdata$x	SEGMENT
__unwindtable$??HATL@@YA?AV?$CStringT@_WV?$StrTraitMFC@_WV?$ChTraitsCRT@_W@ATL@@@@@0@ABV10@0@Z DD 0ffffffffH
	DD	FLAT:__unwindfunclet$??HATL@@YA?AV?$CStringT@_WV?$StrTraitMFC@_WV?$ChTraitsCRT@_W@ATL@@@@@0@ABV10@0@Z$0
__ehfuncinfo$??HATL@@YA?AV?$CStringT@_WV?$StrTraitMFC@_WV?$ChTraitsCRT@_W@ATL@@@@@0@ABV10@0@Z DQ 00000000119930522r ; 2.33398e-314
	DD	FLAT:__unwindtable$??HATL@@YA?AV?$CStringT@_WV?$StrTraitMFC@_WV?$ChTraitsCRT@_W@ATL@@@@@0@ABV10@0@Z
	DQ	00000000000000000r		; 0
	DQ	00000000000000000r		; 0
	DQ	00000000100000000r		; 2.122e-314
xdata$x	ENDS
;	COMDAT xdata$x
xdata$x	SEGMENT
__unwindtable$??HATL@@YA?AV?$CStringT@_WV?$StrTraitMFC@_WV?$ChTraitsCRT@_W@ATL@@@@@0@ABV10@PB_W@Z DD 0ffffffffH
	DD	FLAT:__unwindfunclet$??HATL@@YA?AV?$CStringT@_WV?$StrTraitMFC@_WV?$ChTraitsCRT@_W@ATL@@@@@0@ABV10@PB_W@Z$0
__ehfuncinfo$??HATL@@YA?AV?$CStringT@_WV?$StrTraitMFC@_WV?$ChTraitsCRT@_W@ATL@@@@@0@ABV10@PB_W@Z DQ 00000000119930522r ; 2.33398e-314
	DD	FLAT:__unwindtable$??HATL@@YA?AV?$CStringT@_WV?$StrTraitMFC@_WV?$ChTraitsCRT@_W@ATL@@@@@0@ABV10@PB_W@Z
	DQ	00000000000000000r		; 0
	DQ	00000000000000000r		; 0
	DQ	00000000100000000r		; 2.122e-314
xdata$x	ENDS
;	COMDAT xdata$x
xdata$x	SEGMENT
__unwindtable$??0?$CStringT@_WV?$StrTraitMFC@_WV?$ChTraitsCRT@_W@ATL@@@@@ATL@@QAE@PBD@Z DD 0ffffffffH
	DD	FLAT:__unwindfunclet$??0?$CStringT@_WV?$StrTraitMFC@_WV?$ChTraitsCRT@_W@ATL@@@@@ATL@@QAE@PBD@Z$0
__ehfuncinfo$??0?$CStringT@_WV?$StrTraitMFC@_WV?$ChTraitsCRT@_W@ATL@@@@@ATL@@QAE@PBD@Z DQ 00000000119930522r ; 2.33398e-314
	DD	FLAT:__unwindtable$??0?$CStringT@_WV?$StrTraitMFC@_WV?$ChTraitsCRT@_W@ATL@@@@@ATL@@QAE@PBD@Z
	DQ	00000000000000000r		; 0
	DQ	00000000000000000r		; 0
	DQ	00000000100000000r		; 2.122e-314
?List$initializer$@@3P6AXXZA DD FLAT:??__EList@@YAXXZ	; List$initializer$
END
