; Listing generated by Microsoft (R) Optimizing Compiler Version 19.23.28106.4 

	TITLE	i:\projets\aes\aes\aes\analyse_back_groung.cpp
	.686P
	.XMM
	include listing.inc
	.model	flat

INCLUDELIB OLDNAMES

EXTRN	?SetAtGrow@CStringArray@@QAEXHPB_W@Z:PROC	; CStringArray::SetAtGrow
PUBLIC	?Add@CStringArray@@QAEHPB_W@Z			; CStringArray::Add
PUBLIC	??_GAjustFileName@@QAEPAXI@Z			; AjustFileName::`scalar deleting destructor'
PUBLIC	??_GC_Password@@QAEPAXI@Z			; C_Password::`scalar deleting destructor'
PUBLIC	??_GC_AES_Decode@@QAEPAXI@Z			; C_AES_Decode::`scalar deleting destructor'
PUBLIC	??_GC_AES_Encode@@QAEPAXI@Z			; C_AES_Encode::`scalar deleting destructor'
PUBLIC	??_GManipulation_Fichier@@QAEPAXI@Z		; Manipulation_Fichier::`scalar deleting destructor'
PUBLIC	?__autoclassinit2@C_AES_Decode@@QAEXI@Z		; C_AES_Decode::__autoclassinit2
PUBLIC	?__autoclassinit2@C_AES_Encode@@QAEXI@Z		; C_AES_Encode::__autoclassinit2
PUBLIC	?Traitement_fichier@Analyse_back_groung@@QAE_NV?$CStringT@_WV?$StrTraitMFC@_WV?$ChTraitsCRT@_W@ATL@@@@@ATL@@@Z ; Analyse_back_groung::Traitement_fichier
PUBLIC	??0Analyse_back_groung@@QAE@XZ			; Analyse_back_groung::Analyse_back_groung
PUBLIC	?Run@Analyse_back_groung@@QAEHPAPA_WH@Z		; Analyse_back_groung::Run
PUBLIC	??1Analyse_back_groung@@QAE@XZ			; Analyse_back_groung::~Analyse_back_groung
;	COMDAT xdata$x
xdata$x	SEGMENT
__ehfuncinfo$??1Analyse_back_groung@@QAE@XZ DD 019930522H
	DD	00H
	DD	00H
	DD	2 DUP(00H)
	DD	2 DUP(00H)
	DD	00H
	DD	05H
xdata$x	ENDS
;	COMDAT xdata$x
xdata$x	SEGMENT
__unwindtable$??0Analyse_back_groung@@QAE@XZ DD 0ffffffffH
	DD	FLAT:__unwindfunclet$??0Analyse_back_groung@@QAE@XZ$0
	DD	00H
	DD	FLAT:__unwindfunclet$??0Analyse_back_groung@@QAE@XZ$1
	DD	01H
	DD	FLAT:__unwindfunclet$??0Analyse_back_groung@@QAE@XZ$3
	DD	01H
	DD	FLAT:__unwindfunclet$??0Analyse_back_groung@@QAE@XZ$4
__ehfuncinfo$??0Analyse_back_groung@@QAE@XZ DD 019930522H
	DD	04H
	DD	FLAT:__unwindtable$??0Analyse_back_groung@@QAE@XZ
	DD	2 DUP(00H)
	DD	2 DUP(00H)
	DD	00H
	DD	01H
xdata$x	ENDS
;	COMDAT xdata$x
xdata$x	SEGMENT
__ehfuncinfo$?Traitement_fichier@Analyse_back_groung@@QAE_NV?$CStringT@_WV?$StrTraitMFC@_WV?$ChTraitsCRT@_W@ATL@@@@@ATL@@@Z DD 019930522H
	DD	0dH
	DD	FLAT:__unwindtable$?Traitement_fichier@Analyse_back_groung@@QAE_NV?$CStringT@_WV?$StrTraitMFC@_WV?$ChTraitsCRT@_W@ATL@@@@@ATL@@@Z
	DD	2 DUP(00H)
	DD	2 DUP(00H)
	DD	00H
	DD	01H
__unwindtable$?Traitement_fichier@Analyse_back_groung@@QAE_NV?$CStringT@_WV?$StrTraitMFC@_WV?$ChTraitsCRT@_W@ATL@@@@@ATL@@@Z DD 0ffffffffH
	DD	FLAT:__unwindfunclet$?Traitement_fichier@Analyse_back_groung@@QAE_NV?$CStringT@_WV?$StrTraitMFC@_WV?$ChTraitsCRT@_W@ATL@@@@@ATL@@@Z$0
	DD	00H
	DD	FLAT:__unwindfunclet$?Traitement_fichier@Analyse_back_groung@@QAE_NV?$CStringT@_WV?$StrTraitMFC@_WV?$ChTraitsCRT@_W@ATL@@@@@ATL@@@Z$1
	DD	00H
	DD	FLAT:__unwindfunclet$?Traitement_fichier@Analyse_back_groung@@QAE_NV?$CStringT@_WV?$StrTraitMFC@_WV?$ChTraitsCRT@_W@ATL@@@@@ATL@@@Z$3
	DD	00H
	DD	FLAT:__unwindfunclet$?Traitement_fichier@Analyse_back_groung@@QAE_NV?$CStringT@_WV?$StrTraitMFC@_WV?$ChTraitsCRT@_W@ATL@@@@@ATL@@@Z$4
	DD	03H
	DD	FLAT:__unwindfunclet$?Traitement_fichier@Analyse_back_groung@@QAE_NV?$CStringT@_WV?$StrTraitMFC@_WV?$ChTraitsCRT@_W@ATL@@@@@ATL@@@Z$5
	DD	03H
	DD	FLAT:__unwindfunclet$?Traitement_fichier@Analyse_back_groung@@QAE_NV?$CStringT@_WV?$StrTraitMFC@_WV?$ChTraitsCRT@_W@ATL@@@@@ATL@@@Z$8
	DD	05H
	DD	FLAT:__unwindfunclet$?Traitement_fichier@Analyse_back_groung@@QAE_NV?$CStringT@_WV?$StrTraitMFC@_WV?$ChTraitsCRT@_W@ATL@@@@@ATL@@@Z$10
	DD	06H
	DD	FLAT:__unwindfunclet$?Traitement_fichier@Analyse_back_groung@@QAE_NV?$CStringT@_WV?$StrTraitMFC@_WV?$ChTraitsCRT@_W@ATL@@@@@ATL@@@Z$12
	DD	00H
	DD	FLAT:__unwindfunclet$?Traitement_fichier@Analyse_back_groung@@QAE_NV?$CStringT@_WV?$StrTraitMFC@_WV?$ChTraitsCRT@_W@ATL@@@@@ATL@@@Z$13
	DD	00H
	DD	FLAT:__unwindfunclet$?Traitement_fichier@Analyse_back_groung@@QAE_NV?$CStringT@_WV?$StrTraitMFC@_WV?$ChTraitsCRT@_W@ATL@@@@@ATL@@@Z$14
	DD	00H
	DD	FLAT:__unwindfunclet$?Traitement_fichier@Analyse_back_groung@@QAE_NV?$CStringT@_WV?$StrTraitMFC@_WV?$ChTraitsCRT@_W@ATL@@@@@ATL@@@Z$17
	DD	0aH
	DD	FLAT:__unwindfunclet$?Traitement_fichier@Analyse_back_groung@@QAE_NV?$CStringT@_WV?$StrTraitMFC@_WV?$ChTraitsCRT@_W@ATL@@@@@ATL@@@Z$19
	DD	0bH
	DD	FLAT:__unwindfunclet$?Traitement_fichier@Analyse_back_groung@@QAE_NV?$CStringT@_WV?$StrTraitMFC@_WV?$ChTraitsCRT@_W@ATL@@@@@ATL@@@Z$21
xdata$x	ENDS
;	COMDAT xdata$x
xdata$x	SEGMENT
__ehfuncinfo$??_GC_AES_Encode@@QAEPAXI@Z DD 019930522H
	DD	00H
	DD	00H
	DD	2 DUP(00H)
	DD	2 DUP(00H)
	DD	00H
	DD	05H
xdata$x	ENDS
;	COMDAT xdata$x
xdata$x	SEGMENT
__ehfuncinfo$??_GC_AES_Decode@@QAEPAXI@Z DD 019930522H
	DD	00H
	DD	00H
	DD	2 DUP(00H)
	DD	2 DUP(00H)
	DD	00H
	DD	05H
; Function compile flags: /Ogtp
; File I:\Projets\AES\AES\AES\Analyse_back_groung.cpp
; File I:\Projets\AES\AES\AES\C_AES_Encode.cpp
; File C:\Program Files (x86)\Microsoft Visual Studio\2019\Enterprise\VC\Tools\MSVC\14.23.28105\atlmfc\include\atlsimpstr.h
; File I:\Projets\AES\AES\AES\Analyse_back_groung.cpp
; File I:\Projets\AES\AES\AES\C_AES_Decode.cpp
; File C:\Program Files (x86)\Microsoft Visual Studio\2019\Enterprise\VC\Tools\MSVC\14.23.28105\atlmfc\include\atlsimpstr.h
; File I:\Projets\AES\AES\AES\Analyse_back_groung.cpp
; File C:\Program Files (x86)\Microsoft Visual Studio\2019\Enterprise\VC\Tools\MSVC\14.23.28105\atlmfc\include\atlsimpstr.h
; File I:\Projets\AES\AES\AES\Analyse_back_groung.cpp
;	COMDAT ??1Analyse_back_groung@@QAE@XZ
_TEXT	SEGMENT
$T14 = -16						; size = 4
$T15 = -16						; size = 4
__$EHRec$ = -12						; size = 12
??1Analyse_back_groung@@QAE@XZ PROC			; Analyse_back_groung::~Analyse_back_groung, COMDAT
; _this$ = ecx

; 24   : {

	push	ebp
	mov	ebp, esp
	push	-1
	push	__ehhandler$??1Analyse_back_groung@@QAE@XZ
	mov	eax, DWORD PTR fs:0
	push	eax
	push	ecx
	push	ebx
	push	esi
	push	edi
	mov	eax, DWORD PTR ___security_cookie
	xor	eax, ebp
	push	eax
	lea	eax, DWORD PTR __$EHRec$[ebp]
	mov	DWORD PTR fs:0, eax
	mov	esi, ecx

; 25   : 	delete pt_fichier;

	mov	eax, DWORD PTR [esi+28]
	test	eax, eax
	je	SHORT $LN12@Analyse_ba
	push	1
	push	eax
	call	??3@YAXPAXI@Z				; operator delete
	add	esp, 8
$LN12@Analyse_ba:

; 26   : 	delete pt_encode;

	mov	ebx, DWORD PTR [esi+32]
	or	edi, -1
	test	ebx, ebx
	je	SHORT $LN15@Analyse_ba
; File I:\Projets\AES\AES\AES\C_AES_Encode.cpp

; 20   : 	delete pt_Erreur;

	mov	eax, DWORD PTR [ebx]
	mov	DWORD PTR $T15[ebp], eax
	test	eax, eax
	je	SHORT $LN23@Analyse_ba
; File C:\Program Files (x86)\Microsoft Visual Studio\2019\Enterprise\VC\Tools\MSVC\14.23.28105\atlmfc\include\atlsimpstr.h

; 800  : 		return( reinterpret_cast< CStringData* >( m_pszData )-1 );

	mov	edx, DWORD PTR [eax]

; 88   : 		if( _InterlockedDecrement( &nRefs ) <= 0 )

	mov	eax, edi

; 800  : 		return( reinterpret_cast< CStringData* >( m_pszData )-1 );

	sub	edx, 16					; 00000010H

; 88   : 		if( _InterlockedDecrement( &nRefs ) <= 0 )

	lock	 xadd	 DWORD PTR [edx+12], eax
	dec	eax
	test	eax, eax
	jg	SHORT $LN35@Analyse_ba

; 89   : 		{
; 90   : 			pStringMgr->Free( this );

	mov	ecx, DWORD PTR [edx]
	push	edx
	mov	eax, DWORD PTR [ecx]
	call	DWORD PTR [eax+4]
$LN35@Analyse_ba:
	push	4
	push	DWORD PTR $T15[ebp]
	call	??3@YAXPAXI@Z				; operator delete
	add	esp, 8
$LN23@Analyse_ba:

; 800  : 		return( reinterpret_cast< CStringData* >( m_pszData )-1 );

	mov	edx, DWORD PTR [ebx+4]

; 88   : 		if( _InterlockedDecrement( &nRefs ) <= 0 )

	mov	eax, edi

; 800  : 		return( reinterpret_cast< CStringData* >( m_pszData )-1 );

	sub	edx, 16					; 00000010H

; 88   : 		if( _InterlockedDecrement( &nRefs ) <= 0 )

	lock	 xadd	 DWORD PTR [edx+12], eax
	dec	eax
	test	eax, eax
	jg	SHORT $LN44@Analyse_ba

; 89   : 		{
; 90   : 			pStringMgr->Free( this );

	mov	ecx, DWORD PTR [edx]
	push	edx
	mov	eax, DWORD PTR [ecx]
	call	DWORD PTR [eax+4]
$LN44@Analyse_ba:
	push	20					; 00000014H
	push	ebx
	call	??3@YAXPAXI@Z				; operator delete
	add	esp, 8
$LN15@Analyse_ba:
; File I:\Projets\AES\AES\AES\Analyse_back_groung.cpp

; 27   : 	delete pt_decode;

	mov	ebx, DWORD PTR [esi+36]
	test	ebx, ebx
	je	SHORT $LN47@Analyse_ba
; File I:\Projets\AES\AES\AES\C_AES_Decode.cpp

; 19   : 	delete pt_Erreur;

	mov	eax, DWORD PTR [ebx]
	mov	DWORD PTR $T14[ebp], eax
	test	eax, eax
	je	SHORT $LN55@Analyse_ba
; File C:\Program Files (x86)\Microsoft Visual Studio\2019\Enterprise\VC\Tools\MSVC\14.23.28105\atlmfc\include\atlsimpstr.h

; 800  : 		return( reinterpret_cast< CStringData* >( m_pszData )-1 );

	mov	edx, DWORD PTR [eax]

; 88   : 		if( _InterlockedDecrement( &nRefs ) <= 0 )

	mov	eax, edi

; 800  : 		return( reinterpret_cast< CStringData* >( m_pszData )-1 );

	sub	edx, 16					; 00000010H

; 88   : 		if( _InterlockedDecrement( &nRefs ) <= 0 )

	lock	 xadd	 DWORD PTR [edx+12], eax
	dec	eax
	test	eax, eax
	jg	SHORT $LN67@Analyse_ba

; 89   : 		{
; 90   : 			pStringMgr->Free( this );

	mov	ecx, DWORD PTR [edx]
	push	edx
	mov	eax, DWORD PTR [ecx]
	call	DWORD PTR [eax+4]
$LN67@Analyse_ba:
	push	4
	push	DWORD PTR $T14[ebp]
	call	??3@YAXPAXI@Z				; operator delete
	add	esp, 8
$LN55@Analyse_ba:

; 800  : 		return( reinterpret_cast< CStringData* >( m_pszData )-1 );

	mov	edx, DWORD PTR [ebx+4]

; 88   : 		if( _InterlockedDecrement( &nRefs ) <= 0 )

	mov	eax, edi

; 800  : 		return( reinterpret_cast< CStringData* >( m_pszData )-1 );

	sub	edx, 16					; 00000010H

; 88   : 		if( _InterlockedDecrement( &nRefs ) <= 0 )

	lock	 xadd	 DWORD PTR [edx+12], eax
	dec	eax
	test	eax, eax
	jg	SHORT $LN76@Analyse_ba

; 89   : 		{
; 90   : 			pStringMgr->Free( this );

	mov	ecx, DWORD PTR [edx]
	push	edx
	mov	eax, DWORD PTR [ecx]
	call	DWORD PTR [eax+4]
$LN76@Analyse_ba:
	push	24					; 00000018H
	push	ebx
	call	??3@YAXPAXI@Z				; operator delete
	add	esp, 8
$LN47@Analyse_ba:
; File I:\Projets\AES\AES\AES\Analyse_back_groung.cpp

; 28   : 	delete pt_pass;

	mov	eax, DWORD PTR [esi+40]
	test	eax, eax
	je	SHORT $LN79@Analyse_ba
	push	1
	push	eax
	call	??3@YAXPAXI@Z				; operator delete
	add	esp, 8
$LN79@Analyse_ba:
; File C:\Program Files (x86)\Microsoft Visual Studio\2019\Enterprise\VC\Tools\MSVC\14.23.28105\atlmfc\include\atlsimpstr.h

; 800  : 		return( reinterpret_cast< CStringData* >( m_pszData )-1 );

	mov	edx, DWORD PTR [esi+44]
	sub	edx, 16					; 00000010H

; 88   : 		if( _InterlockedDecrement( &nRefs ) <= 0 )

	lock	 xadd	 DWORD PTR [edx+12], edi
	dec	edi
	test	edi, edi
	jg	SHORT $LN88@Analyse_ba

; 89   : 		{
; 90   : 			pStringMgr->Free( this );

	mov	ecx, DWORD PTR [edx]
	push	edx
	mov	eax, DWORD PTR [ecx]
	call	DWORD PTR [eax+4]
$LN88@Analyse_ba:
; File I:\Projets\AES\AES\AES\Analyse_back_groung.cpp

; 30   : }

	lea	ecx, DWORD PTR [esi+8]
	call	??1CStringArray@@UAE@XZ			; CStringArray::~CStringArray
	mov	ecx, DWORD PTR __$EHRec$[ebp]
	mov	DWORD PTR fs:0, ecx
	pop	ecx
	pop	edi
	pop	esi
	pop	ebx
	mov	esp, ebp
	pop	ebp
	ret	0
_TEXT	ENDS
;	COMDAT text$x
text$x	SEGMENT
__ehhandler$??1Analyse_back_groung@@QAE@XZ:
	mov	edx, DWORD PTR [esp+8]
	lea	eax, DWORD PTR [edx+12]
	mov	ecx, DWORD PTR [edx-20]
	xor	ecx, eax
	call	@__security_check_cookie@4
	mov	eax, OFFSET __ehfuncinfo$??1Analyse_back_groung@@QAE@XZ
	jmp	___CxxFrameHandler3
text$x	ENDS
??1Analyse_back_groung@@QAE@XZ ENDP			; Analyse_back_groung::~Analyse_back_groung
; Function compile flags: /Ogtp
; File I:\Projets\AES\AES\AES\Analyse_back_groung.cpp
; File C:\Program Files (x86)\Microsoft Visual Studio\2019\Enterprise\VC\Tools\MSVC\14.23.28105\atlmfc\include\afxcoll.inl
; File I:\Projets\AES\AES\AES\Analyse_back_groung.cpp
; File C:\Program Files (x86)\Microsoft Visual Studio\2019\Enterprise\VC\Tools\MSVC\14.23.28105\atlmfc\include\afxcoll.inl
; File I:\Projets\AES\AES\AES\Analyse_back_groung.cpp
; File C:\Program Files (x86)\Microsoft Visual Studio\2019\Enterprise\VC\Tools\MSVC\14.23.28105\atlmfc\include\atlsimpstr.h
; File I:\Projets\AES\AES\AES\Analyse_back_groung.cpp
; File C:\Program Files (x86)\Microsoft Visual Studio\2019\Enterprise\VC\Tools\MSVC\14.23.28105\atlmfc\include\atlsimpstr.h
; File I:\Projets\AES\AES\AES\Analyse_back_groung.cpp
; File C:\Program Files (x86)\Microsoft Visual Studio\2019\Enterprise\VC\Tools\MSVC\14.23.28105\atlmfc\include\afxcoll.inl
; File I:\Projets\AES\AES\AES\Analyse_back_groung.cpp
; File C:\Program Files (x86)\Microsoft Visual Studio\2019\Enterprise\VC\Tools\MSVC\14.23.28105\atlmfc\include\afxcoll.inl
; File I:\Projets\AES\AES\AES\Analyse_back_groung.cpp
; File C:\Program Files (x86)\Microsoft Visual Studio\2019\Enterprise\VC\Tools\MSVC\14.23.28105\atlmfc\include\afxcoll.inl
; File C:\Program Files (x86)\Microsoft Visual Studio\2019\Enterprise\VC\Tools\MSVC\14.23.28105\atlmfc\include\atlsimpstr.h
; File I:\Projets\AES\AES\AES\Analyse_back_groung.cpp
;	COMDAT ?Run@Analyse_back_groung@@QAEHPAPA_WH@Z
_TEXT	SEGMENT
_this$ = -4						; size = 4
tv368 = 8						; size = 4
_pt_chaine$ = 8						; size = 4
tv360 = 12						; size = 4
_Count$ = 12						; size = 4
?Run@Analyse_back_groung@@QAEHPAPA_WH@Z PROC		; Analyse_back_groung::Run, COMDAT
; _this$ = ecx

; 33   : {

	push	ebp
	mov	ebp, esp
	push	ecx
	push	ebx
	push	esi
	push	edi

; 34   : 
; 35   : 	if (Count == 1) return (FALSE);

	mov	edi, DWORD PTR _Count$[ebp]
	mov	ebx, ecx
	cmp	edi, 1
	jne	SHORT $LN8@Run
	xor	eax, eax

; 56   : }

	pop	edi
	pop	esi
	pop	ebx
	mov	esp, ebp
	pop	ebp
	ret	8
$LN8@Run:

; 38   : 	for (int i = 1; i < Count; i++)

	mov	esi, 1
	jle	SHORT $LN57@Run
	lea	eax, DWORD PTR [ebx+8]
$LL4@Run:
; File C:\Program Files (x86)\Microsoft Visual Studio\2019\Enterprise\VC\Tools\MSVC\14.23.28105\atlmfc\include\afxcoll.inl

; 316  : 		SetAtGrow(nIndex, newElement);

	mov	ecx, DWORD PTR _pt_chaine$[ebp]
	push	DWORD PTR [ecx+esi*4]
	mov	ecx, eax
	push	DWORD PTR [ebx+16]
	call	?SetAtGrow@CStringArray@@QAEXHPB_W@Z	; CStringArray::SetAtGrow
; File I:\Projets\AES\AES\AES\Analyse_back_groung.cpp

; 38   : 	for (int i = 1; i < Count; i++)

	inc	esi
	lea	eax, DWORD PTR [ebx+8]
	cmp	esi, edi
	jl	SHORT $LL4@Run
$LN57@Run:

; 39   : 	{
; 40   : 
; 41   : 	 // le premier parametre n'est pas mémorisé
; 42   : 	// Car il contient le chemin complet ainsi que le nom du programme
; 43   : 	liste_fichier.Add(pt_chaine[i]);
; 44   : 
; 45   : 	}
; 46   : 
; 47   : 	for (int i = 0; i < liste_fichier.GetSize(); i++)

	mov	eax, DWORD PTR [ebx+16]
	xor	edi, edi
	test	eax, eax
	jle	SHORT $LN6@Run
; File C:\Program Files (x86)\Microsoft Visual Studio\2019\Enterprise\VC\Tools\MSVC\14.23.28105\atlmfc\include\afxcoll.inl

; 289  : 		if( nIndex < 0 || nIndex >= m_nSize )

	cmp	edi, eax
	jge	$LN17@Run
$LN63@Run:

; 291  : 		return m_pData[nIndex]; }

	mov	eax, DWORD PTR [ebx+12]
; File I:\Projets\AES\AES\AES\Analyse_back_groung.cpp

; 49   : 	   Traitement_fichier(liste_fichier.GetAt(i));

	push	ecx
	mov	DWORD PTR _this$[ebp], esp
; File C:\Program Files (x86)\Microsoft Visual Studio\2019\Enterprise\VC\Tools\MSVC\14.23.28105\atlmfc\include\atlsimpstr.h

; 800  : 		return( reinterpret_cast< CStringData* >( m_pszData )-1 );

	mov	eax, DWORD PTR [eax+edi*4]

; 882  : 		IAtlStringMgr* pNewStringMgr = pData->pStringMgr->Clone();

	mov	ecx, DWORD PTR [eax-16]

; 800  : 		return( reinterpret_cast< CStringData* >( m_pszData )-1 );

	lea	esi, DWORD PTR [eax-16]
	mov	DWORD PTR tv368[ebp], eax

; 882  : 		IAtlStringMgr* pNewStringMgr = pData->pStringMgr->Clone();

	mov	eax, DWORD PTR [ecx]
	call	DWORD PTR [eax+16]

; 69   : 		return nRefs < 0;

	cmp	DWORD PTR [esi+12], 0

; 882  : 		IAtlStringMgr* pNewStringMgr = pData->pStringMgr->Clone();

	mov	edx, eax

; 69   : 		return nRefs < 0;

	lea	eax, DWORD PTR [esi+12]

; 883  : 		if( !pData->IsLocked() && (pNewStringMgr == pData->pStringMgr) )

	jl	SHORT $LN60@Run
	cmp	edx, DWORD PTR [esi]
	jne	SHORT $LN60@Run

; 65   : 		_InterlockedIncrement(&nRefs);

	lock	 inc	 DWORD PTR [eax]

; 887  : 		}

	jmp	SHORT $LN29@Run
$LN60@Run:

; 888  : 		else
; 889  : 		{
; 890  : 			pNewData = pNewStringMgr->Allocate( pData->nDataLength, sizeof( XCHAR ) );

	mov	eax, DWORD PTR [edx]
	lea	ecx, DWORD PTR [esi+4]
	push	2
	push	DWORD PTR [ecx]
	mov	DWORD PTR tv360[ebp], ecx
	mov	ecx, edx
	call	DWORD PTR [eax]
	mov	esi, eax

; 891  : 			if( pNewData == NULL )

	test	esi, esi
	je	SHORT $LN51@Run

; 894  : 			}
; 895  : 			pNewData->nDataLength = pData->nDataLength;

	mov	ecx, DWORD PTR tv360[ebp]
	mov	eax, DWORD PTR [ecx]
	mov	DWORD PTR [esi+4], eax

; 896  : 			CopyChars( PXSTR( pNewData->data() ), pData->nDataLength+1,

	mov	eax, DWORD PTR [ecx]
	inc	eax
	push	eax
	push	DWORD PTR tv368[ebp]
	push	eax

; 59   : 		return (this+1);

	lea	eax, DWORD PTR [esi+16]

; 896  : 			CopyChars( PXSTR( pNewData->data() ), pData->nDataLength+1,

	push	eax
	call	?CopyChars@?$CSimpleStringT@_W$0A@@ATL@@SAXPA_WIPB_WH@Z ; ATL::CSimpleStringT<wchar_t,0>::CopyChars
	add	esp, 16					; 00000010H
$LN29@Run:

; 780  : 		m_pszData = static_cast< PXSTR >( pData->data() );

	mov	eax, DWORD PTR _this$[ebp]

; 59   : 		return (this+1);

	add	esi, 16					; 00000010H
; File I:\Projets\AES\AES\AES\Analyse_back_groung.cpp

; 49   : 	   Traitement_fichier(liste_fichier.GetAt(i));

	mov	ecx, ebx
; File C:\Program Files (x86)\Microsoft Visual Studio\2019\Enterprise\VC\Tools\MSVC\14.23.28105\atlmfc\include\atlsimpstr.h

; 780  : 		m_pszData = static_cast< PXSTR >( pData->data() );

	mov	DWORD PTR [eax], esi
; File I:\Projets\AES\AES\AES\Analyse_back_groung.cpp

; 49   : 	   Traitement_fichier(liste_fichier.GetAt(i));

	call	?Traitement_fichier@Analyse_back_groung@@QAE_NV?$CStringT@_WV?$StrTraitMFC@_WV?$ChTraitsCRT@_W@ATL@@@@@ATL@@@Z ; Analyse_back_groung::Traitement_fichier
	mov	eax, DWORD PTR [ebx+16]
	inc	edi
	cmp	edi, eax
	jl	SHORT $LN63@Run
$LN6@Run:
; File C:\Program Files (x86)\Microsoft Visual Studio\2019\Enterprise\VC\Tools\MSVC\14.23.28105\atlmfc\include\afxcoll.inl

; 286  : 	{ SetSize(0); }

	push	-1
	push	0
; File I:\Projets\AES\AES\AES\Analyse_back_groung.cpp

; 52   : 	liste_fichier.RemoveAll();

	lea	ecx, DWORD PTR [ebx+8]
; File C:\Program Files (x86)\Microsoft Visual Studio\2019\Enterprise\VC\Tools\MSVC\14.23.28105\atlmfc\include\afxcoll.inl

; 286  : 	{ SetSize(0); }

	call	?SetSize@CStringArray@@QAEXHH@Z		; CStringArray::SetSize
; File I:\Projets\AES\AES\AES\Analyse_back_groung.cpp

; 56   : }

	pop	edi
	pop	esi
	mov	eax, 1
	pop	ebx
	mov	esp, ebp
	pop	ebp
	ret	8
$LN17@Run:
; File C:\Program Files (x86)\Microsoft Visual Studio\2019\Enterprise\VC\Tools\MSVC\14.23.28105\atlmfc\include\afxcoll.inl

; 290  : 			AfxThrowInvalidArgException();

	call	?AfxThrowInvalidArgException@@YGXXZ	; AfxThrowInvalidArgException
$LN51@Run:
; File C:\Program Files (x86)\Microsoft Visual Studio\2019\Enterprise\VC\Tools\MSVC\14.23.28105\atlmfc\include\atlsimpstr.h

; 893  : 				ThrowMemoryException();

	call	?ThrowMemoryException@?$CSimpleStringT@_W$0A@@ATL@@KAXXZ ; ATL::CSimpleStringT<wchar_t,0>::ThrowMemoryException
$LN61@Run:
	int	3
?Run@Analyse_back_groung@@QAEHPAPA_WH@Z ENDP		; Analyse_back_groung::Run
_TEXT	ENDS
; Function compile flags: /Ogtp
; File I:\Projets\AES\AES\AES\Analyse_back_groung.cpp
; File C:\Program Files (x86)\Microsoft Visual Studio\2019\Enterprise\VC\Tools\MSVC\14.23.28105\atlmfc\include\afxstr.h
; File C:\Program Files (x86)\Microsoft Visual Studio\2019\Enterprise\VC\Tools\MSVC\14.23.28105\atlmfc\include\atlsimpstr.h
; File I:\Projets\AES\AES\AES\Analyse_back_groung.cpp
; File C:\Program Files (x86)\Microsoft Visual Studio\2019\Enterprise\VC\Tools\MSVC\14.23.28105\atlmfc\include\atlsimpstr.h
; File I:\Projets\AES\AES\AES\Analyse_back_groung.cpp
;	COMDAT ??0Analyse_back_groung@@QAE@XZ
_TEXT	SEGMENT
$T7 = -20						; size = 4
$T5 = -20						; size = 4
$T3 = -20						; size = 4
$T1 = -20						; size = 4
_this$ = -16						; size = 4
__$EHRec$ = -12						; size = 12
??0Analyse_back_groung@@QAE@XZ PROC			; Analyse_back_groung::Analyse_back_groung, COMDAT
; _this$ = ecx

; 13   : {

	push	ebp
	mov	ebp, esp
	push	-1
	push	__ehhandler$??0Analyse_back_groung@@QAE@XZ
	mov	eax, DWORD PTR fs:0
	push	eax
	sub	esp, 8
	push	esi
	push	edi
	mov	eax, DWORD PTR ___security_cookie
	xor	eax, ebp
	push	eax
	lea	eax, DWORD PTR __$EHRec$[ebp]
	mov	DWORD PTR fs:0, eax
	mov	esi, ecx
	mov	DWORD PTR _this$[ebp], esi
	lea	ecx, DWORD PTR [esi+8]
	call	??0CStringArray@@QAE@XZ			; CStringArray::CStringArray
	mov	DWORD PTR __$EHRec$[ebp+8], 0
; File C:\Program Files (x86)\Microsoft Visual Studio\2019\Enterprise\VC\Tools\MSVC\14.23.28105\atlmfc\include\afxstr.h

; 52   : 		return( AfxGetStringManager() );

	call	?AfxGetStringManager@@YGPAUIAtlStringMgr@ATL@@XZ ; AfxGetStringManager
	mov	ecx, eax
; File C:\Program Files (x86)\Microsoft Visual Studio\2019\Enterprise\VC\Tools\MSVC\14.23.28105\atlmfc\include\atlsimpstr.h

; 205  : 		ATLENSURE( pStringMgr != NULL );

	test	ecx, ecx
	je	$LN43@Analyse_ba

; 206  : 		CStringData* pData = pStringMgr->GetNilString();

	mov	eax, DWORD PTR [ecx]
	mov	eax, DWORD PTR [eax+12]
	call	eax

; 59   : 		return (this+1);

	add	eax, 16					; 00000010H

; 780  : 		m_pszData = static_cast< PXSTR >( pData->data() );

	mov	DWORD PTR [esi+44], eax
; File I:\Projets\AES\AES\AES\Analyse_back_groung.cpp

; 14   : 	pt_fichier = new Manipulation_Fichier;

	push	1
	mov	BYTE PTR __$EHRec$[ebp+8], 1
	call	??2@YAPAXI@Z				; operator new
	mov	DWORD PTR $T1[ebp], eax

; 15   :     pt_encode  = new C_AES_Encode;

	push	20					; 00000014H
	mov	DWORD PTR [esi+28], eax
	call	??2@YAPAXI@Z				; operator new
	add	esp, 8
	mov	DWORD PTR $T3[ebp], eax
	mov	BYTE PTR __$EHRec$[ebp+8], 2
	test	eax, eax
	je	SHORT $LN5@Analyse_ba
	xorps	xmm0, xmm0
	mov	ecx, eax
	movups	XMMWORD PTR [eax], xmm0
	mov	DWORD PTR [eax+16], 0
	call	??0C_AES_Encode@@QAE@XZ			; C_AES_Encode::C_AES_Encode
	jmp	SHORT $LN6@Analyse_ba
$LN5@Analyse_ba:
	xor	eax, eax
$LN6@Analyse_ba:
	mov	BYTE PTR __$EHRec$[ebp+8], 1

; 16   : 	pt_decode = new C_AES_Decode;

	push	24					; 00000018H
	mov	DWORD PTR [esi+32], eax
	call	??2@YAPAXI@Z				; operator new
	add	esp, 4
	mov	DWORD PTR $T5[ebp], eax
	mov	BYTE PTR __$EHRec$[ebp+8], 3
	test	eax, eax
	je	SHORT $LN7@Analyse_ba
	xorps	xmm0, xmm0
	mov	ecx, eax
	movups	XMMWORD PTR [eax], xmm0
	movq	QWORD PTR [eax+16], xmm0
	call	??0C_AES_Decode@@QAE@XZ			; C_AES_Decode::C_AES_Decode
	jmp	SHORT $LN8@Analyse_ba
$LN7@Analyse_ba:
	xor	eax, eax
$LN8@Analyse_ba:
	mov	BYTE PTR __$EHRec$[ebp+8], 1

; 17   : 	pt_pass = new C_Password;

	push	1
	mov	DWORD PTR [esi+36], eax
	call	??2@YAPAXI@Z				; operator new
	add	esp, 4
	mov	DWORD PTR $T7[ebp], eax

; 18   : 	BOOL status = ext.LoadString(IDS_STRING130);

	lea	ecx, DWORD PTR [esi+44]
	mov	DWORD PTR [esi+40], eax
	push	130					; 00000082H
	call	?LoadStringW@?$CStringT@_WV?$StrTraitMFC@_WV?$ChTraitsCRT@_W@ATL@@@@@ATL@@QAEHI@Z ; ATL::CStringT<wchar_t,StrTraitMFC<wchar_t,ATL::ChTraitsCRT<wchar_t> > >::LoadStringW

; 20   : }

	mov	eax, esi
	mov	ecx, DWORD PTR __$EHRec$[ebp]
	mov	DWORD PTR fs:0, ecx
	pop	ecx
	pop	edi
	pop	esi
	mov	esp, ebp
	pop	ebp
	ret	0
$LN43@Analyse_ba:
; File C:\Program Files (x86)\Microsoft Visual Studio\2019\Enterprise\VC\Tools\MSVC\14.23.28105\atlmfc\include\atlsimpstr.h

; 205  : 		ATLENSURE( pStringMgr != NULL );

	push	-2147467259				; 80004005H
	call	?AtlThrowImpl@ATL@@YGXJ@Z		; ATL::AtlThrowImpl
$LN41@Analyse_ba:
	int	3
_TEXT	ENDS
;	COMDAT text$x
text$x	SEGMENT
__unwindfunclet$??0Analyse_back_groung@@QAE@XZ$0:
	mov	ecx, DWORD PTR _this$[ebp]
	add	ecx, 8
	jmp	??1CStringArray@@UAE@XZ			; CStringArray::~CStringArray
__unwindfunclet$??0Analyse_back_groung@@QAE@XZ$1:
	mov	ecx, DWORD PTR _this$[ebp]
	add	ecx, 44					; 0000002cH
	jmp	??1?$CStringT@_WV?$StrTraitMFC@_WV?$ChTraitsCRT@_W@ATL@@@@@ATL@@QAE@XZ ; ATL::CStringT<wchar_t,StrTraitMFC<wchar_t,ATL::ChTraitsCRT<wchar_t> > >::~CStringT<wchar_t,StrTraitMFC<wchar_t,ATL::ChTraitsCRT<wchar_t> > >
__unwindfunclet$??0Analyse_back_groung@@QAE@XZ$3:
	push	20					; 00000014H
	mov	eax, DWORD PTR $T3[ebp]
	push	eax
	call	??3@YAXPAXI@Z				; operator delete
	add	esp, 8
	ret	0
__unwindfunclet$??0Analyse_back_groung@@QAE@XZ$4:
	push	24					; 00000018H
	mov	eax, DWORD PTR $T5[ebp]
	push	eax
	call	??3@YAXPAXI@Z				; operator delete
	add	esp, 8
	ret	0
__ehhandler$??0Analyse_back_groung@@QAE@XZ:
	mov	edx, DWORD PTR [esp+8]
	lea	eax, DWORD PTR [edx+12]
	mov	ecx, DWORD PTR [edx-20]
	xor	ecx, eax
	call	@__security_check_cookie@4
	mov	eax, OFFSET __ehfuncinfo$??0Analyse_back_groung@@QAE@XZ
	jmp	___CxxFrameHandler3
text$x	ENDS
??0Analyse_back_groung@@QAE@XZ ENDP			; Analyse_back_groung::Analyse_back_groung
; Function compile flags: /Ogtp
; File I:\Projets\AES\AES\AES\Analyse_back_groung.cpp
; File C:\Program Files (x86)\Microsoft Visual Studio\2019\Enterprise\VC\Tools\MSVC\14.23.28105\atlmfc\include\atlsimpstr.h
; File I:\Projets\AES\AES\AES\Analyse_back_groung.cpp
; File C:\Program Files (x86)\Microsoft Visual Studio\2019\Enterprise\VC\Tools\MSVC\14.23.28105\atlmfc\include\atlsimpstr.h
; File I:\Projets\AES\AES\AES\Analyse_back_groung.cpp
; File C:\Program Files (x86)\Microsoft Visual Studio\2019\Enterprise\VC\Tools\MSVC\14.23.28105\atlmfc\include\atlsimpstr.h
; File I:\Projets\AES\AES\AES\Analyse_back_groung.cpp
; File C:\Program Files (x86)\Microsoft Visual Studio\2019\Enterprise\VC\Tools\MSVC\14.23.28105\atlmfc\include\atlsimpstr.h
; File I:\Projets\AES\AES\AES\Analyse_back_groung.cpp
; File C:\Program Files (x86)\Microsoft Visual Studio\2019\Enterprise\VC\Tools\MSVC\14.23.28105\atlmfc\include\afxcoll.inl
; File I:\Projets\AES\AES\AES\Analyse_back_groung.cpp
; File C:\Program Files (x86)\Microsoft Visual Studio\2019\Enterprise\VC\Tools\MSVC\14.23.28105\atlmfc\include\afxstr.h
; File C:\Program Files (x86)\Microsoft Visual Studio\2019\Enterprise\VC\Tools\MSVC\14.23.28105\atlmfc\include\atlsimpstr.h
; File I:\Projets\AES\AES\AES\Analyse_back_groung.cpp
; File C:\Program Files (x86)\Microsoft Visual Studio\2019\Enterprise\VC\Tools\MSVC\14.23.28105\atlmfc\include\atlsimpstr.h
; File I:\Projets\AES\AES\AES\Analyse_back_groung.cpp
; File C:\Program Files (x86)\Microsoft Visual Studio\2019\Enterprise\VC\Tools\MSVC\14.23.28105\atlmfc\include\atlsimpstr.h
; File I:\Projets\AES\AES\AES\Analyse_back_groung.cpp
; File C:\Program Files (x86)\Microsoft Visual Studio\2019\Enterprise\VC\Tools\MSVC\14.23.28105\atlmfc\include\atlsimpstr.h
; File I:\Projets\AES\AES\AES\Analyse_back_groung.cpp
; File C:\Program Files (x86)\Microsoft Visual Studio\2019\Enterprise\VC\Tools\MSVC\14.23.28105\atlmfc\include\atlsimpstr.h
; File I:\Projets\AES\AES\AES\Analyse_back_groung.cpp
; File I:\Projets\AES\AES\AES\Calcul_temps.cpp
; File I:\Projets\AES\AES\AES\Analyse_back_groung.cpp
; File I:\Projets\AES\AES\AES\Calcul_temps.cpp
; File I:\Projets\AES\AES\AES\Analyse_back_groung.cpp
; File I:\Projets\AES\AES\AES\Calcul_temps.cpp
; File I:\Projets\AES\AES\AES\Analyse_back_groung.cpp
; File C:\Program Files (x86)\Microsoft Visual Studio\2019\Enterprise\VC\Tools\MSVC\14.23.28105\atlmfc\include\atlsimpstr.h
; File I:\Projets\AES\AES\AES\Analyse_back_groung.cpp
; File C:\Program Files (x86)\Microsoft Visual Studio\2019\Enterprise\VC\Tools\MSVC\14.23.28105\atlmfc\include\atlsimpstr.h
; File I:\Projets\AES\AES\AES\Analyse_back_groung.cpp
; File C:\Program Files (x86)\Microsoft Visual Studio\2019\Enterprise\VC\Tools\MSVC\14.23.28105\atlmfc\include\atlsimpstr.h
; File I:\Projets\AES\AES\AES\Analyse_back_groung.cpp
; File C:\Program Files (x86)\Microsoft Visual Studio\2019\Enterprise\VC\Tools\MSVC\14.23.28105\atlmfc\include\atlsimpstr.h
; File I:\Projets\AES\AES\AES\Analyse_back_groung.cpp
; File C:\Program Files (x86)\Microsoft Visual Studio\2019\Enterprise\VC\Tools\MSVC\14.23.28105\atlmfc\include\atlsimpstr.h
; File I:\Projets\AES\AES\AES\Calcul_temps.cpp
; File I:\Projets\AES\AES\AES\Analyse_back_groung.cpp
; File I:\Projets\AES\AES\AES\Calcul_temps.cpp
; File I:\Projets\AES\AES\AES\Analyse_back_groung.cpp
; File C:\Program Files (x86)\Microsoft Visual Studio\2019\Enterprise\VC\Tools\MSVC\14.23.28105\atlmfc\include\atlsimpstr.h
; File I:\Projets\AES\AES\AES\Analyse_back_groung.cpp
; File C:\Program Files (x86)\Microsoft Visual Studio\2019\Enterprise\VC\Tools\MSVC\14.23.28105\atlmfc\include\atlsimpstr.h
; File I:\Projets\AES\AES\AES\Analyse_back_groung.cpp
; File C:\Program Files (x86)\Microsoft Visual Studio\2019\Enterprise\VC\Tools\MSVC\14.23.28105\atlmfc\include\afxcoll.inl
; File I:\Projets\AES\AES\AES\Analyse_back_groung.cpp
; File C:\Program Files (x86)\Microsoft Visual Studio\2019\Enterprise\VC\Tools\MSVC\14.23.28105\atlmfc\include\atlsimpstr.h
; File I:\Projets\AES\AES\AES\Analyse_back_groung.cpp
; File C:\Program Files (x86)\Microsoft Visual Studio\2019\Enterprise\VC\Tools\MSVC\14.23.28105\atlmfc\include\atlsimpstr.h
; File I:\Projets\AES\AES\AES\Analyse_back_groung.cpp
; File C:\Program Files (x86)\Microsoft Visual Studio\2019\Enterprise\VC\Tools\MSVC\14.23.28105\atlmfc\include\atlsimpstr.h
; File I:\Projets\AES\AES\AES\Analyse_back_groung.cpp
; File C:\Program Files (x86)\Microsoft Visual Studio\2019\Enterprise\VC\Tools\MSVC\14.23.28105\atlmfc\include\atlsimpstr.h
; File I:\Projets\AES\AES\AES\Analyse_back_groung.cpp
; File C:\Program Files (x86)\Microsoft Visual Studio\2019\Enterprise\VC\Tools\MSVC\14.23.28105\atlmfc\include\atlsimpstr.h
; File I:\Projets\AES\AES\AES\Analyse_back_groung.cpp
; File I:\Projets\AES\AES\AES\Calcul_temps.cpp
; File I:\Projets\AES\AES\AES\Analyse_back_groung.cpp
; File I:\Projets\AES\AES\AES\Calcul_temps.cpp
; File I:\Projets\AES\AES\AES\Analyse_back_groung.cpp
; File I:\Projets\AES\AES\AES\Calcul_temps.cpp
; File I:\Projets\AES\AES\AES\Analyse_back_groung.cpp
; File C:\Program Files (x86)\Microsoft Visual Studio\2019\Enterprise\VC\Tools\MSVC\14.23.28105\atlmfc\include\atlsimpstr.h
; File I:\Projets\AES\AES\AES\Analyse_back_groung.cpp
; File C:\Program Files (x86)\Microsoft Visual Studio\2019\Enterprise\VC\Tools\MSVC\14.23.28105\atlmfc\include\atlsimpstr.h
; File I:\Projets\AES\AES\AES\Analyse_back_groung.cpp
; File C:\Program Files (x86)\Microsoft Visual Studio\2019\Enterprise\VC\Tools\MSVC\14.23.28105\atlmfc\include\atlsimpstr.h
; File I:\Projets\AES\AES\AES\Analyse_back_groung.cpp
; File C:\Program Files (x86)\Microsoft Visual Studio\2019\Enterprise\VC\Tools\MSVC\14.23.28105\atlmfc\include\atlsimpstr.h
; File I:\Projets\AES\AES\AES\Analyse_back_groung.cpp
; File C:\Program Files (x86)\Microsoft Visual Studio\2019\Enterprise\VC\Tools\MSVC\14.23.28105\atlmfc\include\atlsimpstr.h
; File I:\Projets\AES\AES\AES\Calcul_temps.cpp
; File I:\Projets\AES\AES\AES\Analyse_back_groung.cpp
; File I:\Projets\AES\AES\AES\Calcul_temps.cpp
; File I:\Projets\AES\AES\AES\Analyse_back_groung.cpp
; File C:\Program Files (x86)\Microsoft Visual Studio\2019\Enterprise\VC\Tools\MSVC\14.23.28105\atlmfc\include\atlsimpstr.h
; File I:\Projets\AES\AES\AES\Analyse_back_groung.cpp
; File C:\Program Files (x86)\Microsoft Visual Studio\2019\Enterprise\VC\Tools\MSVC\14.23.28105\atlmfc\include\atlsimpstr.h
; File I:\Projets\AES\AES\AES\Analyse_back_groung.cpp
; File C:\Program Files (x86)\Microsoft Visual Studio\2019\Enterprise\VC\Tools\MSVC\14.23.28105\atlmfc\include\atlsimpstr.h
; File I:\Projets\AES\AES\AES\Analyse_back_groung.cpp
;	COMDAT ?Traitement_fichier@Analyse_back_groung@@QAE_NV?$CStringT@_WV?$StrTraitMFC@_WV?$ChTraitsCRT@_W@ATL@@@@@ATL@@@Z
_TEXT	SEGMENT
tv2382 = -64						; size = 4
_this$ = -64						; size = 4
_this$GSCopy$1$ = -60					; size = 4
$T40 = -56						; size = 4
$T41 = -56						; size = 4
_this$ = -56						; size = 4
_this$ = -52						; size = 4
$T32 = -52						; size = 4
$T23 = -52						; size = 4
$T11 = -52						; size = 4
$T9 = -52						; size = 4
$T6 = -52						; size = 4
_this$ = -48						; size = 4
_this$ = -48						; size = 4
$T28 = -48						; size = 4
$T15 = -48						; size = 4
_pData$1$ = -44						; size = 4
tv2380 = -44						; size = 4
_this$ = -44						; size = 4
_this$ = -44						; size = 4
_this$ = -44						; size = 4
$T26 = -44						; size = 4
$T21 = -44						; size = 4
$T4 = -44						; size = 4
$T2 = -44						; size = 4
_Mess$42 = -40						; size = 4
_timebuffer$43 = -36					; size = 16
_timebuffer$44 = -36					; size = 16
_timebuffer$45 = -36					; size = 16
_timebuffer$46 = -36					; size = 16
_Local$47 = -20						; size = 4
_Local$48 = -20						; size = 4
__$ArrayPad$ = -16					; size = 4
__$EHRec$ = -12						; size = 12
_chaine$ = 8						; size = 4
?Traitement_fichier@Analyse_back_groung@@QAE_NV?$CStringT@_WV?$StrTraitMFC@_WV?$ChTraitsCRT@_W@ATL@@@@@ATL@@@Z PROC ; Analyse_back_groung::Traitement_fichier, COMDAT
; _this$ = ecx

; 59   : {

	push	ebp
	mov	ebp, esp
	push	-1
	push	__ehhandler$?Traitement_fichier@Analyse_back_groung@@QAE_NV?$CStringT@_WV?$StrTraitMFC@_WV?$ChTraitsCRT@_W@ATL@@@@@ATL@@@Z
	mov	eax, DWORD PTR fs:0
	push	eax
	sub	esp, 52					; 00000034H
	mov	eax, DWORD PTR ___security_cookie
	xor	eax, ebp
	mov	DWORD PTR __$ArrayPad$[ebp], eax
	push	ebx
	push	esi
	push	edi
	push	eax
	lea	eax, DWORD PTR __$EHRec$[ebp]
	mov	DWORD PTR fs:0, eax
	mov	eax, ecx
	mov	DWORD PTR _this$GSCopy$1$[ebp], eax
	mov	DWORD PTR __$EHRec$[ebp+8], 0
; File C:\Program Files (x86)\Microsoft Visual Studio\2019\Enterprise\VC\Tools\MSVC\14.23.28105\atlmfc\include\atlsimpstr.h

; 800  : 		return( reinterpret_cast< CStringData* >( m_pszData )-1 );

	mov	ebx, DWORD PTR [eax+44]
; File I:\Projets\AES\AES\AES\Analyse_back_groung.cpp

; 61   : 	if (pt_fichier->Test_Extention(chaine, ext) == TRUE)

	push	ecx
; File C:\Program Files (x86)\Microsoft Visual Studio\2019\Enterprise\VC\Tools\MSVC\14.23.28105\atlmfc\include\atlsimpstr.h

; 882  : 		IAtlStringMgr* pNewStringMgr = pData->pStringMgr->Clone();

	mov	ecx, DWORD PTR [ebx-16]

; 800  : 		return( reinterpret_cast< CStringData* >( m_pszData )-1 );

	lea	esi, DWORD PTR [ebx-16]
; File I:\Projets\AES\AES\AES\Analyse_back_groung.cpp

; 61   : 	if (pt_fichier->Test_Extention(chaine, ext) == TRUE)

	mov	DWORD PTR $T2[ebp], esp
	mov	DWORD PTR _this$[ebp], esp
; File C:\Program Files (x86)\Microsoft Visual Studio\2019\Enterprise\VC\Tools\MSVC\14.23.28105\atlmfc\include\atlsimpstr.h

; 882  : 		IAtlStringMgr* pNewStringMgr = pData->pStringMgr->Clone();

	mov	eax, DWORD PTR [ecx]
	call	DWORD PTR [eax+16]

; 69   : 		return nRefs < 0;

	cmp	DWORD PTR [esi+12], 0

; 882  : 		IAtlStringMgr* pNewStringMgr = pData->pStringMgr->Clone();

	mov	ecx, eax

; 69   : 		return nRefs < 0;

	lea	eax, DWORD PTR [esi+12]

; 883  : 		if( !pData->IsLocked() && (pNewStringMgr == pData->pStringMgr) )

	jl	SHORT $LN47@Traitement
	cmp	ecx, DWORD PTR [esi]
	jne	SHORT $LN47@Traitement

; 65   : 		_InterlockedIncrement(&nRefs);

	lock	 inc	 DWORD PTR [eax]

; 887  : 		}

	jmp	SHORT $LN48@Traitement
$LN47@Traitement:

; 888  : 		else
; 889  : 		{
; 890  : 			pNewData = pNewStringMgr->Allocate( pData->nDataLength, sizeof( XCHAR ) );

	mov	eax, DWORD PTR [ecx]
	lea	edi, DWORD PTR [esi+4]
	push	2
	push	DWORD PTR [edi]
	call	DWORD PTR [eax]
	mov	esi, eax

; 891  : 			if( pNewData == NULL )

	test	esi, esi
	je	$LN481@Traitement

; 894  : 			}
; 895  : 			pNewData->nDataLength = pData->nDataLength;

	mov	eax, DWORD PTR [edi]
	mov	DWORD PTR [esi+4], eax

; 896  : 			CopyChars( PXSTR( pNewData->data() ), pData->nDataLength+1,

	mov	eax, DWORD PTR [edi]
	inc	eax
	push	eax
	push	ebx
	push	eax

; 59   : 		return (this+1);

	lea	eax, DWORD PTR [esi+16]

; 896  : 			CopyChars( PXSTR( pNewData->data() ), pData->nDataLength+1,

	push	eax
	call	?CopyChars@?$CSimpleStringT@_W$0A@@ATL@@SAXPA_WIPB_WH@Z ; ATL::CSimpleStringT<wchar_t,0>::CopyChars
	add	esp, 16					; 00000010H
$LN48@Traitement:

; 780  : 		m_pszData = static_cast< PXSTR >( pData->data() );

	mov	ecx, DWORD PTR _this$[ebp]

; 59   : 		return (this+1);

	lea	eax, DWORD PTR [esi+16]

; 780  : 		m_pszData = static_cast< PXSTR >( pData->data() );

	mov	DWORD PTR [ecx], eax
; File I:\Projets\AES\AES\AES\Analyse_back_groung.cpp

; 61   : 	if (pt_fichier->Test_Extention(chaine, ext) == TRUE)

	push	ecx
	mov	BYTE PTR __$EHRec$[ebp+8], 1
	mov	ebx, esp
	mov	DWORD PTR _this$[ebp], ebx
; File C:\Program Files (x86)\Microsoft Visual Studio\2019\Enterprise\VC\Tools\MSVC\14.23.28105\atlmfc\include\atlsimpstr.h

; 800  : 		return( reinterpret_cast< CStringData* >( m_pszData )-1 );

	mov	esi, DWORD PTR _chaine$[ebp]

; 882  : 		IAtlStringMgr* pNewStringMgr = pData->pStringMgr->Clone();

	mov	ecx, DWORD PTR [esi-16]
	mov	eax, DWORD PTR [ecx]
	call	DWORD PTR [eax+16]

; 69   : 		return nRefs < 0;

	cmp	DWORD PTR [esi-4], 0

; 882  : 		IAtlStringMgr* pNewStringMgr = pData->pStringMgr->Clone();

	mov	ecx, eax

; 69   : 		return nRefs < 0;

	lea	eax, DWORD PTR [esi-4]

; 883  : 		if( !pData->IsLocked() && (pNewStringMgr == pData->pStringMgr) )

	jl	SHORT $LN74@Traitement
	cmp	ecx, DWORD PTR [esi-16]
	jne	SHORT $LN74@Traitement

; 884  : 		{
; 885  : 			pNewData = pData;

	lea	edi, DWORD PTR [esi-16]

; 65   : 		_InterlockedIncrement(&nRefs);

	lock	 inc	 DWORD PTR [eax]

; 887  : 		}

	jmp	SHORT $LN75@Traitement
$LN74@Traitement:

; 888  : 		else
; 889  : 		{
; 890  : 			pNewData = pNewStringMgr->Allocate( pData->nDataLength, sizeof( XCHAR ) );

	mov	eax, DWORD PTR [ecx]
	push	2
	push	DWORD PTR [esi-12]
	call	DWORD PTR [eax]
	mov	edi, eax

; 891  : 			if( pNewData == NULL )

	test	edi, edi
	je	$LN482@Traitement

; 894  : 			}
; 895  : 			pNewData->nDataLength = pData->nDataLength;

	mov	eax, DWORD PTR [esi-12]
	mov	DWORD PTR [edi+4], eax

; 59   : 		return (this+1);

	lea	eax, DWORD PTR [edi+16]

; 896  : 			CopyChars( PXSTR( pNewData->data() ), pData->nDataLength+1,

	mov	ecx, DWORD PTR [esi-12]
	inc	ecx
	push	ecx
	push	esi
	push	ecx
	push	eax
	call	?CopyChars@?$CSimpleStringT@_W$0A@@ATL@@SAXPA_WIPB_WH@Z ; ATL::CSimpleStringT<wchar_t,0>::CopyChars
	add	esp, 16					; 00000010H
$LN75@Traitement:

; 59   : 		return (this+1);

	lea	eax, DWORD PTR [edi+16]

; 780  : 		m_pszData = static_cast< PXSTR >( pData->data() );

	mov	DWORD PTR [ebx], eax
; File I:\Projets\AES\AES\AES\Analyse_back_groung.cpp

; 61   : 	if (pt_fichier->Test_Extention(chaine, ext) == TRUE)

	mov	BYTE PTR __$EHRec$[ebp+8], 0
	call	?Test_Extention@Manipulation_Fichier@@QAEHV?$CStringT@_WV?$StrTraitMFC@_WV?$ChTraitsCRT@_W@ATL@@@@@ATL@@0@Z ; Manipulation_Fichier::Test_Extention
	push	1
	cmp	eax, 1
	jne	$LN2@Traitement

; 64   : 		AjustFileName *pt_Ajust = new AjustFileName;

	call	??2@YAPAXI@Z				; operator new
	mov	ebx, eax
	add	esp, 4
	mov	DWORD PTR $T41[ebp], ebx
	mov	DWORD PTR $T4[ebp], ebx
	mov	BYTE PTR __$EHRec$[ebp+8], 2
	test	ebx, ebx
	je	SHORT $LN5@Traitement
; File C:\Program Files (x86)\Microsoft Visual Studio\2019\Enterprise\VC\Tools\MSVC\14.23.28105\atlmfc\include\afxcoll.inl

; 286  : 	{ SetSize(0); }

	push	-1
	push	0
	mov	ecx, OFFSET ?List@@3VCStringArray@@A	; List
	call	?SetSize@CStringArray@@QAEXHH@Z		; CStringArray::SetSize
; File I:\Projets\AES\AES\AES\Analyse_back_groung.cpp

; 64   : 		AjustFileName *pt_Ajust = new AjustFileName;

	jmp	SHORT $LN6@Traitement
$LN5@Traitement:
	mov	DWORD PTR $T41[ebp], 0
$LN6@Traitement:
	mov	BYTE PTR __$EHRec$[ebp+8], 0
; File C:\Program Files (x86)\Microsoft Visual Studio\2019\Enterprise\VC\Tools\MSVC\14.23.28105\atlmfc\include\afxstr.h

; 52   : 		return( AfxGetStringManager() );

	call	?AfxGetStringManager@@YGPAUIAtlStringMgr@ATL@@XZ ; AfxGetStringManager
	mov	ecx, eax
; File C:\Program Files (x86)\Microsoft Visual Studio\2019\Enterprise\VC\Tools\MSVC\14.23.28105\atlmfc\include\atlsimpstr.h

; 205  : 		ATLENSURE( pStringMgr != NULL );

	test	ecx, ecx
	je	$LN483@Traitement

; 206  : 		CStringData* pData = pStringMgr->GetNilString();

	mov	eax, DWORD PTR [ecx]
	call	DWORD PTR [eax+12]

; 59   : 		return (this+1);

	add	eax, 16					; 00000010H

; 780  : 		m_pszData = static_cast< PXSTR >( pData->data() );

	mov	DWORD PTR _Mess$42[ebp], eax
; File I:\Projets\AES\AES\AES\Analyse_back_groung.cpp

; 68   : 		Status = Mess.LoadString(IDS_STRING206);

	push	206					; 000000ceH
	lea	ecx, DWORD PTR _Mess$42[ebp]
	mov	BYTE PTR __$EHRec$[ebp+8], 3
	call	?LoadStringW@?$CStringT@_WV?$StrTraitMFC@_WV?$ChTraitsCRT@_W@ATL@@@@@ATL@@QAEHI@Z ; ATL::CStringT<wchar_t,StrTraitMFC<wchar_t,ATL::ChTraitsCRT<wchar_t> > >::LoadStringW

; 69   : 		CString Local = pt_fichier ->Ajoute_Extension(pt_fichier->Supprime_Extension(chaine), Mess);

	push	ecx
	mov	edi, esp
	mov	DWORD PTR _Local$48[ebp], 0
	mov	DWORD PTR _this$[ebp], edi
; File C:\Program Files (x86)\Microsoft Visual Studio\2019\Enterprise\VC\Tools\MSVC\14.23.28105\atlmfc\include\atlsimpstr.h

; 800  : 		return( reinterpret_cast< CStringData* >( m_pszData )-1 );

	mov	ebx, DWORD PTR _Mess$42[ebp]
	add	ebx, -16				; fffffff0H
; File I:\Projets\AES\AES\AES\Analyse_back_groung.cpp

; 69   : 		CString Local = pt_fichier ->Ajoute_Extension(pt_fichier->Supprime_Extension(chaine), Mess);

	mov	DWORD PTR $T6[ebp], esp
; File C:\Program Files (x86)\Microsoft Visual Studio\2019\Enterprise\VC\Tools\MSVC\14.23.28105\atlmfc\include\atlsimpstr.h

; 800  : 		return( reinterpret_cast< CStringData* >( m_pszData )-1 );

	mov	DWORD PTR _pData$1$[ebp], ebx

; 882  : 		IAtlStringMgr* pNewStringMgr = pData->pStringMgr->Clone();

	mov	ecx, DWORD PTR [ebx]
	mov	eax, DWORD PTR [ecx]
	call	DWORD PTR [eax+16]

; 69   : 		return nRefs < 0;

	cmp	DWORD PTR [ebx+12], 0

; 882  : 		IAtlStringMgr* pNewStringMgr = pData->pStringMgr->Clone();

	mov	ecx, eax

; 69   : 		return nRefs < 0;

	lea	eax, DWORD PTR [ebx+12]

; 883  : 		if( !pData->IsLocked() && (pNewStringMgr == pData->pStringMgr) )

	jl	SHORT $LN126@Traitement
	cmp	ecx, DWORD PTR [ebx]
	jne	SHORT $LN126@Traitement

; 884  : 		{
; 885  : 			pNewData = pData;

	mov	esi, ebx

; 65   : 		_InterlockedIncrement(&nRefs);

	lock	 inc	 DWORD PTR [eax]

; 887  : 		}

	jmp	SHORT $LN127@Traitement
$LN126@Traitement:

; 888  : 		else
; 889  : 		{
; 890  : 			pNewData = pNewStringMgr->Allocate( pData->nDataLength, sizeof( XCHAR ) );

	mov	eax, DWORD PTR [ecx]
	push	2
	push	DWORD PTR [ebx+4]
	call	DWORD PTR [eax]
	mov	esi, eax

; 891  : 			if( pNewData == NULL )

	test	esi, esi
	je	$LN484@Traitement

; 894  : 			}
; 895  : 			pNewData->nDataLength = pData->nDataLength;

	mov	eax, DWORD PTR [ebx+4]
	mov	DWORD PTR [esi+4], eax

; 59   : 		return (this+1);

	lea	eax, DWORD PTR [ebx+16]

; 896  : 			CopyChars( PXSTR( pNewData->data() ), pData->nDataLength+1,

	mov	ecx, DWORD PTR [ebx+4]
	inc	ecx
	push	ecx
	push	eax
	push	ecx

; 59   : 		return (this+1);

	lea	eax, DWORD PTR [esi+16]

; 896  : 			CopyChars( PXSTR( pNewData->data() ), pData->nDataLength+1,

	push	eax
	call	?CopyChars@?$CSimpleStringT@_W$0A@@ATL@@SAXPA_WIPB_WH@Z ; ATL::CSimpleStringT<wchar_t,0>::CopyChars
	add	esp, 16					; 00000010H
$LN127@Traitement:

; 59   : 		return (this+1);

	lea	eax, DWORD PTR [esi+16]

; 780  : 		m_pszData = static_cast< PXSTR >( pData->data() );

	mov	DWORD PTR [edi], eax
; File I:\Projets\AES\AES\AES\Analyse_back_groung.cpp

; 69   : 		CString Local = pt_fichier ->Ajoute_Extension(pt_fichier->Supprime_Extension(chaine), Mess);

	push	ecx
	mov	DWORD PTR tv2382[ebp], esp
	push	ecx
	mov	BYTE PTR __$EHRec$[ebp+8], 4
	mov	ebx, esp
	mov	DWORD PTR _this$[ebp], ebx
; File C:\Program Files (x86)\Microsoft Visual Studio\2019\Enterprise\VC\Tools\MSVC\14.23.28105\atlmfc\include\atlsimpstr.h

; 800  : 		return( reinterpret_cast< CStringData* >( m_pszData )-1 );

	mov	esi, DWORD PTR _chaine$[ebp]

; 882  : 		IAtlStringMgr* pNewStringMgr = pData->pStringMgr->Clone();

	mov	ecx, DWORD PTR [esi-16]
	mov	eax, DWORD PTR [ecx]
	call	DWORD PTR [eax+16]

; 69   : 		return nRefs < 0;

	cmp	DWORD PTR [esi-4], 0

; 882  : 		IAtlStringMgr* pNewStringMgr = pData->pStringMgr->Clone();

	mov	ecx, eax

; 69   : 		return nRefs < 0;

	lea	eax, DWORD PTR [esi-4]

; 883  : 		if( !pData->IsLocked() && (pNewStringMgr == pData->pStringMgr) )

	jl	SHORT $LN152@Traitement
	cmp	ecx, DWORD PTR [esi-16]
	jne	SHORT $LN152@Traitement

; 884  : 		{
; 885  : 			pNewData = pData;

	lea	edi, DWORD PTR [esi-16]

; 65   : 		_InterlockedIncrement(&nRefs);

	lock	 inc	 DWORD PTR [eax]

; 887  : 		}

	jmp	SHORT $LN153@Traitement
$LN152@Traitement:

; 888  : 		else
; 889  : 		{
; 890  : 			pNewData = pNewStringMgr->Allocate( pData->nDataLength, sizeof( XCHAR ) );

	mov	eax, DWORD PTR [ecx]
	push	2
	push	DWORD PTR [esi-12]
	call	DWORD PTR [eax]
	mov	edi, eax

; 891  : 			if( pNewData == NULL )

	test	edi, edi
	je	$LN485@Traitement

; 894  : 			}
; 895  : 			pNewData->nDataLength = pData->nDataLength;

	mov	eax, DWORD PTR [esi-12]
	mov	DWORD PTR [edi+4], eax

; 59   : 		return (this+1);

	lea	eax, DWORD PTR [edi+16]

; 896  : 			CopyChars( PXSTR( pNewData->data() ), pData->nDataLength+1,

	mov	ecx, DWORD PTR [esi-12]
	inc	ecx
	push	ecx
	push	esi
	push	ecx
	push	eax
	call	?CopyChars@?$CSimpleStringT@_W$0A@@ATL@@SAXPA_WIPB_WH@Z ; ATL::CSimpleStringT<wchar_t,0>::CopyChars
	add	esp, 16					; 00000010H
$LN153@Traitement:
; File I:\Projets\AES\AES\AES\Analyse_back_groung.cpp

; 69   : 		CString Local = pt_fichier ->Ajoute_Extension(pt_fichier->Supprime_Extension(chaine), Mess);

	push	DWORD PTR tv2382[ebp]
; File C:\Program Files (x86)\Microsoft Visual Studio\2019\Enterprise\VC\Tools\MSVC\14.23.28105\atlmfc\include\atlsimpstr.h

; 59   : 		return (this+1);

	lea	eax, DWORD PTR [edi+16]

; 780  : 		m_pszData = static_cast< PXSTR >( pData->data() );

	mov	DWORD PTR [ebx], eax
; File I:\Projets\AES\AES\AES\Analyse_back_groung.cpp

; 69   : 		CString Local = pt_fichier ->Ajoute_Extension(pt_fichier->Supprime_Extension(chaine), Mess);

	call	?Supprime_Extension@Manipulation_Fichier@@QAE?AV?$CStringT@_WV?$StrTraitMFC@_WV?$ChTraitsCRT@_W@ATL@@@@@ATL@@V23@@Z ; Manipulation_Fichier::Supprime_Extension
	lea	eax, DWORD PTR _Local$48[ebp]
	mov	BYTE PTR __$EHRec$[ebp+8], 3
	push	eax
	call	?Ajoute_Extension@Manipulation_Fichier@@QAE?AV?$CStringT@_WV?$StrTraitMFC@_WV?$ChTraitsCRT@_W@ATL@@@@@ATL@@V23@0@Z ; Manipulation_Fichier::Ajoute_Extension

; 70   : 		Calcul_temps *pt_time = new Calcul_temps;

	push	24					; 00000018H
	mov	BYTE PTR __$EHRec$[ebp+8], 5
	call	??2@YAPAXI@Z				; operator new
	mov	ebx, eax
	add	esp, 4
	mov	DWORD PTR $T9[ebp], ebx
	test	ebx, ebx
	je	SHORT $LN7@Traitement
; File I:\Projets\AES\AES\AES\Calcul_temps.cpp

; 13   : {

	mov	DWORD PTR [ebx], OFFSET ??_7Calcul_temps@@6B@

; 14   : 
; 15   : 	Start = Stop = 0;

	mov	DWORD PTR [ebx+16], 0
	mov	DWORD PTR [ebx+20], 0
	mov	DWORD PTR [ebx+8], 0
	mov	DWORD PTR [ebx+12], 0
; File I:\Projets\AES\AES\AES\Analyse_back_groung.cpp

; 70   : 		Calcul_temps *pt_time = new Calcul_temps;

	jmp	SHORT $LN8@Traitement
$LN7@Traitement:
	xor	ebx, ebx
$LN8@Traitement:
; File I:\Projets\AES\AES\AES\Calcul_temps.cpp

; 37   : 	errno_t erreur = _ftime_s(&timebuffer);

	lea	eax, DWORD PTR _timebuffer$46[ebp]
	push	eax
	call	__ftime64_s

; 38   : 	return (uint64_t)(((timebuffer.time * 1000) + timebuffer.millitm));

	mov	eax, DWORD PTR _timebuffer$46[ebp+4]
	mov	ecx, 1000				; 000003e8H
	mul	ecx
	mov	esi, eax
	mov	eax, DWORD PTR _timebuffer$46[ebp]
	mul	ecx
	mov	ecx, eax
	add	esi, edx
	movzx	eax, WORD PTR _timebuffer$46[ebp+8]
	cdq
	add	ecx, eax
; File I:\Projets\AES\AES\AES\Analyse_back_groung.cpp

; 72   : 		pt_decode->MyDecryptFile(chaine.GetBuffer(), pt_Ajust->Do(Local).GetBuffer(), (pt_pass->Get_Ressource_huff(IDR_MYFILE)).GetBuffer());

	lea	eax, DWORD PTR $T11[ebp]
	push	eax
; File I:\Projets\AES\AES\AES\Calcul_temps.cpp

; 38   : 	return (uint64_t)(((timebuffer.time * 1000) + timebuffer.millitm));

	adc	esi, edx

; 20   : 	Start = Build();

	mov	DWORD PTR [ebx+8], ecx
	mov	DWORD PTR [ebx+12], esi
; File I:\Projets\AES\AES\AES\Analyse_back_groung.cpp

; 72   : 		pt_decode->MyDecryptFile(chaine.GetBuffer(), pt_Ajust->Do(Local).GetBuffer(), (pt_pass->Get_Ressource_huff(IDR_MYFILE)).GetBuffer());

	call	?Get_Ressource_huff@C_Password@@QAE?AV?$CStringT@_WV?$StrTraitMFC@_WV?$ChTraitsCRT@_W@ATL@@@@@ATL@@H@Z ; C_Password::Get_Ressource_huff
	mov	esi, eax
	mov	BYTE PTR __$EHRec$[ebp+8], 6
; File C:\Program Files (x86)\Microsoft Visual Studio\2019\Enterprise\VC\Tools\MSVC\14.23.28105\atlmfc\include\atlsimpstr.h

; 800  : 		return( reinterpret_cast< CStringData* >( m_pszData )-1 );

	mov	ecx, DWORD PTR [esi]

; 73   : 		return( nRefs > 1 );

	cmp	DWORD PTR [ecx-4], 1

; 499  : 		if( pData->IsShared() )

	jle	SHORT $LN203@Traitement

; 500  : 		{
; 501  : 			Fork( pData->nDataLength );

	push	DWORD PTR [ecx-12]
	mov	ecx, esi
	call	?Fork@?$CSimpleStringT@_W$0A@@ATL@@AAEXH@Z ; ATL::CSimpleStringT<wchar_t,0>::Fork
	mov	ecx, DWORD PTR [esi]
$LN203@Traitement:

; 800  : 		return( reinterpret_cast< CStringData* >( m_pszData )-1 );

	mov	esi, DWORD PTR _Local$48[ebp]
; File I:\Projets\AES\AES\AES\Analyse_back_groung.cpp

; 72   : 		pt_decode->MyDecryptFile(chaine.GetBuffer(), pt_Ajust->Do(Local).GetBuffer(), (pt_pass->Get_Ressource_huff(IDR_MYFILE)).GetBuffer());

	push	ecx
	push	ecx
	mov	DWORD PTR _this$[ebp], esp
; File C:\Program Files (x86)\Microsoft Visual Studio\2019\Enterprise\VC\Tools\MSVC\14.23.28105\atlmfc\include\atlsimpstr.h

; 882  : 		IAtlStringMgr* pNewStringMgr = pData->pStringMgr->Clone();

	mov	ecx, DWORD PTR [esi-16]
	mov	eax, DWORD PTR [ecx]
	call	DWORD PTR [eax+16]

; 69   : 		return nRefs < 0;

	cmp	DWORD PTR [esi-4], 0

; 882  : 		IAtlStringMgr* pNewStringMgr = pData->pStringMgr->Clone();

	mov	ecx, eax

; 69   : 		return nRefs < 0;

	lea	eax, DWORD PTR [esi-4]

; 883  : 		if( !pData->IsLocked() && (pNewStringMgr == pData->pStringMgr) )

	jl	SHORT $LN217@Traitement
	cmp	ecx, DWORD PTR [esi-16]
	jne	SHORT $LN217@Traitement

; 884  : 		{
; 885  : 			pNewData = pData;

	lea	edi, DWORD PTR [esi-16]

; 65   : 		_InterlockedIncrement(&nRefs);

	lock	 inc	 DWORD PTR [eax]

; 887  : 		}

	jmp	SHORT $LN218@Traitement
$LN217@Traitement:

; 888  : 		else
; 889  : 		{
; 890  : 			pNewData = pNewStringMgr->Allocate( pData->nDataLength, sizeof( XCHAR ) );

	mov	eax, DWORD PTR [ecx]
	push	2
	push	DWORD PTR [esi-12]
	call	DWORD PTR [eax]
	mov	edi, eax

; 891  : 			if( pNewData == NULL )

	test	edi, edi
	je	$LN486@Traitement

; 894  : 			}
; 895  : 			pNewData->nDataLength = pData->nDataLength;

	mov	eax, DWORD PTR [esi-12]
	mov	DWORD PTR [edi+4], eax

; 59   : 		return (this+1);

	lea	eax, DWORD PTR [edi+16]

; 896  : 			CopyChars( PXSTR( pNewData->data() ), pData->nDataLength+1,

	mov	ecx, DWORD PTR [esi-12]
	inc	ecx
	push	ecx
	push	esi
	push	ecx
	push	eax
	call	?CopyChars@?$CSimpleStringT@_W$0A@@ATL@@SAXPA_WIPB_WH@Z ; ATL::CSimpleStringT<wchar_t,0>::CopyChars
	add	esp, 16					; 00000010H
$LN218@Traitement:

; 780  : 		m_pszData = static_cast< PXSTR >( pData->data() );

	mov	ecx, DWORD PTR _this$[ebp]

; 59   : 		return (this+1);

	lea	eax, DWORD PTR [edi+16]

; 780  : 		m_pszData = static_cast< PXSTR >( pData->data() );

	mov	DWORD PTR [ecx], eax
; File I:\Projets\AES\AES\AES\Analyse_back_groung.cpp

; 72   : 		pt_decode->MyDecryptFile(chaine.GetBuffer(), pt_Ajust->Do(Local).GetBuffer(), (pt_pass->Get_Ressource_huff(IDR_MYFILE)).GetBuffer());

	lea	eax, DWORD PTR $T15[ebp]
	push	eax
	call	?Do@AjustFileName@@QAE?AV?$CStringT@_WV?$StrTraitMFC@_WV?$ChTraitsCRT@_W@ATL@@@@@ATL@@V23@@Z ; AjustFileName::Do
	mov	edi, eax
	mov	BYTE PTR __$EHRec$[ebp+8], 7
; File C:\Program Files (x86)\Microsoft Visual Studio\2019\Enterprise\VC\Tools\MSVC\14.23.28105\atlmfc\include\atlsimpstr.h

; 800  : 		return( reinterpret_cast< CStringData* >( m_pszData )-1 );

	mov	esi, DWORD PTR [edi]

; 73   : 		return( nRefs > 1 );

	cmp	DWORD PTR [esi-4], 1

; 499  : 		if( pData->IsShared() )

	jle	SHORT $LN236@Traitement

; 500  : 		{
; 501  : 			Fork( pData->nDataLength );

	push	DWORD PTR [esi-12]
	mov	ecx, edi
	call	?Fork@?$CSimpleStringT@_W$0A@@ATL@@AAEXH@Z ; ATL::CSimpleStringT<wchar_t,0>::Fork
	mov	esi, DWORD PTR [edi]
$LN236@Traitement:

; 800  : 		return( reinterpret_cast< CStringData* >( m_pszData )-1 );

	mov	eax, DWORD PTR _chaine$[ebp]

; 73   : 		return( nRefs > 1 );

	cmp	DWORD PTR [eax-4], 1

; 499  : 		if( pData->IsShared() )

	jle	SHORT $LN243@Traitement

; 500  : 		{
; 501  : 			Fork( pData->nDataLength );

	push	DWORD PTR [eax-12]
	lea	ecx, DWORD PTR _chaine$[ebp]
	call	?Fork@?$CSimpleStringT@_W$0A@@ATL@@AAEXH@Z ; ATL::CSimpleStringT<wchar_t,0>::Fork
	mov	eax, DWORD PTR _chaine$[ebp]
$LN243@Traitement:
; File I:\Projets\AES\AES\AES\Analyse_back_groung.cpp

; 72   : 		pt_decode->MyDecryptFile(chaine.GetBuffer(), pt_Ajust->Do(Local).GetBuffer(), (pt_pass->Get_Ressource_huff(IDR_MYFILE)).GetBuffer());

	push	esi
	push	eax
	mov	eax, DWORD PTR _this$GSCopy$1$[ebp]
	mov	ecx, DWORD PTR [eax+36]
	call	?MyDecryptFile@C_AES_Decode@@QAE_NPA_W00@Z ; C_AES_Decode::MyDecryptFile
	mov	BYTE PTR __$EHRec$[ebp+8], 6
; File C:\Program Files (x86)\Microsoft Visual Studio\2019\Enterprise\VC\Tools\MSVC\14.23.28105\atlmfc\include\atlsimpstr.h

; 88   : 		if( _InterlockedDecrement( &nRefs ) <= 0 )

	or	edi, -1

; 800  : 		return( reinterpret_cast< CStringData* >( m_pszData )-1 );

	mov	edx, DWORD PTR $T15[ebp]

; 88   : 		if( _InterlockedDecrement( &nRefs ) <= 0 )

	mov	eax, edi

; 800  : 		return( reinterpret_cast< CStringData* >( m_pszData )-1 );

	add	edx, -16				; fffffff0H

; 88   : 		if( _InterlockedDecrement( &nRefs ) <= 0 )

	lock	 xadd	 DWORD PTR [edx+12], eax
	dec	eax
	test	eax, eax
	jg	SHORT $LN256@Traitement

; 89   : 		{
; 90   : 			pStringMgr->Free( this );

	mov	ecx, DWORD PTR [edx]
	push	edx
	mov	eax, DWORD PTR [ecx]
	call	DWORD PTR [eax+4]
$LN256@Traitement:
; File I:\Projets\AES\AES\AES\Analyse_back_groung.cpp

; 72   : 		pt_decode->MyDecryptFile(chaine.GetBuffer(), pt_Ajust->Do(Local).GetBuffer(), (pt_pass->Get_Ressource_huff(IDR_MYFILE)).GetBuffer());

	mov	BYTE PTR __$EHRec$[ebp+8], 5
; File C:\Program Files (x86)\Microsoft Visual Studio\2019\Enterprise\VC\Tools\MSVC\14.23.28105\atlmfc\include\atlsimpstr.h

; 88   : 		if( _InterlockedDecrement( &nRefs ) <= 0 )

	mov	eax, edi

; 800  : 		return( reinterpret_cast< CStringData* >( m_pszData )-1 );

	mov	edx, DWORD PTR $T11[ebp]
	add	edx, -16				; fffffff0H

; 88   : 		if( _InterlockedDecrement( &nRefs ) <= 0 )

	lock	 xadd	 DWORD PTR [edx+12], eax
	dec	eax
	test	eax, eax
	jg	SHORT $LN265@Traitement

; 89   : 		{
; 90   : 			pStringMgr->Free( this );

	mov	ecx, DWORD PTR [edx]
	push	edx
	mov	eax, DWORD PTR [ecx]
	call	DWORD PTR [eax+4]
$LN265@Traitement:
; File I:\Projets\AES\AES\AES\Calcul_temps.cpp

; 37   : 	errno_t erreur = _ftime_s(&timebuffer);

	lea	eax, DWORD PTR _timebuffer$45[ebp]
	push	eax
	call	__ftime64_s

; 38   : 	return (uint64_t)(((timebuffer.time * 1000) + timebuffer.millitm));

	mov	eax, DWORD PTR _timebuffer$45[ebp+4]
	mov	ecx, 1000				; 000003e8H
	mul	ecx
	add	esp, 4
	mov	esi, eax
	mov	eax, DWORD PTR _timebuffer$45[ebp]
	mul	ecx
	mov	ecx, eax
	add	esi, edx
	movzx	eax, WORD PTR _timebuffer$45[ebp+8]
	cdq
	add	ecx, eax
; File I:\Projets\AES\AES\AES\Analyse_back_groung.cpp

; 74   : 		Calcul = pt_time->Read_time();

	mov	eax, DWORD PTR _this$GSCopy$1$[ebp]
; File I:\Projets\AES\AES\AES\Calcul_temps.cpp

; 25   : 	Stop =  Build();

	mov	DWORD PTR [ebx+16], ecx

; 38   : 	return (uint64_t)(((timebuffer.time * 1000) + timebuffer.millitm));

	adc	esi, edx

; 30   : 	return (Stop - Start);

	sub	ecx, DWORD PTR [ebx+8]

; 25   : 	Stop =  Build();

	mov	DWORD PTR [ebx+20], esi

; 30   : 	return (Stop - Start);

	sbb	esi, DWORD PTR [ebx+12]
; File I:\Projets\AES\AES\AES\Analyse_back_groung.cpp

; 74   : 		Calcul = pt_time->Read_time();

	mov	DWORD PTR [eax], ecx
	mov	DWORD PTR [eax+4], esi

; 75   : 		delete pt_Ajust;

	mov	eax, DWORD PTR $T41[ebp]
	test	eax, eax
	je	SHORT $LN274@Traitement
	push	1
	push	eax
	call	??3@YAXPAXI@Z				; operator delete
	add	esp, 8
$LN274@Traitement:

; 76   : 	}

	mov	BYTE PTR __$EHRec$[ebp+8], 3
; File C:\Program Files (x86)\Microsoft Visual Studio\2019\Enterprise\VC\Tools\MSVC\14.23.28105\atlmfc\include\atlsimpstr.h

; 88   : 		if( _InterlockedDecrement( &nRefs ) <= 0 )

	mov	eax, edi

; 800  : 		return( reinterpret_cast< CStringData* >( m_pszData )-1 );

	mov	edx, DWORD PTR _Local$48[ebp]
	add	edx, -16				; fffffff0H

; 88   : 		if( _InterlockedDecrement( &nRefs ) <= 0 )

	lock	 xadd	 DWORD PTR [edx+12], eax
	dec	eax
	test	eax, eax
	jg	SHORT $LN283@Traitement

; 89   : 		{
; 90   : 			pStringMgr->Free( this );

	mov	ecx, DWORD PTR [edx]
	push	edx
	mov	eax, DWORD PTR [ecx]
	call	DWORD PTR [eax+4]
$LN283@Traitement:
; File I:\Projets\AES\AES\AES\Analyse_back_groung.cpp

; 76   : 	}

	mov	BYTE PTR __$EHRec$[ebp+8], 0
; File C:\Program Files (x86)\Microsoft Visual Studio\2019\Enterprise\VC\Tools\MSVC\14.23.28105\atlmfc\include\atlsimpstr.h

; 88   : 		if( _InterlockedDecrement( &nRefs ) <= 0 )

	mov	edx, DWORD PTR _pData$1$[ebp]
; File I:\Projets\AES\AES\AES\Analyse_back_groung.cpp

; 76   : 	}

	jmp	$LN479@Traitement
$LN2@Traitement:

; 80   : 		AjustFileName *pt_Ajust = new AjustFileName;

	call	??2@YAPAXI@Z				; operator new
	mov	ebx, eax
	add	esp, 4
	mov	DWORD PTR $T40[ebp], ebx
	mov	DWORD PTR $T21[ebp], ebx
	mov	BYTE PTR __$EHRec$[ebp+8], 8
	test	ebx, ebx
	je	SHORT $LN11@Traitement
; File C:\Program Files (x86)\Microsoft Visual Studio\2019\Enterprise\VC\Tools\MSVC\14.23.28105\atlmfc\include\afxcoll.inl

; 286  : 	{ SetSize(0); }

	push	-1
	push	0
	mov	ecx, OFFSET ?List@@3VCStringArray@@A	; List
	call	?SetSize@CStringArray@@QAEXHH@Z		; CStringArray::SetSize
; File I:\Projets\AES\AES\AES\Analyse_back_groung.cpp

; 80   : 		AjustFileName *pt_Ajust = new AjustFileName;

	jmp	SHORT $LN12@Traitement
$LN11@Traitement:
	mov	DWORD PTR $T40[ebp], 0
$LN12@Traitement:
; File C:\Program Files (x86)\Microsoft Visual Studio\2019\Enterprise\VC\Tools\MSVC\14.23.28105\atlmfc\include\atlsimpstr.h

; 800  : 		return( reinterpret_cast< CStringData* >( m_pszData )-1 );

	mov	eax, DWORD PTR _this$GSCopy$1$[ebp]
; File I:\Projets\AES\AES\AES\Analyse_back_groung.cpp

; 80   : 		AjustFileName *pt_Ajust = new AjustFileName;

	mov	BYTE PTR __$EHRec$[ebp+8], 0

; 81   : 		CString Local = pt_fichier->Ajoute_Extension(pt_fichier->Supprime_Extension(chaine), ext);

	push	ecx
	mov	DWORD PTR _this$[ebp], esp
; File C:\Program Files (x86)\Microsoft Visual Studio\2019\Enterprise\VC\Tools\MSVC\14.23.28105\atlmfc\include\atlsimpstr.h

; 800  : 		return( reinterpret_cast< CStringData* >( m_pszData )-1 );

	mov	ebx, DWORD PTR [eax+44]
	mov	DWORD PTR _Local$47[ebp], 0
	lea	esi, DWORD PTR [ebx-16]

; 882  : 		IAtlStringMgr* pNewStringMgr = pData->pStringMgr->Clone();

	mov	ecx, DWORD PTR [esi]
; File I:\Projets\AES\AES\AES\Analyse_back_groung.cpp

; 81   : 		CString Local = pt_fichier->Ajoute_Extension(pt_fichier->Supprime_Extension(chaine), ext);

	mov	DWORD PTR $T23[ebp], esp
; File C:\Program Files (x86)\Microsoft Visual Studio\2019\Enterprise\VC\Tools\MSVC\14.23.28105\atlmfc\include\atlsimpstr.h

; 882  : 		IAtlStringMgr* pNewStringMgr = pData->pStringMgr->Clone();

	mov	eax, DWORD PTR [ecx]
	call	DWORD PTR [eax+16]

; 69   : 		return nRefs < 0;

	cmp	DWORD PTR [esi+12], 0

; 882  : 		IAtlStringMgr* pNewStringMgr = pData->pStringMgr->Clone();

	mov	ecx, eax

; 69   : 		return nRefs < 0;

	lea	eax, DWORD PTR [esi+12]

; 883  : 		if( !pData->IsLocked() && (pNewStringMgr == pData->pStringMgr) )

	jl	SHORT $LN308@Traitement
	cmp	ecx, DWORD PTR [esi]
	jne	SHORT $LN308@Traitement

; 65   : 		_InterlockedIncrement(&nRefs);

	lock	 inc	 DWORD PTR [eax]

; 887  : 		}

	jmp	SHORT $LN309@Traitement
$LN308@Traitement:

; 888  : 		else
; 889  : 		{
; 890  : 			pNewData = pNewStringMgr->Allocate( pData->nDataLength, sizeof( XCHAR ) );

	mov	eax, DWORD PTR [ecx]
	lea	edi, DWORD PTR [esi+4]
	push	2
	push	DWORD PTR [edi]
	call	DWORD PTR [eax]
	mov	esi, eax

; 891  : 			if( pNewData == NULL )

	test	esi, esi
	je	$LN487@Traitement

; 894  : 			}
; 895  : 			pNewData->nDataLength = pData->nDataLength;

	mov	eax, DWORD PTR [edi]
	mov	DWORD PTR [esi+4], eax

; 896  : 			CopyChars( PXSTR( pNewData->data() ), pData->nDataLength+1,

	mov	eax, DWORD PTR [edi]
	inc	eax
	push	eax
	push	ebx
	push	eax

; 59   : 		return (this+1);

	lea	eax, DWORD PTR [esi+16]

; 896  : 			CopyChars( PXSTR( pNewData->data() ), pData->nDataLength+1,

	push	eax
	call	?CopyChars@?$CSimpleStringT@_W$0A@@ATL@@SAXPA_WIPB_WH@Z ; ATL::CSimpleStringT<wchar_t,0>::CopyChars
	add	esp, 16					; 00000010H
$LN309@Traitement:

; 780  : 		m_pszData = static_cast< PXSTR >( pData->data() );

	mov	ecx, DWORD PTR _this$[ebp]

; 59   : 		return (this+1);

	lea	eax, DWORD PTR [esi+16]

; 780  : 		m_pszData = static_cast< PXSTR >( pData->data() );

	mov	DWORD PTR [ecx], eax
; File I:\Projets\AES\AES\AES\Analyse_back_groung.cpp

; 81   : 		CString Local = pt_fichier->Ajoute_Extension(pt_fichier->Supprime_Extension(chaine), ext);

	mov	BYTE PTR __$EHRec$[ebp+8], 9
	push	ecx
	mov	DWORD PTR tv2380[ebp], esp
	push	ecx
	mov	ebx, esp
	mov	DWORD PTR _this$[ebp], ebx
; File C:\Program Files (x86)\Microsoft Visual Studio\2019\Enterprise\VC\Tools\MSVC\14.23.28105\atlmfc\include\atlsimpstr.h

; 800  : 		return( reinterpret_cast< CStringData* >( m_pszData )-1 );

	mov	esi, DWORD PTR _chaine$[ebp]

; 882  : 		IAtlStringMgr* pNewStringMgr = pData->pStringMgr->Clone();

	mov	ecx, DWORD PTR [esi-16]
	mov	eax, DWORD PTR [ecx]
	call	DWORD PTR [eax+16]

; 69   : 		return nRefs < 0;

	cmp	DWORD PTR [esi-4], 0

; 882  : 		IAtlStringMgr* pNewStringMgr = pData->pStringMgr->Clone();

	mov	ecx, eax

; 69   : 		return nRefs < 0;

	lea	eax, DWORD PTR [esi-4]

; 883  : 		if( !pData->IsLocked() && (pNewStringMgr == pData->pStringMgr) )

	jl	SHORT $LN334@Traitement
	cmp	ecx, DWORD PTR [esi-16]
	jne	SHORT $LN334@Traitement

; 884  : 		{
; 885  : 			pNewData = pData;

	lea	edi, DWORD PTR [esi-16]

; 65   : 		_InterlockedIncrement(&nRefs);

	lock	 inc	 DWORD PTR [eax]

; 887  : 		}

	jmp	SHORT $LN335@Traitement
$LN334@Traitement:

; 888  : 		else
; 889  : 		{
; 890  : 			pNewData = pNewStringMgr->Allocate( pData->nDataLength, sizeof( XCHAR ) );

	mov	eax, DWORD PTR [ecx]
	push	2
	push	DWORD PTR [esi-12]
	call	DWORD PTR [eax]
	mov	edi, eax

; 891  : 			if( pNewData == NULL )

	test	edi, edi
	je	$LN488@Traitement

; 894  : 			}
; 895  : 			pNewData->nDataLength = pData->nDataLength;

	mov	eax, DWORD PTR [esi-12]
	mov	DWORD PTR [edi+4], eax

; 59   : 		return (this+1);

	lea	eax, DWORD PTR [edi+16]

; 896  : 			CopyChars( PXSTR( pNewData->data() ), pData->nDataLength+1,

	mov	ecx, DWORD PTR [esi-12]
	inc	ecx
	push	ecx
	push	esi
	push	ecx
	push	eax
	call	?CopyChars@?$CSimpleStringT@_W$0A@@ATL@@SAXPA_WIPB_WH@Z ; ATL::CSimpleStringT<wchar_t,0>::CopyChars
	add	esp, 16					; 00000010H
$LN335@Traitement:
; File I:\Projets\AES\AES\AES\Analyse_back_groung.cpp

; 81   : 		CString Local = pt_fichier->Ajoute_Extension(pt_fichier->Supprime_Extension(chaine), ext);

	push	DWORD PTR tv2380[ebp]
; File C:\Program Files (x86)\Microsoft Visual Studio\2019\Enterprise\VC\Tools\MSVC\14.23.28105\atlmfc\include\atlsimpstr.h

; 59   : 		return (this+1);

	lea	eax, DWORD PTR [edi+16]

; 780  : 		m_pszData = static_cast< PXSTR >( pData->data() );

	mov	DWORD PTR [ebx], eax
; File I:\Projets\AES\AES\AES\Analyse_back_groung.cpp

; 81   : 		CString Local = pt_fichier->Ajoute_Extension(pt_fichier->Supprime_Extension(chaine), ext);

	call	?Supprime_Extension@Manipulation_Fichier@@QAE?AV?$CStringT@_WV?$StrTraitMFC@_WV?$ChTraitsCRT@_W@ATL@@@@@ATL@@V23@@Z ; Manipulation_Fichier::Supprime_Extension
	lea	eax, DWORD PTR _Local$47[ebp]
	mov	BYTE PTR __$EHRec$[ebp+8], 0
	push	eax
	call	?Ajoute_Extension@Manipulation_Fichier@@QAE?AV?$CStringT@_WV?$StrTraitMFC@_WV?$ChTraitsCRT@_W@ATL@@@@@ATL@@V23@0@Z ; Manipulation_Fichier::Ajoute_Extension

; 82   : 		Calcul_temps *pt_time = new Calcul_temps;

	push	24					; 00000018H
	mov	BYTE PTR __$EHRec$[ebp+8], 10		; 0000000aH
	call	??2@YAPAXI@Z				; operator new
	mov	ebx, eax
	add	esp, 4
	mov	DWORD PTR $T26[ebp], ebx
	test	ebx, ebx
	je	SHORT $LN13@Traitement
; File I:\Projets\AES\AES\AES\Calcul_temps.cpp

; 13   : {

	mov	DWORD PTR [ebx], OFFSET ??_7Calcul_temps@@6B@

; 14   : 
; 15   : 	Start = Stop = 0;

	mov	DWORD PTR [ebx+16], 0
	mov	DWORD PTR [ebx+20], 0
	mov	DWORD PTR [ebx+8], 0
	mov	DWORD PTR [ebx+12], 0
; File I:\Projets\AES\AES\AES\Analyse_back_groung.cpp

; 82   : 		Calcul_temps *pt_time = new Calcul_temps;

	jmp	SHORT $LN14@Traitement
$LN13@Traitement:
	xor	ebx, ebx
$LN14@Traitement:
; File I:\Projets\AES\AES\AES\Calcul_temps.cpp

; 37   : 	errno_t erreur = _ftime_s(&timebuffer);

	lea	eax, DWORD PTR _timebuffer$44[ebp]
	push	eax
	call	__ftime64_s

; 38   : 	return (uint64_t)(((timebuffer.time * 1000) + timebuffer.millitm));

	mov	eax, DWORD PTR _timebuffer$44[ebp+4]
	mov	ecx, 1000				; 000003e8H
	mul	ecx
	mov	esi, eax
	mov	eax, DWORD PTR _timebuffer$44[ebp]
	mul	ecx
	mov	ecx, eax
	add	esi, edx
	movzx	eax, WORD PTR _timebuffer$44[ebp+8]
	cdq
	add	ecx, eax
; File I:\Projets\AES\AES\AES\Analyse_back_groung.cpp

; 84   : 		pt_encode->MyEncryptFile(chaine.GetBuffer(), pt_Ajust->Do(Local).GetBuffer(), (pt_pass->Get_Ressource_huff(IDR_MYFILE)).GetBuffer());

	lea	eax, DWORD PTR $T28[ebp]
	push	eax
; File I:\Projets\AES\AES\AES\Calcul_temps.cpp

; 38   : 	return (uint64_t)(((timebuffer.time * 1000) + timebuffer.millitm));

	adc	esi, edx

; 20   : 	Start = Build();

	mov	DWORD PTR [ebx+8], ecx
	mov	DWORD PTR [ebx+12], esi
; File I:\Projets\AES\AES\AES\Analyse_back_groung.cpp

; 84   : 		pt_encode->MyEncryptFile(chaine.GetBuffer(), pt_Ajust->Do(Local).GetBuffer(), (pt_pass->Get_Ressource_huff(IDR_MYFILE)).GetBuffer());

	call	?Get_Ressource_huff@C_Password@@QAE?AV?$CStringT@_WV?$StrTraitMFC@_WV?$ChTraitsCRT@_W@ATL@@@@@ATL@@H@Z ; C_Password::Get_Ressource_huff
	mov	esi, eax
	mov	BYTE PTR __$EHRec$[ebp+8], 11		; 0000000bH
; File C:\Program Files (x86)\Microsoft Visual Studio\2019\Enterprise\VC\Tools\MSVC\14.23.28105\atlmfc\include\atlsimpstr.h

; 800  : 		return( reinterpret_cast< CStringData* >( m_pszData )-1 );

	mov	ecx, DWORD PTR [esi]

; 73   : 		return( nRefs > 1 );

	cmp	DWORD PTR [ecx-4], 1

; 499  : 		if( pData->IsShared() )

	jle	SHORT $LN385@Traitement

; 500  : 		{
; 501  : 			Fork( pData->nDataLength );

	push	DWORD PTR [ecx-12]
	mov	ecx, esi
	call	?Fork@?$CSimpleStringT@_W$0A@@ATL@@AAEXH@Z ; ATL::CSimpleStringT<wchar_t,0>::Fork
	mov	ecx, DWORD PTR [esi]
$LN385@Traitement:
; File I:\Projets\AES\AES\AES\Analyse_back_groung.cpp

; 84   : 		pt_encode->MyEncryptFile(chaine.GetBuffer(), pt_Ajust->Do(Local).GetBuffer(), (pt_pass->Get_Ressource_huff(IDR_MYFILE)).GetBuffer());

	push	ecx
	push	ecx
	mov	DWORD PTR _this$[ebp], esp
; File C:\Program Files (x86)\Microsoft Visual Studio\2019\Enterprise\VC\Tools\MSVC\14.23.28105\atlmfc\include\atlsimpstr.h

; 800  : 		return( reinterpret_cast< CStringData* >( m_pszData )-1 );

	mov	esi, DWORD PTR _Local$47[ebp]

; 882  : 		IAtlStringMgr* pNewStringMgr = pData->pStringMgr->Clone();

	mov	ecx, DWORD PTR [esi-16]
	mov	eax, DWORD PTR [ecx]
	call	DWORD PTR [eax+16]

; 69   : 		return nRefs < 0;

	cmp	DWORD PTR [esi-4], 0

; 882  : 		IAtlStringMgr* pNewStringMgr = pData->pStringMgr->Clone();

	mov	ecx, eax

; 69   : 		return nRefs < 0;

	lea	eax, DWORD PTR [esi-4]

; 883  : 		if( !pData->IsLocked() && (pNewStringMgr == pData->pStringMgr) )

	jl	SHORT $LN399@Traitement
	cmp	ecx, DWORD PTR [esi-16]
	jne	SHORT $LN399@Traitement

; 884  : 		{
; 885  : 			pNewData = pData;

	lea	edi, DWORD PTR [esi-16]

; 65   : 		_InterlockedIncrement(&nRefs);

	lock	 inc	 DWORD PTR [eax]

; 887  : 		}

	jmp	SHORT $LN400@Traitement
$LN399@Traitement:

; 888  : 		else
; 889  : 		{
; 890  : 			pNewData = pNewStringMgr->Allocate( pData->nDataLength, sizeof( XCHAR ) );

	mov	eax, DWORD PTR [ecx]
	push	2
	push	DWORD PTR [esi-12]
	call	DWORD PTR [eax]
	mov	edi, eax

; 891  : 			if( pNewData == NULL )

	test	edi, edi
	je	$LN489@Traitement

; 894  : 			}
; 895  : 			pNewData->nDataLength = pData->nDataLength;

	mov	eax, DWORD PTR [esi-12]
	mov	DWORD PTR [edi+4], eax

; 59   : 		return (this+1);

	lea	eax, DWORD PTR [edi+16]

; 896  : 			CopyChars( PXSTR( pNewData->data() ), pData->nDataLength+1,

	mov	ecx, DWORD PTR [esi-12]
	inc	ecx
	push	ecx
	push	esi
	push	ecx
	push	eax
	call	?CopyChars@?$CSimpleStringT@_W$0A@@ATL@@SAXPA_WIPB_WH@Z ; ATL::CSimpleStringT<wchar_t,0>::CopyChars
	add	esp, 16					; 00000010H
$LN400@Traitement:

; 780  : 		m_pszData = static_cast< PXSTR >( pData->data() );

	mov	ecx, DWORD PTR _this$[ebp]

; 59   : 		return (this+1);

	lea	eax, DWORD PTR [edi+16]

; 780  : 		m_pszData = static_cast< PXSTR >( pData->data() );

	mov	DWORD PTR [ecx], eax
; File I:\Projets\AES\AES\AES\Analyse_back_groung.cpp

; 84   : 		pt_encode->MyEncryptFile(chaine.GetBuffer(), pt_Ajust->Do(Local).GetBuffer(), (pt_pass->Get_Ressource_huff(IDR_MYFILE)).GetBuffer());

	lea	eax, DWORD PTR $T32[ebp]
	push	eax
	call	?Do@AjustFileName@@QAE?AV?$CStringT@_WV?$StrTraitMFC@_WV?$ChTraitsCRT@_W@ATL@@@@@ATL@@V23@@Z ; AjustFileName::Do
	mov	edi, eax
	mov	BYTE PTR __$EHRec$[ebp+8], 12		; 0000000cH
; File C:\Program Files (x86)\Microsoft Visual Studio\2019\Enterprise\VC\Tools\MSVC\14.23.28105\atlmfc\include\atlsimpstr.h

; 800  : 		return( reinterpret_cast< CStringData* >( m_pszData )-1 );

	mov	esi, DWORD PTR [edi]

; 73   : 		return( nRefs > 1 );

	cmp	DWORD PTR [esi-4], 1

; 499  : 		if( pData->IsShared() )

	jle	SHORT $LN418@Traitement

; 500  : 		{
; 501  : 			Fork( pData->nDataLength );

	push	DWORD PTR [esi-12]
	mov	ecx, edi
	call	?Fork@?$CSimpleStringT@_W$0A@@ATL@@AAEXH@Z ; ATL::CSimpleStringT<wchar_t,0>::Fork
	mov	esi, DWORD PTR [edi]
$LN418@Traitement:

; 800  : 		return( reinterpret_cast< CStringData* >( m_pszData )-1 );

	mov	eax, DWORD PTR _chaine$[ebp]

; 73   : 		return( nRefs > 1 );

	cmp	DWORD PTR [eax-4], 1

; 499  : 		if( pData->IsShared() )

	jle	SHORT $LN425@Traitement

; 500  : 		{
; 501  : 			Fork( pData->nDataLength );

	push	DWORD PTR [eax-12]
	lea	ecx, DWORD PTR _chaine$[ebp]
	call	?Fork@?$CSimpleStringT@_W$0A@@ATL@@AAEXH@Z ; ATL::CSimpleStringT<wchar_t,0>::Fork
	mov	eax, DWORD PTR _chaine$[ebp]
$LN425@Traitement:
; File I:\Projets\AES\AES\AES\Analyse_back_groung.cpp

; 84   : 		pt_encode->MyEncryptFile(chaine.GetBuffer(), pt_Ajust->Do(Local).GetBuffer(), (pt_pass->Get_Ressource_huff(IDR_MYFILE)).GetBuffer());

	push	esi
	push	eax
	mov	eax, DWORD PTR _this$GSCopy$1$[ebp]
	mov	ecx, DWORD PTR [eax+32]
	call	?MyEncryptFile@C_AES_Encode@@QAE_NPA_W00@Z ; C_AES_Encode::MyEncryptFile
	mov	BYTE PTR __$EHRec$[ebp+8], 11		; 0000000bH
; File C:\Program Files (x86)\Microsoft Visual Studio\2019\Enterprise\VC\Tools\MSVC\14.23.28105\atlmfc\include\atlsimpstr.h

; 88   : 		if( _InterlockedDecrement( &nRefs ) <= 0 )

	or	edi, -1

; 800  : 		return( reinterpret_cast< CStringData* >( m_pszData )-1 );

	mov	edx, DWORD PTR $T32[ebp]

; 88   : 		if( _InterlockedDecrement( &nRefs ) <= 0 )

	mov	eax, edi

; 800  : 		return( reinterpret_cast< CStringData* >( m_pszData )-1 );

	add	edx, -16				; fffffff0H

; 88   : 		if( _InterlockedDecrement( &nRefs ) <= 0 )

	lock	 xadd	 DWORD PTR [edx+12], eax
	dec	eax
	test	eax, eax
	jg	SHORT $LN438@Traitement

; 89   : 		{
; 90   : 			pStringMgr->Free( this );

	mov	ecx, DWORD PTR [edx]
	push	edx
	mov	eax, DWORD PTR [ecx]
	call	DWORD PTR [eax+4]
$LN438@Traitement:
; File I:\Projets\AES\AES\AES\Analyse_back_groung.cpp

; 84   : 		pt_encode->MyEncryptFile(chaine.GetBuffer(), pt_Ajust->Do(Local).GetBuffer(), (pt_pass->Get_Ressource_huff(IDR_MYFILE)).GetBuffer());

	mov	BYTE PTR __$EHRec$[ebp+8], 10		; 0000000aH
; File C:\Program Files (x86)\Microsoft Visual Studio\2019\Enterprise\VC\Tools\MSVC\14.23.28105\atlmfc\include\atlsimpstr.h

; 88   : 		if( _InterlockedDecrement( &nRefs ) <= 0 )

	mov	eax, edi

; 800  : 		return( reinterpret_cast< CStringData* >( m_pszData )-1 );

	mov	edx, DWORD PTR $T28[ebp]
	add	edx, -16				; fffffff0H

; 88   : 		if( _InterlockedDecrement( &nRefs ) <= 0 )

	lock	 xadd	 DWORD PTR [edx+12], eax
	dec	eax
	test	eax, eax
	jg	SHORT $LN447@Traitement

; 89   : 		{
; 90   : 			pStringMgr->Free( this );

	mov	ecx, DWORD PTR [edx]
	push	edx
	mov	eax, DWORD PTR [ecx]
	call	DWORD PTR [eax+4]
$LN447@Traitement:
; File I:\Projets\AES\AES\AES\Calcul_temps.cpp

; 37   : 	errno_t erreur = _ftime_s(&timebuffer);

	lea	eax, DWORD PTR _timebuffer$43[ebp]
	push	eax
	call	__ftime64_s

; 38   : 	return (uint64_t)(((timebuffer.time * 1000) + timebuffer.millitm));

	mov	eax, DWORD PTR _timebuffer$43[ebp+4]
	mov	ecx, 1000				; 000003e8H
	mul	ecx
	add	esp, 4
	mov	esi, eax
	mov	eax, DWORD PTR _timebuffer$43[ebp]
	mul	ecx
	mov	ecx, eax
	add	esi, edx
	movzx	eax, WORD PTR _timebuffer$43[ebp+8]
	cdq
	add	ecx, eax
; File I:\Projets\AES\AES\AES\Analyse_back_groung.cpp

; 86   : 		Calcul = pt_time->Read_time();

	mov	eax, DWORD PTR _this$GSCopy$1$[ebp]
; File I:\Projets\AES\AES\AES\Calcul_temps.cpp

; 25   : 	Stop =  Build();

	mov	DWORD PTR [ebx+16], ecx

; 38   : 	return (uint64_t)(((timebuffer.time * 1000) + timebuffer.millitm));

	adc	esi, edx

; 30   : 	return (Stop - Start);

	sub	ecx, DWORD PTR [ebx+8]

; 25   : 	Stop =  Build();

	mov	DWORD PTR [ebx+20], esi

; 30   : 	return (Stop - Start);

	sbb	esi, DWORD PTR [ebx+12]
; File I:\Projets\AES\AES\AES\Analyse_back_groung.cpp

; 86   : 		Calcul = pt_time->Read_time();

	mov	DWORD PTR [eax], ecx
	mov	DWORD PTR [eax+4], esi

; 87   : 		delete pt_Ajust;

	mov	eax, DWORD PTR $T40[ebp]
	test	eax, eax
	je	SHORT $LN456@Traitement
	push	1
	push	eax
	call	??3@YAXPAXI@Z				; operator delete
	add	esp, 8
$LN456@Traitement:

; 88   : 	}

	mov	BYTE PTR __$EHRec$[ebp+8], 0
; File C:\Program Files (x86)\Microsoft Visual Studio\2019\Enterprise\VC\Tools\MSVC\14.23.28105\atlmfc\include\atlsimpstr.h

; 800  : 		return( reinterpret_cast< CStringData* >( m_pszData )-1 );

	mov	edx, DWORD PTR _Local$47[ebp]
	add	edx, -16				; fffffff0H
$LN479@Traitement:
; File I:\Projets\AES\AES\AES\Analyse_back_groung.cpp

; 90   : 	return true;

	mov	eax, edi
	lock	 xadd	 DWORD PTR [edx+12], eax
	dec	eax
	test	eax, eax
	jg	SHORT $LN465@Traitement
	mov	ecx, DWORD PTR [edx]
	push	edx
	mov	eax, DWORD PTR [ecx]
	call	DWORD PTR [eax+4]
$LN465@Traitement:
	mov	DWORD PTR __$EHRec$[ebp+8], -1
; File C:\Program Files (x86)\Microsoft Visual Studio\2019\Enterprise\VC\Tools\MSVC\14.23.28105\atlmfc\include\atlsimpstr.h

; 800  : 		return( reinterpret_cast< CStringData* >( m_pszData )-1 );

	mov	edx, DWORD PTR _chaine$[ebp]
	add	edx, -16				; fffffff0H

; 88   : 		if( _InterlockedDecrement( &nRefs ) <= 0 )

	lock	 xadd	 DWORD PTR [edx+12], edi
	dec	edi
	test	edi, edi
	jg	SHORT $LN474@Traitement

; 89   : 		{
; 90   : 			pStringMgr->Free( this );

	mov	ecx, DWORD PTR [edx]
	push	edx
	mov	eax, DWORD PTR [ecx]
	call	DWORD PTR [eax+4]
$LN474@Traitement:
; File I:\Projets\AES\AES\AES\Analyse_back_groung.cpp

; 90   : 	return true;

	mov	al, 1

; 91   : }

	mov	ecx, DWORD PTR __$EHRec$[ebp]
	mov	DWORD PTR fs:0, ecx
	pop	ecx
	pop	edi
	pop	esi
	pop	ebx
	mov	ecx, DWORD PTR __$ArrayPad$[ebp]
	xor	ecx, ebp
	call	@__security_check_cookie@4
	mov	esp, ebp
	pop	ebp
	ret	4
$LN481@Traitement:
; File C:\Program Files (x86)\Microsoft Visual Studio\2019\Enterprise\VC\Tools\MSVC\14.23.28105\atlmfc\include\atlsimpstr.h

; 893  : 				ThrowMemoryException();

	call	?ThrowMemoryException@?$CSimpleStringT@_W$0A@@ATL@@KAXXZ ; ATL::CSimpleStringT<wchar_t,0>::ThrowMemoryException
$LN482@Traitement:
	call	?ThrowMemoryException@?$CSimpleStringT@_W$0A@@ATL@@KAXXZ ; ATL::CSimpleStringT<wchar_t,0>::ThrowMemoryException
$LN483@Traitement:

; 205  : 		ATLENSURE( pStringMgr != NULL );

	push	-2147467259				; 80004005H
	call	?AtlThrowImpl@ATL@@YGXJ@Z		; ATL::AtlThrowImpl
$LN484@Traitement:

; 893  : 				ThrowMemoryException();

	call	?ThrowMemoryException@?$CSimpleStringT@_W$0A@@ATL@@KAXXZ ; ATL::CSimpleStringT<wchar_t,0>::ThrowMemoryException
$LN485@Traitement:
	call	?ThrowMemoryException@?$CSimpleStringT@_W$0A@@ATL@@KAXXZ ; ATL::CSimpleStringT<wchar_t,0>::ThrowMemoryException
$LN486@Traitement:
	call	?ThrowMemoryException@?$CSimpleStringT@_W$0A@@ATL@@KAXXZ ; ATL::CSimpleStringT<wchar_t,0>::ThrowMemoryException
$LN487@Traitement:
	call	?ThrowMemoryException@?$CSimpleStringT@_W$0A@@ATL@@KAXXZ ; ATL::CSimpleStringT<wchar_t,0>::ThrowMemoryException
$LN488@Traitement:
	call	?ThrowMemoryException@?$CSimpleStringT@_W$0A@@ATL@@KAXXZ ; ATL::CSimpleStringT<wchar_t,0>::ThrowMemoryException
$LN489@Traitement:
	call	?ThrowMemoryException@?$CSimpleStringT@_W$0A@@ATL@@KAXXZ ; ATL::CSimpleStringT<wchar_t,0>::ThrowMemoryException
$LN477@Traitement:
	int	3
_TEXT	ENDS
;	COMDAT text$x
text$x	SEGMENT
__unwindfunclet$?Traitement_fichier@Analyse_back_groung@@QAE_NV?$CStringT@_WV?$StrTraitMFC@_WV?$ChTraitsCRT@_W@ATL@@@@@ATL@@@Z$0:
	lea	ecx, DWORD PTR _chaine$[ebp]
	jmp	??1?$CStringT@_WV?$StrTraitMFC@_WV?$ChTraitsCRT@_W@ATL@@@@@ATL@@QAE@XZ ; ATL::CStringT<wchar_t,StrTraitMFC<wchar_t,ATL::ChTraitsCRT<wchar_t> > >::~CStringT<wchar_t,StrTraitMFC<wchar_t,ATL::ChTraitsCRT<wchar_t> > >
__unwindfunclet$?Traitement_fichier@Analyse_back_groung@@QAE_NV?$CStringT@_WV?$StrTraitMFC@_WV?$ChTraitsCRT@_W@ATL@@@@@ATL@@@Z$1:
	mov	ecx, DWORD PTR $T2[ebp]
	jmp	??1?$CStringT@_WV?$StrTraitMFC@_WV?$ChTraitsCRT@_W@ATL@@@@@ATL@@QAE@XZ ; ATL::CStringT<wchar_t,StrTraitMFC<wchar_t,ATL::ChTraitsCRT<wchar_t> > >::~CStringT<wchar_t,StrTraitMFC<wchar_t,ATL::ChTraitsCRT<wchar_t> > >
__unwindfunclet$?Traitement_fichier@Analyse_back_groung@@QAE_NV?$CStringT@_WV?$StrTraitMFC@_WV?$ChTraitsCRT@_W@ATL@@@@@ATL@@@Z$3:
	push	1
	mov	eax, DWORD PTR $T4[ebp]
	push	eax
	call	??3@YAXPAXI@Z				; operator delete
	add	esp, 8
	ret	0
__unwindfunclet$?Traitement_fichier@Analyse_back_groung@@QAE_NV?$CStringT@_WV?$StrTraitMFC@_WV?$ChTraitsCRT@_W@ATL@@@@@ATL@@@Z$4:
	lea	ecx, DWORD PTR _Mess$42[ebp]
	jmp	??1?$CStringT@_WV?$StrTraitMFC@_WV?$ChTraitsCRT@_W@ATL@@@@@ATL@@QAE@XZ ; ATL::CStringT<wchar_t,StrTraitMFC<wchar_t,ATL::ChTraitsCRT<wchar_t> > >::~CStringT<wchar_t,StrTraitMFC<wchar_t,ATL::ChTraitsCRT<wchar_t> > >
__unwindfunclet$?Traitement_fichier@Analyse_back_groung@@QAE_NV?$CStringT@_WV?$StrTraitMFC@_WV?$ChTraitsCRT@_W@ATL@@@@@ATL@@@Z$5:
	mov	ecx, DWORD PTR $T6[ebp]
	jmp	??1?$CStringT@_WV?$StrTraitMFC@_WV?$ChTraitsCRT@_W@ATL@@@@@ATL@@QAE@XZ ; ATL::CStringT<wchar_t,StrTraitMFC<wchar_t,ATL::ChTraitsCRT<wchar_t> > >::~CStringT<wchar_t,StrTraitMFC<wchar_t,ATL::ChTraitsCRT<wchar_t> > >
__unwindfunclet$?Traitement_fichier@Analyse_back_groung@@QAE_NV?$CStringT@_WV?$StrTraitMFC@_WV?$ChTraitsCRT@_W@ATL@@@@@ATL@@@Z$8:
	lea	ecx, DWORD PTR _Local$48[ebp]
	jmp	??1?$CStringT@_WV?$StrTraitMFC@_WV?$ChTraitsCRT@_W@ATL@@@@@ATL@@QAE@XZ ; ATL::CStringT<wchar_t,StrTraitMFC<wchar_t,ATL::ChTraitsCRT<wchar_t> > >::~CStringT<wchar_t,StrTraitMFC<wchar_t,ATL::ChTraitsCRT<wchar_t> > >
__unwindfunclet$?Traitement_fichier@Analyse_back_groung@@QAE_NV?$CStringT@_WV?$StrTraitMFC@_WV?$ChTraitsCRT@_W@ATL@@@@@ATL@@@Z$10:
	lea	ecx, DWORD PTR $T11[ebp]
	jmp	??1?$CStringT@_WV?$StrTraitMFC@_WV?$ChTraitsCRT@_W@ATL@@@@@ATL@@QAE@XZ ; ATL::CStringT<wchar_t,StrTraitMFC<wchar_t,ATL::ChTraitsCRT<wchar_t> > >::~CStringT<wchar_t,StrTraitMFC<wchar_t,ATL::ChTraitsCRT<wchar_t> > >
__unwindfunclet$?Traitement_fichier@Analyse_back_groung@@QAE_NV?$CStringT@_WV?$StrTraitMFC@_WV?$ChTraitsCRT@_W@ATL@@@@@ATL@@@Z$12:
	lea	ecx, DWORD PTR $T15[ebp]
	jmp	??1?$CStringT@_WV?$StrTraitMFC@_WV?$ChTraitsCRT@_W@ATL@@@@@ATL@@QAE@XZ ; ATL::CStringT<wchar_t,StrTraitMFC<wchar_t,ATL::ChTraitsCRT<wchar_t> > >::~CStringT<wchar_t,StrTraitMFC<wchar_t,ATL::ChTraitsCRT<wchar_t> > >
__unwindfunclet$?Traitement_fichier@Analyse_back_groung@@QAE_NV?$CStringT@_WV?$StrTraitMFC@_WV?$ChTraitsCRT@_W@ATL@@@@@ATL@@@Z$13:
	push	1
	mov	eax, DWORD PTR $T21[ebp]
	push	eax
	call	??3@YAXPAXI@Z				; operator delete
	add	esp, 8
	ret	0
__unwindfunclet$?Traitement_fichier@Analyse_back_groung@@QAE_NV?$CStringT@_WV?$StrTraitMFC@_WV?$ChTraitsCRT@_W@ATL@@@@@ATL@@@Z$14:
	mov	ecx, DWORD PTR $T23[ebp]
	jmp	??1?$CStringT@_WV?$StrTraitMFC@_WV?$ChTraitsCRT@_W@ATL@@@@@ATL@@QAE@XZ ; ATL::CStringT<wchar_t,StrTraitMFC<wchar_t,ATL::ChTraitsCRT<wchar_t> > >::~CStringT<wchar_t,StrTraitMFC<wchar_t,ATL::ChTraitsCRT<wchar_t> > >
__unwindfunclet$?Traitement_fichier@Analyse_back_groung@@QAE_NV?$CStringT@_WV?$StrTraitMFC@_WV?$ChTraitsCRT@_W@ATL@@@@@ATL@@@Z$17:
	lea	ecx, DWORD PTR _Local$47[ebp]
	jmp	??1?$CStringT@_WV?$StrTraitMFC@_WV?$ChTraitsCRT@_W@ATL@@@@@ATL@@QAE@XZ ; ATL::CStringT<wchar_t,StrTraitMFC<wchar_t,ATL::ChTraitsCRT<wchar_t> > >::~CStringT<wchar_t,StrTraitMFC<wchar_t,ATL::ChTraitsCRT<wchar_t> > >
__unwindfunclet$?Traitement_fichier@Analyse_back_groung@@QAE_NV?$CStringT@_WV?$StrTraitMFC@_WV?$ChTraitsCRT@_W@ATL@@@@@ATL@@@Z$19:
	lea	ecx, DWORD PTR $T28[ebp]
	jmp	??1?$CStringT@_WV?$StrTraitMFC@_WV?$ChTraitsCRT@_W@ATL@@@@@ATL@@QAE@XZ ; ATL::CStringT<wchar_t,StrTraitMFC<wchar_t,ATL::ChTraitsCRT<wchar_t> > >::~CStringT<wchar_t,StrTraitMFC<wchar_t,ATL::ChTraitsCRT<wchar_t> > >
__unwindfunclet$?Traitement_fichier@Analyse_back_groung@@QAE_NV?$CStringT@_WV?$StrTraitMFC@_WV?$ChTraitsCRT@_W@ATL@@@@@ATL@@@Z$21:
	lea	ecx, DWORD PTR $T32[ebp]
	jmp	??1?$CStringT@_WV?$StrTraitMFC@_WV?$ChTraitsCRT@_W@ATL@@@@@ATL@@QAE@XZ ; ATL::CStringT<wchar_t,StrTraitMFC<wchar_t,ATL::ChTraitsCRT<wchar_t> > >::~CStringT<wchar_t,StrTraitMFC<wchar_t,ATL::ChTraitsCRT<wchar_t> > >
__ehhandler$?Traitement_fichier@Analyse_back_groung@@QAE_NV?$CStringT@_WV?$StrTraitMFC@_WV?$ChTraitsCRT@_W@ATL@@@@@ATL@@@Z:
	mov	edx, DWORD PTR [esp+8]
	lea	eax, DWORD PTR [edx+12]
	mov	ecx, DWORD PTR [edx-68]
	xor	ecx, eax
	call	@__security_check_cookie@4
	mov	ecx, DWORD PTR [edx-4]
	xor	ecx, eax
	call	@__security_check_cookie@4
	mov	eax, OFFSET __ehfuncinfo$?Traitement_fichier@Analyse_back_groung@@QAE_NV?$CStringT@_WV?$StrTraitMFC@_WV?$ChTraitsCRT@_W@ATL@@@@@ATL@@@Z
	jmp	___CxxFrameHandler3
text$x	ENDS
?Traitement_fichier@Analyse_back_groung@@QAE_NV?$CStringT@_WV?$StrTraitMFC@_WV?$ChTraitsCRT@_W@ATL@@@@@ATL@@@Z ENDP ; Analyse_back_groung::Traitement_fichier
; Function compile flags: /Ogtp
;	COMDAT ?__autoclassinit2@C_AES_Encode@@QAEXI@Z
_TEXT	SEGMENT
_classSize$dead$ = 8					; size = 4
?__autoclassinit2@C_AES_Encode@@QAEXI@Z PROC		; C_AES_Encode::__autoclassinit2, COMDAT
; _this$ = ecx
	xorps	xmm0, xmm0
	movups	XMMWORD PTR [ecx], xmm0
	mov	DWORD PTR [ecx+16], 0
	ret	4
?__autoclassinit2@C_AES_Encode@@QAEXI@Z ENDP		; C_AES_Encode::__autoclassinit2
_TEXT	ENDS
; Function compile flags: /Ogtp
;	COMDAT ?__autoclassinit2@C_AES_Decode@@QAEXI@Z
_TEXT	SEGMENT
_classSize$dead$ = 8					; size = 4
?__autoclassinit2@C_AES_Decode@@QAEXI@Z PROC		; C_AES_Decode::__autoclassinit2, COMDAT
; _this$ = ecx
	xorps	xmm0, xmm0
	movups	XMMWORD PTR [ecx], xmm0
	movq	QWORD PTR [ecx+16], xmm0
	ret	4
?__autoclassinit2@C_AES_Decode@@QAEXI@Z ENDP		; C_AES_Decode::__autoclassinit2
_TEXT	ENDS
; Function compile flags: /Ogtp
;	COMDAT ??_GManipulation_Fichier@@QAEPAXI@Z
_TEXT	SEGMENT
___flags$dead$ = 8					; size = 4
??_GManipulation_Fichier@@QAEPAXI@Z PROC		; Manipulation_Fichier::`scalar deleting destructor', COMDAT
; _this$ = ecx
	push	esi
	mov	esi, ecx
	push	1
	push	esi
	call	??3@YAXPAXI@Z				; operator delete
	add	esp, 8
	mov	eax, esi
	pop	esi
	ret	4
??_GManipulation_Fichier@@QAEPAXI@Z ENDP		; Manipulation_Fichier::`scalar deleting destructor'
_TEXT	ENDS
; Function compile flags: /Ogtp
; File I:\Projets\AES\AES\AES\C_AES_Encode.cpp
; File C:\Program Files (x86)\Microsoft Visual Studio\2019\Enterprise\VC\Tools\MSVC\14.23.28105\atlmfc\include\atlsimpstr.h
;	COMDAT ??_GC_AES_Encode@@QAEPAXI@Z
_TEXT	SEGMENT
__$EHRec$ = -12						; size = 12
___flags$dead$ = 8					; size = 4
??_GC_AES_Encode@@QAEPAXI@Z PROC			; C_AES_Encode::`scalar deleting destructor', COMDAT
; _this$ = ecx
	push	ebp
	mov	ebp, esp
	push	-1
	push	__ehhandler$??_GC_AES_Encode@@QAEPAXI@Z
	mov	eax, DWORD PTR fs:0
	push	eax
	push	ebx
	push	esi
	push	edi
	mov	eax, DWORD PTR ___security_cookie
	xor	eax, ebp
	push	eax
	lea	eax, DWORD PTR __$EHRec$[ebp]
	mov	DWORD PTR fs:0, eax
	mov	esi, ecx
; File I:\Projets\AES\AES\AES\C_AES_Encode.cpp

; 20   : 	delete pt_Erreur;

	mov	ebx, DWORD PTR [esi]
	or	edi, -1
	test	ebx, ebx
	je	SHORT $LN10@scalar
; File C:\Program Files (x86)\Microsoft Visual Studio\2019\Enterprise\VC\Tools\MSVC\14.23.28105\atlmfc\include\atlsimpstr.h

; 800  : 		return( reinterpret_cast< CStringData* >( m_pszData )-1 );

	mov	edx, DWORD PTR [ebx]

; 88   : 		if( _InterlockedDecrement( &nRefs ) <= 0 )

	mov	eax, edi

; 800  : 		return( reinterpret_cast< CStringData* >( m_pszData )-1 );

	sub	edx, 16					; 00000010H

; 88   : 		if( _InterlockedDecrement( &nRefs ) <= 0 )

	lock	 xadd	 DWORD PTR [edx+12], eax
	dec	eax
	test	eax, eax
	jg	SHORT $LN22@scalar

; 89   : 		{
; 90   : 			pStringMgr->Free( this );

	mov	ecx, DWORD PTR [edx]
	push	edx
	mov	eax, DWORD PTR [ecx]
	call	DWORD PTR [eax+4]
$LN22@scalar:
	push	4
	push	ebx
	call	??3@YAXPAXI@Z				; operator delete
	add	esp, 8
$LN10@scalar:

; 800  : 		return( reinterpret_cast< CStringData* >( m_pszData )-1 );

	mov	edx, DWORD PTR [esi+4]
	sub	edx, 16					; 00000010H

; 88   : 		if( _InterlockedDecrement( &nRefs ) <= 0 )

	lock	 xadd	 DWORD PTR [edx+12], edi
	dec	edi
	test	edi, edi
	jg	SHORT $LN31@scalar

; 89   : 		{
; 90   : 			pStringMgr->Free( this );

	mov	ecx, DWORD PTR [edx]
	push	edx
	mov	eax, DWORD PTR [ecx]
	call	DWORD PTR [eax+4]
$LN31@scalar:
	push	20					; 00000014H
	push	esi
	call	??3@YAXPAXI@Z				; operator delete
	add	esp, 8
	mov	eax, esi
	mov	ecx, DWORD PTR __$EHRec$[ebp]
	mov	DWORD PTR fs:0, ecx
	pop	ecx
	pop	edi
	pop	esi
	pop	ebx
	mov	esp, ebp
	pop	ebp
	ret	4
_TEXT	ENDS
;	COMDAT text$x
text$x	SEGMENT
__ehhandler$??_GC_AES_Encode@@QAEPAXI@Z:
	mov	edx, DWORD PTR [esp+8]
	lea	eax, DWORD PTR [edx+12]
	mov	ecx, DWORD PTR [edx-16]
	xor	ecx, eax
	call	@__security_check_cookie@4
	mov	eax, OFFSET __ehfuncinfo$??_GC_AES_Encode@@QAEPAXI@Z
	jmp	___CxxFrameHandler3
text$x	ENDS
??_GC_AES_Encode@@QAEPAXI@Z ENDP			; C_AES_Encode::`scalar deleting destructor'
; Function compile flags: /Ogtp
; File I:\Projets\AES\AES\AES\C_AES_Decode.cpp
; File C:\Program Files (x86)\Microsoft Visual Studio\2019\Enterprise\VC\Tools\MSVC\14.23.28105\atlmfc\include\atlsimpstr.h
;	COMDAT ??_GC_AES_Decode@@QAEPAXI@Z
_TEXT	SEGMENT
__$EHRec$ = -12						; size = 12
___flags$dead$ = 8					; size = 4
??_GC_AES_Decode@@QAEPAXI@Z PROC			; C_AES_Decode::`scalar deleting destructor', COMDAT
; _this$ = ecx
	push	ebp
	mov	ebp, esp
	push	-1
	push	__ehhandler$??_GC_AES_Decode@@QAEPAXI@Z
	mov	eax, DWORD PTR fs:0
	push	eax
	push	ebx
	push	esi
	push	edi
	mov	eax, DWORD PTR ___security_cookie
	xor	eax, ebp
	push	eax
	lea	eax, DWORD PTR __$EHRec$[ebp]
	mov	DWORD PTR fs:0, eax
	mov	esi, ecx
; File I:\Projets\AES\AES\AES\C_AES_Decode.cpp

; 19   : 	delete pt_Erreur;

	mov	ebx, DWORD PTR [esi]
	or	edi, -1
	test	ebx, ebx
	je	SHORT $LN10@scalar
; File C:\Program Files (x86)\Microsoft Visual Studio\2019\Enterprise\VC\Tools\MSVC\14.23.28105\atlmfc\include\atlsimpstr.h

; 800  : 		return( reinterpret_cast< CStringData* >( m_pszData )-1 );

	mov	edx, DWORD PTR [ebx]

; 88   : 		if( _InterlockedDecrement( &nRefs ) <= 0 )

	mov	eax, edi

; 800  : 		return( reinterpret_cast< CStringData* >( m_pszData )-1 );

	sub	edx, 16					; 00000010H

; 88   : 		if( _InterlockedDecrement( &nRefs ) <= 0 )

	lock	 xadd	 DWORD PTR [edx+12], eax
	dec	eax
	test	eax, eax
	jg	SHORT $LN22@scalar

; 89   : 		{
; 90   : 			pStringMgr->Free( this );

	mov	ecx, DWORD PTR [edx]
	push	edx
	mov	eax, DWORD PTR [ecx]
	call	DWORD PTR [eax+4]
$LN22@scalar:
	push	4
	push	ebx
	call	??3@YAXPAXI@Z				; operator delete
	add	esp, 8
$LN10@scalar:

; 800  : 		return( reinterpret_cast< CStringData* >( m_pszData )-1 );

	mov	edx, DWORD PTR [esi+4]
	sub	edx, 16					; 00000010H

; 88   : 		if( _InterlockedDecrement( &nRefs ) <= 0 )

	lock	 xadd	 DWORD PTR [edx+12], edi
	dec	edi
	test	edi, edi
	jg	SHORT $LN31@scalar

; 89   : 		{
; 90   : 			pStringMgr->Free( this );

	mov	ecx, DWORD PTR [edx]
	push	edx
	mov	eax, DWORD PTR [ecx]
	call	DWORD PTR [eax+4]
$LN31@scalar:
	push	24					; 00000018H
	push	esi
	call	??3@YAXPAXI@Z				; operator delete
	add	esp, 8
	mov	eax, esi
	mov	ecx, DWORD PTR __$EHRec$[ebp]
	mov	DWORD PTR fs:0, ecx
	pop	ecx
	pop	edi
	pop	esi
	pop	ebx
	mov	esp, ebp
	pop	ebp
	ret	4
_TEXT	ENDS
;	COMDAT text$x
text$x	SEGMENT
__ehhandler$??_GC_AES_Decode@@QAEPAXI@Z:
	mov	edx, DWORD PTR [esp+8]
	lea	eax, DWORD PTR [edx+12]
	mov	ecx, DWORD PTR [edx-16]
	xor	ecx, eax
	call	@__security_check_cookie@4
	mov	eax, OFFSET __ehfuncinfo$??_GC_AES_Decode@@QAEPAXI@Z
	jmp	___CxxFrameHandler3
text$x	ENDS
??_GC_AES_Decode@@QAEPAXI@Z ENDP			; C_AES_Decode::`scalar deleting destructor'
; Function compile flags: /Ogtp
;	COMDAT ??_GC_Password@@QAEPAXI@Z
_TEXT	SEGMENT
___flags$dead$ = 8					; size = 4
??_GC_Password@@QAEPAXI@Z PROC				; C_Password::`scalar deleting destructor', COMDAT
; _this$ = ecx
	push	esi
	mov	esi, ecx
	push	1
	push	esi
	call	??3@YAXPAXI@Z				; operator delete
	add	esp, 8
	mov	eax, esi
	pop	esi
	ret	4
??_GC_Password@@QAEPAXI@Z ENDP				; C_Password::`scalar deleting destructor'
_TEXT	ENDS
; Function compile flags: /Ogtp
;	COMDAT ??_GAjustFileName@@QAEPAXI@Z
_TEXT	SEGMENT
___flags$dead$ = 8					; size = 4
??_GAjustFileName@@QAEPAXI@Z PROC			; AjustFileName::`scalar deleting destructor', COMDAT
; _this$ = ecx
	push	esi
	mov	esi, ecx
	push	1
	push	esi
	call	??3@YAXPAXI@Z				; operator delete
	add	esp, 8
	mov	eax, esi
	pop	esi
	ret	4
??_GAjustFileName@@QAEPAXI@Z ENDP			; AjustFileName::`scalar deleting destructor'
_TEXT	ENDS
; Function compile flags: /Ogtp
; File C:\Program Files (x86)\Microsoft Visual Studio\2019\Enterprise\VC\Tools\MSVC\14.23.28105\atlmfc\include\afxcoll.inl
;	COMDAT ?Add@CStringArray@@QAEHPB_W@Z
_TEXT	SEGMENT
_newElement$ = 8					; size = 4
?Add@CStringArray@@QAEHPB_W@Z PROC			; CStringArray::Add, COMDAT
; _this$ = ecx

; 315  : 	{ INT_PTR nIndex = m_nSize;

	push	ebp
	mov	ebp, esp
	push	esi

; 316  : 		SetAtGrow(nIndex, newElement);

	push	DWORD PTR _newElement$[ebp]
	mov	esi, DWORD PTR [ecx+8]
	push	esi
	call	?SetAtGrow@CStringArray@@QAEXHPB_W@Z	; CStringArray::SetAtGrow

; 317  : 		return nIndex; }

	mov	eax, esi
	pop	esi
	pop	ebp
	ret	4
?Add@CStringArray@@QAEHPB_W@Z ENDP			; CStringArray::Add
_TEXT	ENDS
END
