; Listing generated by Microsoft (R) Optimizing Compiler Version 19.29.30133.0 

	TITLE	j:\work\aes\aes\aes\release\analyse_back_groung.obj
	.686P
	.XMM
	include listing.inc
	.model	flat

INCLUDELIB OLDNAMES

EXTRN	?SetAtGrow@CStringArray@@QAEXHPB_W@Z:PROC	; CStringArray::SetAtGrow
PUBLIC	?Add@CStringArray@@QAEHPB_W@Z			; CStringArray::Add
PUBLIC	??_GAjustFileName@@QAEPAXI@Z			; AjustFileName::`scalar deleting destructor'
PUBLIC	??_GC_Password@@QAEPAXI@Z			; C_Password::`scalar deleting destructor'
PUBLIC	??_GC_AES_Decode@@QAEPAXI@Z			; C_AES_Decode::`scalar deleting destructor'
PUBLIC	??_GC_AES_Encode@@QAEPAXI@Z			; C_AES_Encode::`scalar deleting destructor'
PUBLIC	??_GManipulation_Fichier@@QAEPAXI@Z		; Manipulation_Fichier::`scalar deleting destructor'
PUBLIC	?__autoclassinit2@C_AES_Decode@@QAEXI@Z		; C_AES_Decode::__autoclassinit2
PUBLIC	?__autoclassinit2@C_AES_Encode@@QAEXI@Z		; C_AES_Encode::__autoclassinit2
PUBLIC	?Traitement_fichier@Analyse_back_groung@@QAE_NV?$CStringT@_WV?$StrTraitMFC@_WV?$ChTraitsCRT@_W@ATL@@@@@ATL@@@Z ; Analyse_back_groung::Traitement_fichier
PUBLIC	??0Analyse_back_groung@@QAE@XZ			; Analyse_back_groung::Analyse_back_groung
PUBLIC	?Run@Analyse_back_groung@@QAEHPAPA_WH@Z		; Analyse_back_groung::Run
PUBLIC	??1Analyse_back_groung@@QAE@XZ			; Analyse_back_groung::~Analyse_back_groung
;	COMDAT xdata$x
xdata$x	SEGMENT
__ehfuncinfo$??1Analyse_back_groung@@QAE@XZ DQ 00000000019930522r ; 2.11987e-315
	DQ	00000000000000000r		; 0
	DQ	00000000000000000r		; 0
	DQ	00000000000000000r		; 0
	DD	05H
xdata$x	ENDS
;	COMDAT xdata$x
xdata$x	SEGMENT
__unwindtable$??0Analyse_back_groung@@QAE@XZ DD 0ffffffffH
	DD	FLAT:__unwindfunclet$??0Analyse_back_groung@@QAE@XZ$0
	DD	00H
	DD	FLAT:__unwindfunclet$??0Analyse_back_groung@@QAE@XZ$1
	DD	01H
	DD	FLAT:__unwindfunclet$??0Analyse_back_groung@@QAE@XZ$3
	DD	01H
	DD	FLAT:__unwindfunclet$??0Analyse_back_groung@@QAE@XZ$4
__ehfuncinfo$??0Analyse_back_groung@@QAE@XZ DQ 00000000419930522r ; 8.69997e-314
	DD	FLAT:__unwindtable$??0Analyse_back_groung@@QAE@XZ
	DQ	00000000000000000r		; 0
	DQ	00000000000000000r		; 0
	DQ	00000000100000000r		; 2.122e-314
xdata$x	ENDS
;	COMDAT xdata$x
xdata$x	SEGMENT
__ehfuncinfo$?Traitement_fichier@Analyse_back_groung@@QAE_NV?$CStringT@_WV?$StrTraitMFC@_WV?$ChTraitsCRT@_W@ATL@@@@@ATL@@@Z DQ 00000000d19930522r ; 2.77979e-313
	DD	FLAT:__unwindtable$?Traitement_fichier@Analyse_back_groung@@QAE_NV?$CStringT@_WV?$StrTraitMFC@_WV?$ChTraitsCRT@_W@ATL@@@@@ATL@@@Z
	DQ	00000000000000000r		; 0
	DQ	00000000000000000r		; 0
	DQ	00000000100000000r		; 2.122e-314
__unwindtable$?Traitement_fichier@Analyse_back_groung@@QAE_NV?$CStringT@_WV?$StrTraitMFC@_WV?$ChTraitsCRT@_W@ATL@@@@@ATL@@@Z DD 0ffffffffH
	DD	FLAT:__unwindfunclet$?Traitement_fichier@Analyse_back_groung@@QAE_NV?$CStringT@_WV?$StrTraitMFC@_WV?$ChTraitsCRT@_W@ATL@@@@@ATL@@@Z$0
	DD	00H
	DD	FLAT:__unwindfunclet$?Traitement_fichier@Analyse_back_groung@@QAE_NV?$CStringT@_WV?$StrTraitMFC@_WV?$ChTraitsCRT@_W@ATL@@@@@ATL@@@Z$1
	DD	00H
	DD	FLAT:__unwindfunclet$?Traitement_fichier@Analyse_back_groung@@QAE_NV?$CStringT@_WV?$StrTraitMFC@_WV?$ChTraitsCRT@_W@ATL@@@@@ATL@@@Z$3
	DD	00H
	DD	FLAT:__unwindfunclet$?Traitement_fichier@Analyse_back_groung@@QAE_NV?$CStringT@_WV?$StrTraitMFC@_WV?$ChTraitsCRT@_W@ATL@@@@@ATL@@@Z$4
	DD	03H
	DD	FLAT:__unwindfunclet$?Traitement_fichier@Analyse_back_groung@@QAE_NV?$CStringT@_WV?$StrTraitMFC@_WV?$ChTraitsCRT@_W@ATL@@@@@ATL@@@Z$5
	DD	03H
	DD	FLAT:__unwindfunclet$?Traitement_fichier@Analyse_back_groung@@QAE_NV?$CStringT@_WV?$StrTraitMFC@_WV?$ChTraitsCRT@_W@ATL@@@@@ATL@@@Z$8
	DD	05H
	DD	FLAT:__unwindfunclet$?Traitement_fichier@Analyse_back_groung@@QAE_NV?$CStringT@_WV?$StrTraitMFC@_WV?$ChTraitsCRT@_W@ATL@@@@@ATL@@@Z$10
	DD	06H
	DD	FLAT:__unwindfunclet$?Traitement_fichier@Analyse_back_groung@@QAE_NV?$CStringT@_WV?$StrTraitMFC@_WV?$ChTraitsCRT@_W@ATL@@@@@ATL@@@Z$12
	DD	00H
	DD	FLAT:__unwindfunclet$?Traitement_fichier@Analyse_back_groung@@QAE_NV?$CStringT@_WV?$StrTraitMFC@_WV?$ChTraitsCRT@_W@ATL@@@@@ATL@@@Z$13
	DD	00H
	DD	FLAT:__unwindfunclet$?Traitement_fichier@Analyse_back_groung@@QAE_NV?$CStringT@_WV?$StrTraitMFC@_WV?$ChTraitsCRT@_W@ATL@@@@@ATL@@@Z$14
	DD	00H
	DD	FLAT:__unwindfunclet$?Traitement_fichier@Analyse_back_groung@@QAE_NV?$CStringT@_WV?$StrTraitMFC@_WV?$ChTraitsCRT@_W@ATL@@@@@ATL@@@Z$17
	DD	0aH
	DD	FLAT:__unwindfunclet$?Traitement_fichier@Analyse_back_groung@@QAE_NV?$CStringT@_WV?$StrTraitMFC@_WV?$ChTraitsCRT@_W@ATL@@@@@ATL@@@Z$19
	DD	0bH
	DD	FLAT:__unwindfunclet$?Traitement_fichier@Analyse_back_groung@@QAE_NV?$CStringT@_WV?$StrTraitMFC@_WV?$ChTraitsCRT@_W@ATL@@@@@ATL@@@Z$21
xdata$x	ENDS
;	COMDAT xdata$x
xdata$x	SEGMENT
__ehfuncinfo$??_GC_AES_Encode@@QAEPAXI@Z DQ 00000000019930522r ; 2.11987e-315
	DQ	00000000000000000r		; 0
	DQ	00000000000000000r		; 0
	DQ	00000000000000000r		; 0
	DD	05H
xdata$x	ENDS
;	COMDAT xdata$x
xdata$x	SEGMENT
__ehfuncinfo$??_GC_AES_Decode@@QAEPAXI@Z DQ 00000000019930522r ; 2.11987e-315
	DQ	00000000000000000r		; 0
	DQ	00000000000000000r		; 0
	DQ	00000000000000000r		; 0
	DD	05H
END
