; Listing generated by Microsoft (R) Optimizing Compiler Version 19.29.30133.0 

	TITLE	j:\work\aes\aes\aes\release\c_aes_decode.obj
	.686P
	.XMM
	include listing.inc
	.model	flat

INCLUDELIB OLDNAMES

PUBLIC	??_C@_1FO@GBKEFGLF@?$AAM?$AAi?$AAc?$AAr?$AAo?$AAs?$AAo?$AAf?$AAt?$AA?5?$AAE?$AAn?$AAh?$AAa?$AAn@ ; `string'
PUBLIC	??_C@_03LPALPDIP@fff@				; `string'
EXTRN	__imp__CryptReleaseContext@8:PROC
EXTRN	__imp__CryptDestroyKey@4:PROC
EXTRN	__imp__CryptDestroyHash@4:PROC
EXTRN	__imp__CloseHandle@4:PROC
EXTRN	__imp__WriteFile@20:PROC
EXTRN	__imp__CryptDecrypt@24:PROC
EXTRN	__imp__CryptDeriveKey@20:PROC
EXTRN	__imp__lstrlenW@4:PROC
EXTRN	__imp__CryptHashData@16:PROC
EXTRN	__imp__CryptCreateHash@20:PROC
EXTRN	_free:PROC
EXTRN	__imp__CryptImportKey@24:PROC
EXTRN	_malloc:PROC
EXTRN	__imp__ReadFile@20:PROC
EXTRN	__imp__CreateFileW@28:PROC
EXTRN	__imp__DeleteFileW@4:PROC
EXTRN	__imp__CryptAcquireContextW@20:PROC
;	COMDAT ??_C@_03LPALPDIP@fff@
CONST	SEGMENT
??_C@_03LPALPDIP@fff@ DB 'fff', 00H			; `string'
CONST	ENDS
;	COMDAT ??_C@_1FO@GBKEFGLF@?$AAM?$AAi?$AAc?$AAr?$AAo?$AAs?$AAo?$AAf?$AAt?$AA?5?$AAE?$AAn?$AAh?$AAa?$AAn@
CONST	SEGMENT
??_C@_1FO@GBKEFGLF@?$AAM?$AAi?$AAc?$AAr?$AAo?$AAs?$AAo?$AAf?$AAt?$AA?5?$AAE?$AAn?$AAh?$AAa?$AAn@ DB 'M'
	DB	00H, 'i', 00H, 'c', 00H, 'r', 00H, 'o', 00H, 's', 00H, 'o', 00H
	DB	'f', 00H, 't', 00H, ' ', 00H, 'E', 00H, 'n', 00H, 'h', 00H, 'a'
	DB	00H, 'n', 00H, 'c', 00H, 'e', 00H, 'd', 00H, ' ', 00H, 'C', 00H
	DB	'r', 00H, 'y', 00H, 'p', 00H, 't', 00H, 'o', 00H, 'g', 00H, 'r'
	DB	00H, 'a', 00H, 'p', 00H, 'h', 00H, 'i', 00H, 'c', 00H, ' ', 00H
	DB	'P', 00H, 'r', 00H, 'o', 00H, 'v', 00H, 'i', 00H, 'd', 00H, 'e'
	DB	00H, 'r', 00H, ' ', 00H, 'v', 00H, '1', 00H, '.', 00H, '0', 00H
	DB	00H, 00H					; `string'
PUBLIC	??1simple_Huffman@@QAE@XZ			; simple_Huffman::~simple_Huffman
PUBLIC	??_Gsimple_Huffman@@QAEPAXI@Z			; simple_Huffman::`scalar deleting destructor'
PUBLIC	?__autoclassinit2@simple_Huffman@@QAEXI@Z	; simple_Huffman::__autoclassinit2
PUBLIC	??0C_AES_Decode@@QAE@XZ				; C_AES_Decode::C_AES_Decode
PUBLIC	??1C_AES_Decode@@QAE@XZ				; C_AES_Decode::~C_AES_Decode
PUBLIC	?MyDecryptFile@C_AES_Decode@@QAE_NPA_W00@Z	; C_AES_Decode::MyDecryptFile
;	COMDAT xdata$x
xdata$x	SEGMENT
__ehfuncinfo$??1C_AES_Decode@@QAE@XZ DQ 00000000019930522r ; 2.11987e-315
	DQ	00000000000000000r		; 0
	DQ	00000000000000000r		; 0
	DQ	00000000000000000r		; 0
	DD	05H
xdata$x	ENDS
;	COMDAT xdata$x
xdata$x	SEGMENT
__unwindtable$??0C_AES_Decode@@QAE@XZ DD 0ffffffffH
	DD	FLAT:__unwindfunclet$??0C_AES_Decode@@QAE@XZ$0
__ehfuncinfo$??0C_AES_Decode@@QAE@XZ DQ 00000000119930522r ; 2.33398e-314
	DD	FLAT:__unwindtable$??0C_AES_Decode@@QAE@XZ
	DQ	00000000000000000r		; 0
	DQ	00000000000000000r		; 0
	DQ	00000000100000000r		; 2.122e-314
xdata$x	ENDS
;	COMDAT xdata$x
xdata$x	SEGMENT
__unwindtable$??_Gsimple_Huffman@@QAEPAXI@Z DD 0ffffffffH
	DD	FLAT:___std_terminate
__ehfuncinfo$??_Gsimple_Huffman@@QAEPAXI@Z DQ 00000000119930522r ; 2.33398e-314
	DD	FLAT:__unwindtable$??_Gsimple_Huffman@@QAEPAXI@Z
	DQ	00000000000000000r		; 0
	DQ	00000000000000000r		; 0
	DQ	00000000500000000r		; 1.061e-313
xdata$x	ENDS
;	COMDAT xdata$x
xdata$x	SEGMENT
__ehfuncinfo$??1simple_Huffman@@QAE@XZ DQ 00000000019930522r ; 2.11987e-315
	DQ	00000000000000000r		; 0
	DQ	00000000000000000r		; 0
	DQ	00000000000000000r		; 0
	DD	05H
END
