; Listing generated by Microsoft (R) Optimizing Compiler Version 19.29.30133.0 

	TITLE	j:\work\aes\aes\aes\release\c_aes_encode.obj
	.686P
	.XMM
	include listing.inc
	.model	flat

INCLUDELIB OLDNAMES

EXTRN	__imp__CryptEncrypt@28:PROC
EXTRN	__imp__CryptExportKey@24:PROC
EXTRN	__imp__CryptGetUserKey@12:PROC
EXTRN	__imp__CryptGenKey@16:PROC
PUBLIC	??0C_AES_Encode@@QAE@XZ				; C_AES_Encode::C_AES_Encode
PUBLIC	??1C_AES_Encode@@QAE@XZ				; C_AES_Encode::~C_AES_Encode
PUBLIC	?MyEncryptFile@C_AES_Encode@@QAE_NPA_W00@Z	; C_AES_Encode::MyEncryptFile
;	COMDAT xdata$x
xdata$x	SEGMENT
__ehfuncinfo$??1C_AES_Encode@@QAE@XZ DQ 00000000019930522r ; 2.11987e-315
	DQ	00000000000000000r		; 0
	DQ	00000000000000000r		; 0
	DQ	00000000000000000r		; 0
	DD	05H
xdata$x	ENDS
;	COMDAT xdata$x
xdata$x	SEGMENT
__unwindtable$??0C_AES_Encode@@QAE@XZ DD 0ffffffffH
	DD	FLAT:__unwindfunclet$??0C_AES_Encode@@QAE@XZ$0
__ehfuncinfo$??0C_AES_Encode@@QAE@XZ DQ 00000000119930522r ; 2.33398e-314
	DD	FLAT:__unwindtable$??0C_AES_Encode@@QAE@XZ
	DQ	00000000000000000r		; 0
	DQ	00000000000000000r		; 0
	DQ	00000000100000000r		; 2.122e-314
END
