; Listing generated by Microsoft (R) Optimizing Compiler Version 19.29.30133.0 

	TITLE	j:\work\aes\aes\aes\release\c_decode_interactif.obj
	.686P
	.XMM
	include listing.inc
	.model	flat

INCLUDELIB OLDNAMES

EXTRN	__imp__GetLastError@0:PROC
EXTRN	?DoModal@CFileDialog@@UAEHXZ:PROC		; CFileDialog::DoModal
EXTRN	?GetOFN@CFileDialog@@QAEAAUtagOFNW@@XZ:PROC	; CFileDialog::GetOFN
EXTRN	??1CFileDialog@@UAE@XZ:PROC			; CFileDialog::~CFileDialog
EXTRN	?AfxGetThread@@YGPAVCWinThread@@XZ:PROC		; AfxGetThread
EXTRN	??0CFileDialog@@QAE@HPB_W0K0PAVCWnd@@KH@Z:PROC	; CFileDialog::CFileDialog
EXTRN	_wcsnlen:PROC
EXTRN	__imp__GetCurrentDirectoryW@8:PROC
PUBLIC	?ReleaseBuffer@?$CSimpleStringT@_W$0A@@ATL@@QAEXH@Z ; ATL::CSimpleStringT<wchar_t,0>::ReleaseBuffer
PUBLIC	?StringLengthN@?$CSimpleStringT@_W$0A@@ATL@@SAHPB_WI@Z ; ATL::CSimpleStringT<wchar_t,0>::StringLengthN
PUBLIC	??Y?$CStringT@_WV?$StrTraitMFC@_WV?$ChTraitsCRT@_W@ATL@@@@@ATL@@QAEAAV01@ABV?$CSimpleStringT@_W$0A@@1@@Z ; ATL::CStringT<wchar_t,StrTraitMFC<wchar_t,ATL::ChTraitsCRT<wchar_t> > >::operator+=
PUBLIC	??Y?$CSimpleStringT@_W$0A@@ATL@@QAEAAV01@ABV01@@Z ; ATL::CSimpleStringT<wchar_t,0>::operator+=
PUBLIC	?Append@?$CSimpleStringT@_W$0A@@ATL@@QAEXABV12@@Z ; ATL::CSimpleStringT<wchar_t,0>::Append
PUBLIC	?Append@?$CSimpleStringT@_W$0A@@ATL@@QAEXPB_WH@Z ; ATL::CSimpleStringT<wchar_t,0>::Append
PUBLIC	?AfxGetMainWnd@@YGPAVCWnd@@XZ			; AfxGetMainWnd
PUBLIC	?Open_File@C_Decode_Interactif@@AAE_NPA_W@Z	; C_Decode_Interactif::Open_File
PUBLIC	?__autoclassinit2@CFileDialog@@QAEXI@Z		; CFileDialog::__autoclassinit2
PUBLIC	?Current_Dir@C_Decode_Interactif@@AAE?AV?$CStringT@_WV?$StrTraitMFC@_WV?$ChTraitsCRT@_W@ATL@@@@@ATL@@XZ ; C_Decode_Interactif::Current_Dir
PUBLIC	??1C_Error_Message@@QAE@XZ			; C_Error_Message::~C_Error_Message
PUBLIC	??_GC_Error_Message@@QAEPAXI@Z			; C_Error_Message::`scalar deleting destructor'
PUBLIC	?__autoclassinit2@C_Error_Message@@QAEXI@Z	; C_Error_Message::__autoclassinit2
PUBLIC	??0C_Error_Message@@QAE@XZ			; C_Error_Message::C_Error_Message
PUBLIC	??0C_Decode_Interactif@@QAE@XZ			; C_Decode_Interactif::C_Decode_Interactif
PUBLIC	?Go@C_Decode_Interactif@@QAE_NXZ		; C_Decode_Interactif::Go
PUBLIC	??1C_Decode_Interactif@@QAE@XZ			; C_Decode_Interactif::~C_Decode_Interactif
;	COMDAT xdata$x
xdata$x	SEGMENT
__ehfuncinfo$??1C_Decode_Interactif@@QAE@XZ DQ 00000000019930522r ; 2.11987e-315
	DQ	00000000000000000r		; 0
	DQ	00000000000000000r		; 0
	DQ	00000000000000000r		; 0
	DD	05H
xdata$x	ENDS
;	COMDAT xdata$x
xdata$x	SEGMENT
__ehfuncinfo$?Go@C_Decode_Interactif@@QAE_NXZ DQ 00000000619930522r ; 1.2944e-313
	DD	FLAT:__unwindtable$?Go@C_Decode_Interactif@@QAE_NXZ
	DQ	00000000000000000r		; 0
	DQ	00000000000000000r		; 0
	DQ	00000000100000000r		; 2.122e-314
__unwindtable$?Go@C_Decode_Interactif@@QAE_NXZ DD 0ffffffffH
	DD	FLAT:__unwindfunclet$?Go@C_Decode_Interactif@@QAE_NXZ$0
	DD	0ffffffffH
	DD	FLAT:__unwindfunclet$?Go@C_Decode_Interactif@@QAE_NXZ$2
	DD	01H
	DD	FLAT:__unwindfunclet$?Go@C_Decode_Interactif@@QAE_NXZ$3
	DD	01H
	DD	FLAT:__unwindfunclet$?Go@C_Decode_Interactif@@QAE_NXZ$6
	DD	03H
	DD	FLAT:__unwindfunclet$?Go@C_Decode_Interactif@@QAE_NXZ$8
	DD	04H
	DD	FLAT:__unwindfunclet$?Go@C_Decode_Interactif@@QAE_NXZ$10
xdata$x	ENDS
;	COMDAT xdata$x
xdata$x	SEGMENT
__ehfuncinfo$??0C_Decode_Interactif@@QAE@XZ DQ 00000000519930522r ; 1.0822e-313
	DD	FLAT:__unwindtable$??0C_Decode_Interactif@@QAE@XZ
	DQ	00000000000000000r		; 0
	DQ	00000000000000000r		; 0
	DQ	00000000100000000r		; 2.122e-314
__unwindtable$??0C_Decode_Interactif@@QAE@XZ DD 0ffffffffH
	DD	FLAT:__unwindfunclet$??0C_Decode_Interactif@@QAE@XZ$0
	DD	00H
	DD	FLAT:__unwindfunclet$??0C_Decode_Interactif@@QAE@XZ$1
	DD	01H
	DD	FLAT:__unwindfunclet$??0C_Decode_Interactif@@QAE@XZ$2
	DD	02H
	DD	FLAT:__unwindfunclet$??0C_Decode_Interactif@@QAE@XZ$3
	DD	03H
	DD	FLAT:__unwindfunclet$??0C_Decode_Interactif@@QAE@XZ$4
xdata$x	ENDS
;	COMDAT xdata$x
xdata$x	SEGMENT
__ehfuncinfo$??0C_Error_Message@@QAE@XZ DQ 00000000019930522r ; 2.11987e-315
	DQ	00000000000000000r		; 0
	DQ	00000000000000000r		; 0
	DQ	00000000000000000r		; 0
	DD	05H
xdata$x	ENDS
;	COMDAT xdata$x
xdata$x	SEGMENT
__ehfuncinfo$??_GC_Error_Message@@QAEPAXI@Z DQ 00000000019930522r ; 2.11987e-315
	DQ	00000000000000000r		; 0
	DQ	00000000000000000r		; 0
	DQ	00000000000000000r		; 0
	DD	05H
xdata$x	ENDS
;	COMDAT xdata$x
xdata$x	SEGMENT
__ehfuncinfo$??1C_Error_Message@@QAE@XZ DQ 00000000019930522r ; 2.11987e-315
	DQ	00000000000000000r		; 0
	DQ	00000000000000000r		; 0
	DQ	00000000000000000r		; 0
	DD	05H
xdata$x	ENDS
;	COMDAT xdata$x
xdata$x	SEGMENT
__unwindtable$?Current_Dir@C_Decode_Interactif@@AAE?AV?$CStringT@_WV?$StrTraitMFC@_WV?$ChTraitsCRT@_W@ATL@@@@@ATL@@XZ DD 0ffffffffH
	DD	FLAT:__unwindfunclet$?Current_Dir@C_Decode_Interactif@@AAE?AV?$CStringT@_WV?$StrTraitMFC@_WV?$ChTraitsCRT@_W@ATL@@@@@ATL@@XZ$0
__ehfuncinfo$?Current_Dir@C_Decode_Interactif@@AAE?AV?$CStringT@_WV?$StrTraitMFC@_WV?$ChTraitsCRT@_W@ATL@@@@@ATL@@XZ DQ 00000000119930522r ; 2.33398e-314
	DD	FLAT:__unwindtable$?Current_Dir@C_Decode_Interactif@@AAE?AV?$CStringT@_WV?$StrTraitMFC@_WV?$ChTraitsCRT@_W@ATL@@@@@ATL@@XZ
	DQ	00000000000000000r		; 0
	DQ	00000000000000000r		; 0
	DQ	00000000100000000r		; 2.122e-314
xdata$x	ENDS
;	COMDAT xdata$x
xdata$x	SEGMENT
__ehfuncinfo$?Open_File@C_Decode_Interactif@@AAE_NPA_W@Z DQ 00000000519930522r ; 1.0822e-313
	DD	FLAT:__unwindtable$?Open_File@C_Decode_Interactif@@AAE_NPA_W@Z
	DQ	00000000000000000r		; 0
	DQ	00000000000000000r		; 0
	DQ	00000000100000000r		; 2.122e-314
__unwindtable$?Open_File@C_Decode_Interactif@@AAE_NPA_W@Z DD 0ffffffffH
	DD	FLAT:__unwindfunclet$?Open_File@C_Decode_Interactif@@AAE_NPA_W@Z$0
	DD	00H
	DD	FLAT:__unwindfunclet$?Open_File@C_Decode_Interactif@@AAE_NPA_W@Z$4
	DD	00H
	DD	FLAT:__unwindfunclet$?Open_File@C_Decode_Interactif@@AAE_NPA_W@Z$1
	DD	02H
	DD	FLAT:__unwindfunclet$?Open_File@C_Decode_Interactif@@AAE_NPA_W@Z$2
	DD	03H
	DD	FLAT:__unwindfunclet$?Open_File@C_Decode_Interactif@@AAE_NPA_W@Z$3
END
