; Listing generated by Microsoft (R) Optimizing Compiler Version 19.29.30133.0 

	TITLE	j:\work\aes\aes\aes\release\c_encode_interactif.obj
	.686P
	.XMM
	include listing.inc
	.model	flat

INCLUDELIB OLDNAMES

EXTRN	__imp__GetDC@4:PROC
PUBLIC	?GetDC@CWnd@@QAEPAVCDC@@XZ			; CWnd::GetDC
PUBLIC	?Open_File@C_Encode_Interactif@@AAE_NPA_W@Z	; C_Encode_Interactif::Open_File
PUBLIC	?Current_Dir@C_Encode_Interactif@@AAE?AV?$CStringT@_WV?$StrTraitMFC@_WV?$ChTraitsCRT@_W@ATL@@@@@ATL@@XZ ; C_Encode_Interactif::Current_Dir
PUBLIC	??0C_Encode_Interactif@@QAE@XZ			; C_Encode_Interactif::C_Encode_Interactif
PUBLIC	?Go@C_Encode_Interactif@@QAE_NXZ		; C_Encode_Interactif::Go
PUBLIC	??1C_Encode_Interactif@@QAE@XZ			; C_Encode_Interactif::~C_Encode_Interactif
;	COMDAT xdata$x
xdata$x	SEGMENT
__ehfuncinfo$??1C_Encode_Interactif@@QAE@XZ DQ 00000000019930522r ; 2.11987e-315
	DQ	00000000000000000r		; 0
	DQ	00000000000000000r		; 0
	DQ	00000000000000000r		; 0
	DD	05H
xdata$x	ENDS
;	COMDAT xdata$x
xdata$x	SEGMENT
__ehfuncinfo$?Go@C_Encode_Interactif@@QAE_NXZ DQ 00000000519930522r ; 1.0822e-313
	DD	FLAT:__unwindtable$?Go@C_Encode_Interactif@@QAE_NXZ
	DQ	00000000000000000r		; 0
	DQ	00000000000000000r		; 0
	DQ	00000000100000000r		; 2.122e-314
__unwindtable$?Go@C_Encode_Interactif@@QAE_NXZ DD 0ffffffffH
	DD	FLAT:__unwindfunclet$?Go@C_Encode_Interactif@@QAE_NXZ$0
	DD	0ffffffffH
	DD	FLAT:__unwindfunclet$?Go@C_Encode_Interactif@@QAE_NXZ$1
	DD	0ffffffffH
	DD	FLAT:__unwindfunclet$?Go@C_Encode_Interactif@@QAE_NXZ$4
	DD	02H
	DD	FLAT:__unwindfunclet$?Go@C_Encode_Interactif@@QAE_NXZ$6
	DD	03H
	DD	FLAT:__unwindfunclet$?Go@C_Encode_Interactif@@QAE_NXZ$8
xdata$x	ENDS
;	COMDAT xdata$x
xdata$x	SEGMENT
__ehfuncinfo$??0C_Encode_Interactif@@QAE@XZ DQ 00000000519930522r ; 1.0822e-313
	DD	FLAT:__unwindtable$??0C_Encode_Interactif@@QAE@XZ
	DQ	00000000000000000r		; 0
	DQ	00000000000000000r		; 0
	DQ	00000000100000000r		; 2.122e-314
__unwindtable$??0C_Encode_Interactif@@QAE@XZ DD 0ffffffffH
	DD	FLAT:__unwindfunclet$??0C_Encode_Interactif@@QAE@XZ$0
	DD	00H
	DD	FLAT:__unwindfunclet$??0C_Encode_Interactif@@QAE@XZ$1
	DD	01H
	DD	FLAT:__unwindfunclet$??0C_Encode_Interactif@@QAE@XZ$2
	DD	02H
	DD	FLAT:__unwindfunclet$??0C_Encode_Interactif@@QAE@XZ$3
	DD	03H
	DD	FLAT:__unwindfunclet$??0C_Encode_Interactif@@QAE@XZ$4
xdata$x	ENDS
;	COMDAT xdata$x
xdata$x	SEGMENT
__unwindtable$?Current_Dir@C_Encode_Interactif@@AAE?AV?$CStringT@_WV?$StrTraitMFC@_WV?$ChTraitsCRT@_W@ATL@@@@@ATL@@XZ DD 0ffffffffH
	DD	FLAT:__unwindfunclet$?Current_Dir@C_Encode_Interactif@@AAE?AV?$CStringT@_WV?$StrTraitMFC@_WV?$ChTraitsCRT@_W@ATL@@@@@ATL@@XZ$0
__ehfuncinfo$?Current_Dir@C_Encode_Interactif@@AAE?AV?$CStringT@_WV?$StrTraitMFC@_WV?$ChTraitsCRT@_W@ATL@@@@@ATL@@XZ DQ 00000000119930522r ; 2.33398e-314
	DD	FLAT:__unwindtable$?Current_Dir@C_Encode_Interactif@@AAE?AV?$CStringT@_WV?$StrTraitMFC@_WV?$ChTraitsCRT@_W@ATL@@@@@ATL@@XZ
	DQ	00000000000000000r		; 0
	DQ	00000000000000000r		; 0
	DQ	00000000100000000r		; 2.122e-314
xdata$x	ENDS
;	COMDAT xdata$x
xdata$x	SEGMENT
__ehfuncinfo$?Open_File@C_Encode_Interactif@@AAE_NPA_W@Z DQ 00000000519930522r ; 1.0822e-313
	DD	FLAT:__unwindtable$?Open_File@C_Encode_Interactif@@AAE_NPA_W@Z
	DQ	00000000000000000r		; 0
	DQ	00000000000000000r		; 0
	DQ	00000000100000000r		; 2.122e-314
__unwindtable$?Open_File@C_Encode_Interactif@@AAE_NPA_W@Z DD 0ffffffffH
	DD	FLAT:__unwindfunclet$?Open_File@C_Encode_Interactif@@AAE_NPA_W@Z$0
	DD	00H
	DD	FLAT:__unwindfunclet$?Open_File@C_Encode_Interactif@@AAE_NPA_W@Z$4
	DD	00H
	DD	FLAT:__unwindfunclet$?Open_File@C_Encode_Interactif@@AAE_NPA_W@Z$1
	DD	02H
	DD	FLAT:__unwindfunclet$?Open_File@C_Encode_Interactif@@AAE_NPA_W@Z$2
	DD	03H
	DD	FLAT:__unwindfunclet$?Open_File@C_Encode_Interactif@@AAE_NPA_W@Z$3
END
