; Listing generated by Microsoft (R) Optimizing Compiler Version 19.29.30133.0 

	TITLE	j:\work\aes\aes\aes\release\calcul_temps.obj
	.686P
	.XMM
	include listing.inc
	.model	flat

INCLUDELIB OLDNAMES

PUBLIC	??_R2Calcul_temps@@8				; Calcul_temps::`RTTI Base Class Array'
PUBLIC	??_R1A@?0A@EA@Calcul_temps@@8			; Calcul_temps::`RTTI Base Class Descriptor at (0,-1,0,64)'
PUBLIC	??_R3Calcul_temps@@8				; Calcul_temps::`RTTI Class Hierarchy Descriptor'
PUBLIC	??_R0?AVCalcul_temps@@@8			; Calcul_temps `RTTI Type Descriptor'
PUBLIC	??_R4Calcul_temps@@6B@				; Calcul_temps::`RTTI Complete Object Locator'
PUBLIC	??_7Calcul_temps@@6B@				; Calcul_temps::`vftable'
EXTRN	__ftime64_s:PROC
;	COMDAT ??_7Calcul_temps@@6B@
CONST	SEGMENT
??_7Calcul_temps@@6B@ DD FLAT:??_R4Calcul_temps@@6B@	; Calcul_temps::`vftable'
	DD	FLAT:??_ECalcul_temps@@UAEPAXI@Z
CONST	ENDS
;	COMDAT ??_R4Calcul_temps@@6B@
rdata$r	SEGMENT
??_R4Calcul_temps@@6B@ DD 00H				; Calcul_temps::`RTTI Complete Object Locator'
	DD	00H
	DD	00H
	DD	FLAT:??_R0?AVCalcul_temps@@@8
	DD	FLAT:??_R3Calcul_temps@@8
rdata$r	ENDS
;	COMDAT ??_R0?AVCalcul_temps@@@8
data$rs	SEGMENT
??_R0?AVCalcul_temps@@@8 DD FLAT:??_7type_info@@6B@	; Calcul_temps `RTTI Type Descriptor'
	DD	00H
	DB	'.?AVCalcul_temps@@', 00H
data$rs	ENDS
;	COMDAT ??_R3Calcul_temps@@8
rdata$r	SEGMENT
??_R3Calcul_temps@@8 DD 00H				; Calcul_temps::`RTTI Class Hierarchy Descriptor'
	DD	00H
	DD	01H
	DD	FLAT:??_R2Calcul_temps@@8
rdata$r	ENDS
;	COMDAT ??_R1A@?0A@EA@Calcul_temps@@8
rdata$r	SEGMENT
??_R1A@?0A@EA@Calcul_temps@@8 DD FLAT:??_R0?AVCalcul_temps@@@8 ; Calcul_temps::`RTTI Base Class Descriptor at (0,-1,0,64)'
	DD	00H
	DD	00H
	DD	0ffffffffH
	DD	00H
	DD	040H
	DD	FLAT:??_R3Calcul_temps@@8
rdata$r	ENDS
;	COMDAT ??_R2Calcul_temps@@8
rdata$r	SEGMENT
??_R2Calcul_temps@@8 DD FLAT:??_R1A@?0A@EA@Calcul_temps@@8 ; Calcul_temps::`RTTI Base Class Array'
PUBLIC	??1Calcul_temps@@UAE@XZ				; Calcul_temps::~Calcul_temps
PUBLIC	?Build@Calcul_temps@@AAE_KXZ			; Calcul_temps::Build
PUBLIC	??_GCalcul_temps@@UAEPAXI@Z			; Calcul_temps::`scalar deleting destructor'
PUBLIC	??0Calcul_temps@@QAE@XZ				; Calcul_temps::Calcul_temps
PUBLIC	?Start_time@Calcul_temps@@QAEXXZ		; Calcul_temps::Start_time
PUBLIC	?Stop_time@Calcul_temps@@QAEXXZ			; Calcul_temps::Stop_time
PUBLIC	?Read_time@Calcul_temps@@QAE_KXZ		; Calcul_temps::Read_time
EXTRN	??_ECalcul_temps@@UAEPAXI@Z:PROC		; Calcul_temps::`vector deleting destructor'
END
