; Listing generated by Microsoft (R) Optimizing Compiler Version 19.29.30038.1 

	TITLE	f:\work\aes\aes\aes\release\cfiledialogex.obj
	.686P
	.XMM
	include listing.inc
	.model	flat

INCLUDELIB OLDNAMES

PUBLIC	??_R2CFileDialogEx@@8				; CFileDialogEx::`RTTI Base Class Array'
PUBLIC	??_R2CFileDialog@@8				; CFileDialog::`RTTI Base Class Array'
PUBLIC	??_R1A@?0A@EA@CFileDialogEx@@8			; CFileDialogEx::`RTTI Base Class Descriptor at (0,-1,0,64)'
PUBLIC	??_R0?AVCCommonDialog@@@8			; CCommonDialog `RTTI Type Descriptor'
PUBLIC	??_R2CCommonDialog@@8				; CCommonDialog::`RTTI Base Class Array'
PUBLIC	??_R3CCommonDialog@@8				; CCommonDialog::`RTTI Class Hierarchy Descriptor'
PUBLIC	??_R1A@?0A@EA@CCommonDialog@@8			; CCommonDialog::`RTTI Base Class Descriptor at (0,-1,0,64)'
PUBLIC	??_R1A@?0A@EA@CFileDialog@@8			; CFileDialog::`RTTI Base Class Descriptor at (0,-1,0,64)'
PUBLIC	??_R3CFileDialog@@8				; CFileDialog::`RTTI Class Hierarchy Descriptor'
PUBLIC	??_R0?AVCFileDialog@@@8				; CFileDialog `RTTI Type Descriptor'
PUBLIC	??_R3CFileDialogEx@@8				; CFileDialogEx::`RTTI Class Hierarchy Descriptor'
PUBLIC	??_R0?AVCFileDialogEx@@@8			; CFileDialogEx `RTTI Type Descriptor'
PUBLIC	??_R4CFileDialogEx@@6B@				; CFileDialogEx::`RTTI Complete Object Locator'
PUBLIC	??_7CFileDialogEx@@6B@				; CFileDialogEx::`vftable'
EXTRN	?OnControlActivating@CFileDialog@@MAEXK@Z:PROC	; CFileDialog::OnControlActivating
EXTRN	?OnCheckButtonToggled@CFileDialog@@MAEXKH@Z:PROC ; CFileDialog::OnCheckButtonToggled
EXTRN	?OnButtonClicked@CFileDialog@@MAEXK@Z:PROC	; CFileDialog::OnButtonClicked
EXTRN	?OnItemSelected@CFileDialog@@MAEXKK@Z:PROC	; CFileDialog::OnItemSelected
EXTRN	?OnTypeChange@CFileDialog@@MAEXXZ:PROC		; CFileDialog::OnTypeChange
EXTRN	?OnFolderChange@CFileDialog@@MAEXXZ:PROC	; CFileDialog::OnFolderChange
EXTRN	?OnFileNameChange@CFileDialog@@MAEXXZ:PROC	; CFileDialog::OnFileNameChange
EXTRN	?OnInitDone@CFileDialog@@MAEXXZ:PROC		; CFileDialog::OnInitDone
EXTRN	?OnLBSelChangedNotify@CFileDialog@@MAEXIII@Z:PROC ; CFileDialog::OnLBSelChangedNotify
EXTRN	?OnFileNameOK@CFileDialog@@MAEHXZ:PROC		; CFileDialog::OnFileNameOK
EXTRN	?OnShareViolation@CFileDialog@@MAEIPB_W@Z:PROC	; CFileDialog::OnShareViolation
EXTRN	?UpdateOFNFromShellDialog@CFileDialog@@UAEXXZ:PROC ; CFileDialog::UpdateOFNFromShellDialog
EXTRN	?OnCancel@CCommonDialog@@MAEXXZ:PROC		; CCommonDialog::OnCancel
EXTRN	?OnOK@CCommonDialog@@MAEXXZ:PROC		; CCommonDialog::OnOK
EXTRN	?DoModal@CFileDialog@@UAEHXZ:PROC		; CFileDialog::DoModal
EXTRN	?PreTranslateMessage@CDialog@@UAEHPAUtagMSG@@@Z:PROC ; CDialog::PreTranslateMessage
EXTRN	?OnNotify@CFileDialog@@MAEHIJPAJ@Z:PROC		; CFileDialog::OnNotify
EXTRN	?OnCommand@CWnd@@MAEHIJ@Z:PROC			; CWnd::OnCommand
EXTRN	?GetInterfaceMap@CFileDialog@@MBEPBUAFX_INTERFACEMAP@@XZ:PROC ; CFileDialog::GetInterfaceMap
EXTRN	?GetRuntimeClass@CFileDialog@@UBEPAUCRuntimeClass@@XZ:PROC ; CFileDialog::GetRuntimeClass
EXTRN	?OnCtlColor@CWnd@@IAEPAUHBRUSH__@@PAVCDC@@PAV1@I@Z:PROC ; CWnd::OnCtlColor
EXTRN	?Attach@CGdiObject@@QAEHPAX@Z:PROC		; CGdiObject::Attach
EXTRN	__imp__CreateSolidBrush@4:PROC
EXTRN	?GetThisMessageMap@CCommonDialog@@KGPBUAFX_MSGMAP@@XZ:PROC ; CCommonDialog::GetThisMessageMap
EXTRN	??1CFileDialog@@UAE@XZ:PROC			; CFileDialog::~CFileDialog
EXTRN	??0CFileDialog@@QAE@HPB_W0K0PAVCWnd@@KH@Z:PROC	; CFileDialog::CFileDialog
;	COMDAT ??_7CFileDialogEx@@6B@
CONST	SEGMENT
??_7CFileDialogEx@@6B@ DD FLAT:??_R4CFileDialogEx@@6B@	; CFileDialogEx::`vftable'
	DD	FLAT:?GetRuntimeClass@CFileDialog@@UBEPAUCRuntimeClass@@XZ
	DD	FLAT:??_ECFileDialogEx@@UAEPAXI@Z
	DD	FLAT:?Serialize@CObject@@UAEXAAVCArchive@@@Z
	DD	FLAT:?OnCmdMsg@CDialog@@UAEHIHPAXPAUAFX_CMDHANDLERINFO@@@Z
	DD	FLAT:?OnFinalRelease@CWnd@@UAEXXZ
	DD	FLAT:?IsInvokeAllowed@CCmdTarget@@UAEHJ@Z
	DD	FLAT:?GetDispatchIID@CCmdTarget@@UAEHPAU_GUID@@@Z
	DD	FLAT:?GetTypeInfoCount@CCmdTarget@@UAEIXZ
	DD	FLAT:?GetTypeLibCache@CCmdTarget@@UAEPAVCTypeLibCache@@XZ
	DD	FLAT:?GetTypeLib@CCmdTarget@@UAEJKPAPAUITypeLib@@@Z
	DD	FLAT:?GetMessageMap@CFileDialogEx@@MBEPBUAFX_MSGMAP@@XZ
	DD	FLAT:?GetCommandMap@CCmdTarget@@MBEPBUAFX_OLECMDMAP@@XZ
	DD	FLAT:?GetDispatchMap@CCmdTarget@@MBEPBUAFX_DISPMAP@@XZ
	DD	FLAT:?GetConnectionMap@CCmdTarget@@MBEPBUAFX_CONNECTIONMAP@@XZ
	DD	FLAT:?GetInterfaceMap@CFileDialog@@MBEPBUAFX_INTERFACEMAP@@XZ
	DD	FLAT:?GetEventSinkMap@CCmdTarget@@MBEPBUAFX_EVENTSINKMAP@@XZ
	DD	FLAT:?OnCreateAggregates@CCmdTarget@@UAEHXZ
	DD	FLAT:?GetInterfaceHook@CCmdTarget@@UAEPAUIUnknown@@PBX@Z
	DD	FLAT:?GetExtraConnectionPoints@CCmdTarget@@MAEHPAVCPtrArray@@@Z
	DD	FLAT:?GetConnectionHook@CCmdTarget@@MAEPAUIConnectionPoint@@ABU_GUID@@@Z
	DD	FLAT:?PreSubclassWindow@CWnd@@UAEXXZ
	DD	FLAT:?Create@CWnd@@UAEHPB_W0KABUtagRECT@@PAV1@IPAUCCreateContext@@@Z
	DD	FLAT:?CreateEx@CWnd@@UAEHKPB_W0KABUtagRECT@@PAV1@IPAX@Z
	DD	FLAT:?CreateEx@CWnd@@UAEHKPB_W0KHHHHPAUHWND__@@PAUHMENU__@@PAX@Z
	DD	FLAT:?DestroyWindow@CWnd@@UAEHXZ
	DD	FLAT:?PreCreateWindow@CWnd@@UAEHAAUtagCREATESTRUCTW@@@Z
	DD	FLAT:?CalcWindowRect@CWnd@@UAEXPAUtagRECT@@I@Z
	DD	FLAT:?GetMenu@CWnd@@UBEPAVCMenu@@XZ
	DD	FLAT:?SetMenu@CWnd@@UAEHPAVCMenu@@@Z
	DD	FLAT:?OnToolHitTest@CWnd@@UBEHVCPoint@@PAUtagTOOLINFOW@@@Z
	DD	FLAT:?GetScrollBarCtrl@CWnd@@UBEPAVCScrollBar@@H@Z
	DD	FLAT:?WinHelpW@CWnd@@UAEXKI@Z
	DD	FLAT:?HtmlHelpW@CWnd@@UAEXKI@Z
	DD	FLAT:?WinHelpInternal@CWnd@@UAEXKI@Z
	DD	FLAT:?ContinueModal@CWnd@@UAEHXZ
	DD	FLAT:?EndModalLoop@CWnd@@UAEXH@Z
	DD	FLAT:?OnDrawIconicThumbnailOrLivePreview@CWnd@@UAEXAAVCDC@@VCRect@@VCSize@@HAAH@Z
	DD	FLAT:?EnsureStdObj@CWnd@@UAEJXZ
	DD	FLAT:?get_accParent@CWnd@@UAEJPAPAUIDispatch@@@Z
	DD	FLAT:?get_accChildCount@CWnd@@UAEJPAJ@Z
	DD	FLAT:?get_accChild@CWnd@@UAEJUtagVARIANT@@PAPAUIDispatch@@@Z
	DD	FLAT:?get_accName@CWnd@@UAEJUtagVARIANT@@PAPA_W@Z
	DD	FLAT:?get_accValue@CWnd@@UAEJUtagVARIANT@@PAPA_W@Z
	DD	FLAT:?get_accDescription@CWnd@@UAEJUtagVARIANT@@PAPA_W@Z
	DD	FLAT:?get_accRole@CWnd@@UAEJUtagVARIANT@@PAU2@@Z
	DD	FLAT:?get_accState@CWnd@@UAEJUtagVARIANT@@PAU2@@Z
	DD	FLAT:?get_accHelp@CWnd@@UAEJUtagVARIANT@@PAPA_W@Z
	DD	FLAT:?get_accHelpTopic@CWnd@@UAEJPAPA_WUtagVARIANT@@PAJ@Z
	DD	FLAT:?get_accKeyboardShortcut@CWnd@@UAEJUtagVARIANT@@PAPA_W@Z
	DD	FLAT:?get_accFocus@CWnd@@UAEJPAUtagVARIANT@@@Z
	DD	FLAT:?get_accSelection@CWnd@@UAEJPAUtagVARIANT@@@Z
	DD	FLAT:?get_accDefaultAction@CWnd@@UAEJUtagVARIANT@@PAPA_W@Z
	DD	FLAT:?accSelect@CWnd@@UAEJJUtagVARIANT@@@Z
	DD	FLAT:?accLocation@CWnd@@UAEJPAJ000UtagVARIANT@@@Z
	DD	FLAT:?accNavigate@CWnd@@UAEJJUtagVARIANT@@PAU2@@Z
	DD	FLAT:?accHitTest@CWnd@@UAEJJJPAUtagVARIANT@@@Z
	DD	FLAT:?accDoDefaultAction@CWnd@@UAEJUtagVARIANT@@@Z
	DD	FLAT:?put_accName@CWnd@@UAEJUtagVARIANT@@PA_W@Z
	DD	FLAT:?put_accValue@CWnd@@UAEJUtagVARIANT@@PA_W@Z
	DD	FLAT:?SetProxy@CWnd@@UAEJPAUIAccessibleProxy@@@Z
	DD	FLAT:?CreateAccessibleProxy@CWnd@@UAEJIJPAJ@Z
	DD	FLAT:?OnCommand@CWnd@@MAEHIJ@Z
	DD	FLAT:?OnNotify@CFileDialog@@MAEHIJPAJ@Z
	DD	FLAT:?GetSuperWndProcAddr@CWnd@@MAEPAP6GJPAUHWND__@@IIJ@ZXZ
	DD	FLAT:?DoDataExchange@CFileDialogEx@@MAEXPAVCDataExchange@@@Z
	DD	FLAT:?BeginModalState@CWnd@@UAEXXZ
	DD	FLAT:?EndModalState@CWnd@@UAEXXZ
	DD	FLAT:?PreTranslateMessage@CDialog@@UAEHPAUtagMSG@@@Z
	DD	FLAT:?OnAmbientProperty@CWnd@@UAEHPAVCOleControlSite@@JPAUtagVARIANT@@@Z
	DD	FLAT:?WindowProc@CWnd@@MAEJIIJ@Z
	DD	FLAT:?OnWndMsg@CWnd@@MAEHIIJPAJ@Z
	DD	FLAT:?DefWindowProcW@CWnd@@MAEJIIJ@Z
	DD	FLAT:?PostNcDestroy@CWnd@@MAEXXZ
	DD	FLAT:?OnChildNotify@CWnd@@MAEHIIJPAJ@Z
	DD	FLAT:?OnTouchInputs@CWnd@@MAEHIPAUtagTOUCHINPUT@@@Z
	DD	FLAT:?OnTouchInput@CWnd@@MAEHVCPoint@@HHPAUtagTOUCHINPUT@@@Z
	DD	FLAT:?GetGestureStatus@CWnd@@MAEKVCPoint@@@Z
	DD	FLAT:?OnGestureZoom@CWnd@@MAEHVCPoint@@J@Z
	DD	FLAT:?OnGesturePan@CWnd@@MAEHVCPoint@@0@Z
	DD	FLAT:?OnGestureRotate@CWnd@@MAEHVCPoint@@N@Z
	DD	FLAT:?OnGestureTwoFingerTap@CWnd@@MAEHVCPoint@@@Z
	DD	FLAT:?OnGesturePressAndTap@CWnd@@MAEHVCPoint@@J@Z
	DD	FLAT:?ResizeDynamicLayout@CWnd@@MAEXXZ
	DD	FLAT:?CheckAutoCenter@CDialog@@UAEHXZ
	DD	FLAT:?IsFrameWnd@CWnd@@UBEHXZ
	DD	FLAT:?CreateControlContainer@CWnd@@MAEHPAPAVCOleControlContainer@@@Z
	DD	FLAT:?CreateControlSite@CWnd@@MAEHPAVCOleControlContainer@@PAPAVCOleControlSite@@IABU_GUID@@@Z
	DD	FLAT:?SetOccDialogInfo@CDialog@@MAEHPAU_AFX_OCC_DIALOG_INFO@@@Z
	DD	FLAT:?GetOccDialogInfo@CDialog@@MAEPAU_AFX_OCC_DIALOG_INFO@@XZ
	DD	FLAT:?Create@CDialog@@UAEHIPAVCWnd@@@Z
	DD	FLAT:?Create@CDialog@@UAEHPB_WPAVCWnd@@@Z
	DD	FLAT:?CreateIndirect@CDialog@@UAEHPAXPAVCWnd@@@Z
	DD	FLAT:?CreateIndirect@CDialog@@UAEHPBUDLGTEMPLATE@@PAVCWnd@@PAX@Z
	DD	FLAT:?DoModal@CFileDialog@@UAEHXZ
	DD	FLAT:?OnInitDialog@CDialog@@UAEHXZ
	DD	FLAT:?OnSetFont@CDialog@@UAEXPAVCFont@@@Z
	DD	FLAT:?OnOK@CCommonDialog@@MAEXXZ
	DD	FLAT:?OnCancel@CCommonDialog@@MAEXXZ
	DD	FLAT:?PreInitDialog@CDialog@@MAEXXZ
	DD	FLAT:?UpdateOFNFromShellDialog@CFileDialog@@UAEXXZ
	DD	FLAT:?OnShareViolation@CFileDialog@@MAEIPB_W@Z
	DD	FLAT:?OnFileNameOK@CFileDialog@@MAEHXZ
	DD	FLAT:?OnLBSelChangedNotify@CFileDialog@@MAEXIII@Z
	DD	FLAT:?OnInitDone@CFileDialog@@MAEXXZ
	DD	FLAT:?OnFileNameChange@CFileDialog@@MAEXXZ
	DD	FLAT:?OnFolderChange@CFileDialog@@MAEXXZ
	DD	FLAT:?OnTypeChange@CFileDialog@@MAEXXZ
	DD	FLAT:?OnItemSelected@CFileDialog@@MAEXKK@Z
	DD	FLAT:?OnButtonClicked@CFileDialog@@MAEXK@Z
	DD	FLAT:?OnCheckButtonToggled@CFileDialog@@MAEXKH@Z
	DD	FLAT:?OnControlActivating@CFileDialog@@MAEXK@Z
CONST	ENDS
;	COMDAT ?_messageEntries@?1??GetThisMessageMap@CFileDialogEx@@KGPBUAFX_MSGMAP@@XZ@4QBUAFX_MSGMAP_ENTRY@@B
CONST	SEGMENT
?_messageEntries@?1??GetThisMessageMap@CFileDialogEx@@KGPBUAFX_MSGMAP@@XZ@4QBUAFX_MSGMAP_ENTRY@@B DD 019H ; `CFileDialogEx::GetThisMessageMap'::`2'::_messageEntries
	DD	00H
	DD	00H
	DD	00H
	DD	08H
	DD	FLAT:?OnCtlColor@CFileDialogEx@@IAEPAUHBRUSH__@@PAVCDC@@PAVCWnd@@I@Z
	DD	00H
	DD	00H
	DD	00H
	DD	00H
	DD	00H
	DD	00H
CONST	ENDS
;	COMDAT ?messageMap@?1??GetThisMessageMap@CFileDialogEx@@KGPBUAFX_MSGMAP@@XZ@4U3@B
CONST	SEGMENT
?messageMap@?1??GetThisMessageMap@CFileDialogEx@@KGPBUAFX_MSGMAP@@XZ@4U3@B DD FLAT:?GetThisMessageMap@CCommonDialog@@KGPBUAFX_MSGMAP@@XZ ; `CFileDialogEx::GetThisMessageMap'::`2'::messageMap
	DD	FLAT:?_messageEntries@?1??GetThisMessageMap@CFileDialogEx@@KGPBUAFX_MSGMAP@@XZ@4QBUAFX_MSGMAP_ENTRY@@B
CONST	ENDS
;	COMDAT ??_R4CFileDialogEx@@6B@
rdata$r	SEGMENT
??_R4CFileDialogEx@@6B@ DD 00H				; CFileDialogEx::`RTTI Complete Object Locator'
	DD	00H
	DD	00H
	DD	FLAT:??_R0?AVCFileDialogEx@@@8
	DD	FLAT:??_R3CFileDialogEx@@8
rdata$r	ENDS
;	COMDAT ??_R0?AVCFileDialogEx@@@8
data$rs	SEGMENT
??_R0?AVCFileDialogEx@@@8 DD FLAT:??_7type_info@@6B@	; CFileDialogEx `RTTI Type Descriptor'
	DD	00H
	DB	'.?AVCFileDialogEx@@', 00H
data$rs	ENDS
;	COMDAT ??_R3CFileDialogEx@@8
rdata$r	SEGMENT
??_R3CFileDialogEx@@8 DD 00H				; CFileDialogEx::`RTTI Class Hierarchy Descriptor'
	DD	00H
	DD	07H
	DD	FLAT:??_R2CFileDialogEx@@8
rdata$r	ENDS
;	COMDAT ??_R0?AVCFileDialog@@@8
data$rs	SEGMENT
??_R0?AVCFileDialog@@@8 DD FLAT:??_7type_info@@6B@	; CFileDialog `RTTI Type Descriptor'
	DD	00H
	DB	'.?AVCFileDialog@@', 00H
data$rs	ENDS
;	COMDAT ??_R3CFileDialog@@8
rdata$r	SEGMENT
??_R3CFileDialog@@8 DD 00H				; CFileDialog::`RTTI Class Hierarchy Descriptor'
	DD	00H
	DD	06H
	DD	FLAT:??_R2CFileDialog@@8
rdata$r	ENDS
;	COMDAT ??_R1A@?0A@EA@CFileDialog@@8
rdata$r	SEGMENT
??_R1A@?0A@EA@CFileDialog@@8 DD FLAT:??_R0?AVCFileDialog@@@8 ; CFileDialog::`RTTI Base Class Descriptor at (0,-1,0,64)'
	DD	05H
	DD	00H
	DD	0ffffffffH
	DD	00H
	DD	040H
	DD	FLAT:??_R3CFileDialog@@8
rdata$r	ENDS
;	COMDAT ??_R1A@?0A@EA@CCommonDialog@@8
rdata$r	SEGMENT
??_R1A@?0A@EA@CCommonDialog@@8 DD FLAT:??_R0?AVCCommonDialog@@@8 ; CCommonDialog::`RTTI Base Class Descriptor at (0,-1,0,64)'
	DD	04H
	DD	00H
	DD	0ffffffffH
	DD	00H
	DD	040H
	DD	FLAT:??_R3CCommonDialog@@8
rdata$r	ENDS
;	COMDAT ??_R3CCommonDialog@@8
rdata$r	SEGMENT
??_R3CCommonDialog@@8 DD 00H				; CCommonDialog::`RTTI Class Hierarchy Descriptor'
	DD	00H
	DD	05H
	DD	FLAT:??_R2CCommonDialog@@8
rdata$r	ENDS
;	COMDAT ??_R2CCommonDialog@@8
rdata$r	SEGMENT
??_R2CCommonDialog@@8 DD FLAT:??_R1A@?0A@EA@CCommonDialog@@8 ; CCommonDialog::`RTTI Base Class Array'
	DD	FLAT:??_R1A@?0A@EA@CDialog@@8
	DD	FLAT:??_R1A@?0A@EA@CWnd@@8
	DD	FLAT:??_R1A@?0A@EA@CCmdTarget@@8
	DD	FLAT:??_R1A@?0A@EA@CObject@@8
rdata$r	ENDS
;	COMDAT ??_R0?AVCCommonDialog@@@8
data$rs	SEGMENT
??_R0?AVCCommonDialog@@@8 DD FLAT:??_7type_info@@6B@	; CCommonDialog `RTTI Type Descriptor'
	DD	00H
	DB	'.?AVCCommonDialog@@', 00H
data$rs	ENDS
;	COMDAT ??_R1A@?0A@EA@CFileDialogEx@@8
rdata$r	SEGMENT
??_R1A@?0A@EA@CFileDialogEx@@8 DD FLAT:??_R0?AVCFileDialogEx@@@8 ; CFileDialogEx::`RTTI Base Class Descriptor at (0,-1,0,64)'
	DD	06H
	DD	00H
	DD	0ffffffffH
	DD	00H
	DD	040H
	DD	FLAT:??_R3CFileDialogEx@@8
rdata$r	ENDS
;	COMDAT ??_R2CFileDialog@@8
rdata$r	SEGMENT
??_R2CFileDialog@@8 DD FLAT:??_R1A@?0A@EA@CFileDialog@@8 ; CFileDialog::`RTTI Base Class Array'
	DD	FLAT:??_R1A@?0A@EA@CCommonDialog@@8
	DD	FLAT:??_R1A@?0A@EA@CDialog@@8
	DD	FLAT:??_R1A@?0A@EA@CWnd@@8
	DD	FLAT:??_R1A@?0A@EA@CCmdTarget@@8
	DD	FLAT:??_R1A@?0A@EA@CObject@@8
rdata$r	ENDS
;	COMDAT ??_R2CFileDialogEx@@8
rdata$r	SEGMENT
??_R2CFileDialogEx@@8 DD FLAT:??_R1A@?0A@EA@CFileDialogEx@@8 ; CFileDialogEx::`RTTI Base Class Array'
	DD	FLAT:??_R1A@?0A@EA@CFileDialog@@8
	DD	FLAT:??_R1A@?0A@EA@CCommonDialog@@8
	DD	FLAT:??_R1A@?0A@EA@CDialog@@8
	DD	FLAT:??_R1A@?0A@EA@CWnd@@8
	DD	FLAT:??_R1A@?0A@EA@CCmdTarget@@8
	DD	FLAT:??_R1A@?0A@EA@CObject@@8
PUBLIC	??0CBrush@@QAE@XZ				; CBrush::CBrush
PUBLIC	??0CGdiObject@@QAE@XZ				; CGdiObject::CGdiObject
PUBLIC	??0CObject@@IAE@XZ				; CObject::CObject
PUBLIC	?CreateSolidBrush@CBrush@@QAEHK@Z		; CBrush::CreateSolidBrush
PUBLIC	??BCBrush@@QBEPAUHBRUSH__@@XZ			; CBrush::operator HBRUSH__ *
PUBLIC	?GetSafeHandle@CGdiObject@@QBEPAXXZ		; CGdiObject::GetSafeHandle
PUBLIC	?OnCtlColor@CFileDialogEx@@IAEPAUHBRUSH__@@PAVCDC@@PAVCWnd@@I@Z ; CFileDialogEx::OnCtlColor
PUBLIC	?GetThisMessageMap@CFileDialogEx@@KGPBUAFX_MSGMAP@@XZ ; CFileDialogEx::GetThisMessageMap
PUBLIC	?GetMessageMap@CFileDialogEx@@MBEPBUAFX_MSGMAP@@XZ ; CFileDialogEx::GetMessageMap
PUBLIC	?DoDataExchange@CFileDialogEx@@MAEXPAVCDataExchange@@@Z ; CFileDialogEx::DoDataExchange
PUBLIC	??0CFileDialogEx@@QAE@HV?$CStringT@_WV?$StrTraitMFC@_WV?$ChTraitsCRT@_W@ATL@@@@@ATL@@0H0PAVCWnd@@@Z ; CFileDialogEx::CFileDialogEx
PUBLIC	??1CFileDialogEx@@UAE@XZ			; CFileDialogEx::~CFileDialogEx
PUBLIC	??_GCFileDialogEx@@UAEPAXI@Z			; CFileDialogEx::`scalar deleting destructor'
EXTRN	??_ECFileDialogEx@@UAEPAXI@Z:PROC		; CFileDialogEx::`vector deleting destructor'
;	COMDAT xdata$x
xdata$x	SEGMENT
__unwindtable$??0CFileDialogEx@@QAE@HV?$CStringT@_WV?$StrTraitMFC@_WV?$ChTraitsCRT@_W@ATL@@@@@ATL@@0H0PAVCWnd@@@Z DD 0ffffffffH
	DD	FLAT:__unwindfunclet$??0CFileDialogEx@@QAE@HV?$CStringT@_WV?$StrTraitMFC@_WV?$ChTraitsCRT@_W@ATL@@@@@ATL@@0H0PAVCWnd@@@Z$0
	DD	00H
	DD	FLAT:__unwindfunclet$??0CFileDialogEx@@QAE@HV?$CStringT@_WV?$StrTraitMFC@_WV?$ChTraitsCRT@_W@ATL@@@@@ATL@@0H0PAVCWnd@@@Z$1
	DD	01H
	DD	FLAT:__unwindfunclet$??0CFileDialogEx@@QAE@HV?$CStringT@_WV?$StrTraitMFC@_WV?$ChTraitsCRT@_W@ATL@@@@@ATL@@0H0PAVCWnd@@@Z$2
__ehfuncinfo$??0CFileDialogEx@@QAE@HV?$CStringT@_WV?$StrTraitMFC@_WV?$ChTraitsCRT@_W@ATL@@@@@ATL@@0H0PAVCWnd@@@Z DD 019930522H
	DD	03H
	DD	FLAT:__unwindtable$??0CFileDialogEx@@QAE@HV?$CStringT@_WV?$StrTraitMFC@_WV?$ChTraitsCRT@_W@ATL@@@@@ATL@@0H0PAVCWnd@@@Z
	DD	2 DUP(00H)
	DD	2 DUP(00H)
	DD	00H
	DD	01H
; Function compile flags: /Ogtp
; File C:\Program Files (x86)\Microsoft Visual Studio\2019\Enterprise\VC\Tools\MSVC\14.29.30037\atlmfc\include\afxwin1.inl
; File C:\Program Files (x86)\Microsoft Visual Studio\2019\Enterprise\VC\Tools\MSVC\14.29.30037\atlmfc\include\afx.inl
;	COMDAT ??_GCFileDialogEx@@UAEPAXI@Z
_TEXT	SEGMENT
___flags$ = 8						; size = 4
??_GCFileDialogEx@@UAEPAXI@Z PROC			; CFileDialogEx::`scalar deleting destructor', COMDAT
; _this$ = ecx
  00000	55		 push	 ebp
  00001	8b ec		 mov	 ebp, esp
; File C:\Program Files (x86)\Microsoft Visual Studio\2019\Enterprise\VC\Tools\MSVC\14.29.30037\atlmfc\include\afxwin1.inl

; 130  : 	{ }

  00003	56		 push	 esi
  00004	8b f1		 mov	 esi, ecx
  00006	8d 8e e8 04 00
	00		 lea	 ecx, DWORD PTR [esi+1256]
  0000c	c7 01 00 00 00
	00		 mov	 DWORD PTR [ecx], OFFSET ??_7CBrush@@6B@
  00012	e8 00 00 00 00	 call	 ??1CGdiObject@@UAE@XZ	; CGdiObject::~CGdiObject
  00017	8b ce		 mov	 ecx, esi
  00019	e8 00 00 00 00	 call	 ??1CFileDialog@@UAE@XZ	; CFileDialog::~CFileDialog
  0001e	8b 45 08	 mov	 eax, DWORD PTR ___flags$[ebp]
  00021	a8 01		 test	 al, 1
  00023	74 22		 je	 SHORT $LN15@scalar
  00025	a8 04		 test	 al, 4
  00027	75 10		 jne	 SHORT $LN3@scalar
; File C:\Program Files (x86)\Microsoft Visual Studio\2019\Enterprise\VC\Tools\MSVC\14.29.30037\atlmfc\include\afx.inl

; 112  : 	{ ::operator delete(p); }

  00029	56		 push	 esi
  0002a	e8 00 00 00 00	 call	 ??3@YAXPAX@Z		; operator delete
  0002f	83 c4 04	 add	 esp, 4
  00032	8b c6		 mov	 eax, esi
  00034	5e		 pop	 esi
  00035	5d		 pop	 ebp
  00036	c2 04 00	 ret	 4
$LN3@scalar:
  00039	68 f0 04 00 00	 push	 1264			; 000004f0H
  0003e	56		 push	 esi
  0003f	e8 00 00 00 00	 call	 ?__global_delete@@YAXPAXI@Z ; __global_delete
  00044	83 c4 08	 add	 esp, 8
$LN15@scalar:
  00047	8b c6		 mov	 eax, esi
  00049	5e		 pop	 esi
  0004a	5d		 pop	 ebp
  0004b	c2 04 00	 ret	 4
??_GCFileDialogEx@@UAEPAXI@Z ENDP			; CFileDialogEx::`scalar deleting destructor'
_TEXT	ENDS
; Function compile flags: /Ogtp
; File C:\Program Files (x86)\Microsoft Visual Studio\2019\Enterprise\VC\Tools\MSVC\14.29.30037\atlmfc\include\afxwin1.inl
;	COMDAT ??1CFileDialogEx@@UAE@XZ
_TEXT	SEGMENT
??1CFileDialogEx@@UAE@XZ PROC				; CFileDialogEx::~CFileDialogEx, COMDAT
; _this$ = ecx

; 130  : 	{ }

  00000	56		 push	 esi
  00001	8b f1		 mov	 esi, ecx
  00003	8d 8e e8 04 00
	00		 lea	 ecx, DWORD PTR [esi+1256]
  00009	c7 01 00 00 00
	00		 mov	 DWORD PTR [ecx], OFFSET ??_7CBrush@@6B@
  0000f	e8 00 00 00 00	 call	 ??1CGdiObject@@UAE@XZ	; CGdiObject::~CGdiObject
  00014	8b ce		 mov	 ecx, esi
  00016	5e		 pop	 esi
  00017	e9 00 00 00 00	 jmp	 ??1CFileDialog@@UAE@XZ	; CFileDialog::~CFileDialog
??1CFileDialogEx@@UAE@XZ ENDP				; CFileDialogEx::~CFileDialogEx
_TEXT	ENDS
; Function compile flags: /Ogtp
; File F:\work\AES\AES\AES\CfiledialogEx.cpp
; File C:\Program Files (x86)\Microsoft Visual Studio\2019\Enterprise\VC\Tools\MSVC\14.29.30037\atlmfc\include\atlsimpstr.h
; File F:\work\AES\AES\AES\CfiledialogEx.cpp
; File C:\Program Files (x86)\Microsoft Visual Studio\2019\Enterprise\VC\Tools\MSVC\14.29.30037\atlmfc\include\atlsimpstr.h
; File C:\Program Files (x86)\Microsoft Visual Studio\2019\Enterprise\VC\Tools\MSVC\14.29.30037\atlmfc\include\afxwin1.inl
; File C:\Program Files (x86)\Microsoft Visual Studio\2019\Enterprise\VC\Tools\MSVC\14.29.30037\atlmfc\include\atlsimpstr.h
; File F:\work\AES\AES\AES\CfiledialogEx.cpp
; File C:\Program Files (x86)\Microsoft Visual Studio\2019\Enterprise\VC\Tools\MSVC\14.29.30037\atlmfc\include\atlsimpstr.h
; File F:\work\AES\AES\AES\CfiledialogEx.cpp
; File C:\Program Files (x86)\Microsoft Visual Studio\2019\Enterprise\VC\Tools\MSVC\14.29.30037\atlmfc\include\atlsimpstr.h
; File F:\work\AES\AES\AES\CfiledialogEx.cpp
;	COMDAT ??0CFileDialogEx@@QAE@HV?$CStringT@_WV?$StrTraitMFC@_WV?$ChTraitsCRT@_W@ATL@@@@@ATL@@0H0PAVCWnd@@@Z
_TEXT	SEGMENT
_this$GSCopy$ = -16					; size = 4
_this$ = -16						; size = 4
__$EHRec$ = -12						; size = 12
_sens$dead$ = 8						; size = 4
_value$ = 12						; size = 4
_File$ = 16						; size = 4
_tstus$ = 20						; size = 4
_OpenFilter$ = 24					; size = 4
_h_win$ = 28						; size = 4
??0CFileDialogEx@@QAE@HV?$CStringT@_WV?$StrTraitMFC@_WV?$ChTraitsCRT@_W@ATL@@@@@ATL@@0H0PAVCWnd@@@Z PROC ; CFileDialogEx::CFileDialogEx, COMDAT
; _this$ = ecx

; 34   :      {

  00000	55		 push	 ebp
  00001	8b ec		 mov	 ebp, esp
  00003	6a ff		 push	 -1
  00005	68 00 00 00 00	 push	 __ehhandler$??0CFileDialogEx@@QAE@HV?$CStringT@_WV?$StrTraitMFC@_WV?$ChTraitsCRT@_W@ATL@@@@@ATL@@0H0PAVCWnd@@@Z
  0000a	64 a1 00 00 00
	00		 mov	 eax, DWORD PTR fs:0
  00010	50		 push	 eax
  00011	51		 push	 ecx
  00012	56		 push	 esi
  00013	57		 push	 edi
  00014	a1 00 00 00 00	 mov	 eax, DWORD PTR ___security_cookie
  00019	33 c5		 xor	 eax, ebp
  0001b	50		 push	 eax
  0001c	8d 45 f4	 lea	 eax, DWORD PTR __$EHRec$[ebp]
  0001f	64 a3 00 00 00
	00		 mov	 DWORD PTR fs:0, eax
  00025	8b f9		 mov	 edi, ecx
  00027	89 7d f0	 mov	 DWORD PTR _this$[ebp], edi
  0002a	8b 4d 14	 mov	 ecx, DWORD PTR _tstus$[ebp]
  0002d	8b 45 1c	 mov	 eax, DWORD PTR _h_win$[ebp]
  00030	89 7d f0	 mov	 DWORD PTR _this$GSCopy$[ebp], edi
  00033	6a 01		 push	 1
  00035	6a 00		 push	 0
  00037	50		 push	 eax
  00038	c7 45 fc 02 00
	00 00		 mov	 DWORD PTR __$EHRec$[ebp+8], 2
  0003f	ff 75 18	 push	 DWORD PTR _OpenFilter$[ebp]
  00042	51		 push	 ecx
  00043	ff 75 10	 push	 DWORD PTR _File$[ebp]
  00046	8b cf		 mov	 ecx, edi
  00048	ff 75 0c	 push	 DWORD PTR _value$[ebp]
  0004b	6a 01		 push	 1
  0004d	e8 00 00 00 00	 call	 ??0CFileDialog@@QAE@HPB_W0K0PAVCWnd@@KH@Z ; CFileDialog::CFileDialog

; 38   :      }

  00052	c6 45 fc 01	 mov	 BYTE PTR __$EHRec$[ebp+8], 1
; File C:\Program Files (x86)\Microsoft Visual Studio\2019\Enterprise\VC\Tools\MSVC\14.29.30037\atlmfc\include\atlsimpstr.h

; 88   : 		if( _InterlockedDecrement( &nRefs ) <= 0 )

  00056	83 ce ff	 or	 esi, -1

; 800  : 		return( reinterpret_cast< CStringData* >( m_pszData )-1 );

  00059	8b 55 0c	 mov	 edx, DWORD PTR _value$[ebp]

; 88   : 		if( _InterlockedDecrement( &nRefs ) <= 0 )

  0005c	8b c6		 mov	 eax, esi
; File F:\work\AES\AES\AES\CfiledialogEx.cpp

; 34   :      {

  0005e	c7 07 00 00 00
	00		 mov	 DWORD PTR [edi], OFFSET ??_7CFileDialogEx@@6B@
; File C:\Program Files (x86)\Microsoft Visual Studio\2019\Enterprise\VC\Tools\MSVC\14.29.30037\atlmfc\include\atlsimpstr.h

; 800  : 		return( reinterpret_cast< CStringData* >( m_pszData )-1 );

  00064	83 c2 f0	 add	 edx, -16		; fffffff0H
; File C:\Program Files (x86)\Microsoft Visual Studio\2019\Enterprise\VC\Tools\MSVC\14.29.30037\atlmfc\include\afxwin1.inl

; 70   : 	{ m_hObject = NULL; }

  00067	c7 87 ec 04 00
	00 00 00 00 00	 mov	 DWORD PTR [edi+1260], 0

; 128  : 	{ }

  00071	c7 87 e8 04 00
	00 00 00 00 00	 mov	 DWORD PTR [edi+1256], OFFSET ??_7CBrush@@6B@
; File C:\Program Files (x86)\Microsoft Visual Studio\2019\Enterprise\VC\Tools\MSVC\14.29.30037\atlmfc\include\atlsimpstr.h

; 88   : 		if( _InterlockedDecrement( &nRefs ) <= 0 )

  0007b	f0 0f c1 42 0c	 lock	  xadd	 DWORD PTR [edx+12], eax
  00080	48		 dec	 eax
  00081	85 c0		 test	 eax, eax
  00083	7f 08		 jg	 SHORT $LN19@CFileDialo

; 89   : 		{
; 90   : 			pStringMgr->Free( this );

  00085	8b 0a		 mov	 ecx, DWORD PTR [edx]
  00087	52		 push	 edx
  00088	8b 01		 mov	 eax, DWORD PTR [ecx]
  0008a	ff 50 04	 call	 DWORD PTR [eax+4]
$LN19@CFileDialo:
; File F:\work\AES\AES\AES\CfiledialogEx.cpp

; 38   :      }

  0008d	c6 45 fc 00	 mov	 BYTE PTR __$EHRec$[ebp+8], 0
; File C:\Program Files (x86)\Microsoft Visual Studio\2019\Enterprise\VC\Tools\MSVC\14.29.30037\atlmfc\include\atlsimpstr.h

; 88   : 		if( _InterlockedDecrement( &nRefs ) <= 0 )

  00091	8b c6		 mov	 eax, esi

; 800  : 		return( reinterpret_cast< CStringData* >( m_pszData )-1 );

  00093	8b 55 10	 mov	 edx, DWORD PTR _File$[ebp]
  00096	83 c2 f0	 add	 edx, -16		; fffffff0H

; 88   : 		if( _InterlockedDecrement( &nRefs ) <= 0 )

  00099	f0 0f c1 42 0c	 lock	  xadd	 DWORD PTR [edx+12], eax
  0009e	48		 dec	 eax
  0009f	85 c0		 test	 eax, eax
  000a1	7f 08		 jg	 SHORT $LN28@CFileDialo

; 89   : 		{
; 90   : 			pStringMgr->Free( this );

  000a3	8b 0a		 mov	 ecx, DWORD PTR [edx]
  000a5	52		 push	 edx
  000a6	8b 01		 mov	 eax, DWORD PTR [ecx]
  000a8	ff 50 04	 call	 DWORD PTR [eax+4]
$LN28@CFileDialo:
; File F:\work\AES\AES\AES\CfiledialogEx.cpp

; 38   :      }

  000ab	c7 45 fc ff ff
	ff ff		 mov	 DWORD PTR __$EHRec$[ebp+8], -1
; File C:\Program Files (x86)\Microsoft Visual Studio\2019\Enterprise\VC\Tools\MSVC\14.29.30037\atlmfc\include\atlsimpstr.h

; 800  : 		return( reinterpret_cast< CStringData* >( m_pszData )-1 );

  000b2	8b 45 18	 mov	 eax, DWORD PTR _OpenFilter$[ebp]
  000b5	83 c0 f0	 add	 eax, -16		; fffffff0H

; 88   : 		if( _InterlockedDecrement( &nRefs ) <= 0 )

  000b8	f0 0f c1 70 0c	 lock	  xadd	 DWORD PTR [eax+12], esi
  000bd	4e		 dec	 esi
  000be	85 f6		 test	 esi, esi
  000c0	7f 08		 jg	 SHORT $LN39@CFileDialo

; 89   : 		{
; 90   : 			pStringMgr->Free( this );

  000c2	8b 08		 mov	 ecx, DWORD PTR [eax]
  000c4	50		 push	 eax
  000c5	8b 11		 mov	 edx, DWORD PTR [ecx]
  000c7	ff 52 04	 call	 DWORD PTR [edx+4]
$LN39@CFileDialo:
; File F:\work\AES\AES\AES\CfiledialogEx.cpp

; 38   :      }

  000ca	8b c7		 mov	 eax, edi
  000cc	8b 4d f4	 mov	 ecx, DWORD PTR __$EHRec$[ebp]
  000cf	64 89 0d 00 00
	00 00		 mov	 DWORD PTR fs:0, ecx
  000d6	59		 pop	 ecx
  000d7	5f		 pop	 edi
  000d8	5e		 pop	 esi
  000d9	8b e5		 mov	 esp, ebp
  000db	5d		 pop	 ebp
  000dc	c2 18 00	 ret	 24			; 00000018H
_TEXT	ENDS
;	COMDAT text$x
text$x	SEGMENT
__unwindfunclet$??0CFileDialogEx@@QAE@HV?$CStringT@_WV?$StrTraitMFC@_WV?$ChTraitsCRT@_W@ATL@@@@@ATL@@0H0PAVCWnd@@@Z$0:
  00000	8d 4d 18	 lea	 ecx, DWORD PTR _OpenFilter$[ebp]
  00003	e9 00 00 00 00	 jmp	 ??1?$CStringT@_WV?$StrTraitMFC@_WV?$ChTraitsCRT@_W@ATL@@@@@ATL@@QAE@XZ ; ATL::CStringT<wchar_t,StrTraitMFC<wchar_t,ATL::ChTraitsCRT<wchar_t> > >::~CStringT<wchar_t,StrTraitMFC<wchar_t,ATL::ChTraitsCRT<wchar_t> > >
__unwindfunclet$??0CFileDialogEx@@QAE@HV?$CStringT@_WV?$StrTraitMFC@_WV?$ChTraitsCRT@_W@ATL@@@@@ATL@@0H0PAVCWnd@@@Z$1:
  00008	8d 4d 10	 lea	 ecx, DWORD PTR _File$[ebp]
  0000b	e9 00 00 00 00	 jmp	 ??1?$CStringT@_WV?$StrTraitMFC@_WV?$ChTraitsCRT@_W@ATL@@@@@ATL@@QAE@XZ ; ATL::CStringT<wchar_t,StrTraitMFC<wchar_t,ATL::ChTraitsCRT<wchar_t> > >::~CStringT<wchar_t,StrTraitMFC<wchar_t,ATL::ChTraitsCRT<wchar_t> > >
__unwindfunclet$??0CFileDialogEx@@QAE@HV?$CStringT@_WV?$StrTraitMFC@_WV?$ChTraitsCRT@_W@ATL@@@@@ATL@@0H0PAVCWnd@@@Z$2:
  00010	8d 4d 0c	 lea	 ecx, DWORD PTR _value$[ebp]
  00013	e9 00 00 00 00	 jmp	 ??1?$CStringT@_WV?$StrTraitMFC@_WV?$ChTraitsCRT@_W@ATL@@@@@ATL@@QAE@XZ ; ATL::CStringT<wchar_t,StrTraitMFC<wchar_t,ATL::ChTraitsCRT<wchar_t> > >::~CStringT<wchar_t,StrTraitMFC<wchar_t,ATL::ChTraitsCRT<wchar_t> > >
  00018	cc		 int	 3
  00019	cc		 int	 3
  0001a	cc		 int	 3
  0001b	cc		 int	 3
  0001c	cc		 int	 3
__ehhandler$??0CFileDialogEx@@QAE@HV?$CStringT@_WV?$StrTraitMFC@_WV?$ChTraitsCRT@_W@ATL@@@@@ATL@@0H0PAVCWnd@@@Z:
  0001d	90		 npad	 1
  0001e	90		 npad	 1
  0001f	8b 54 24 08	 mov	 edx, DWORD PTR [esp+8]
  00023	8d 42 0c	 lea	 eax, DWORD PTR [edx+12]
  00026	8b 4a f0	 mov	 ecx, DWORD PTR [edx-16]
  00029	33 c8		 xor	 ecx, eax
  0002b	e8 00 00 00 00	 call	 @__security_check_cookie@4
  00030	b8 00 00 00 00	 mov	 eax, OFFSET __ehfuncinfo$??0CFileDialogEx@@QAE@HV?$CStringT@_WV?$StrTraitMFC@_WV?$ChTraitsCRT@_W@ATL@@@@@ATL@@0H0PAVCWnd@@@Z
  00035	e9 00 00 00 00	 jmp	 ___CxxFrameHandler3
text$x	ENDS
??0CFileDialogEx@@QAE@HV?$CStringT@_WV?$StrTraitMFC@_WV?$ChTraitsCRT@_W@ATL@@@@@ATL@@0H0PAVCWnd@@@Z ENDP ; CFileDialogEx::CFileDialogEx
; Function compile flags: /Ogtp
; File F:\work\AES\AES\AES\CfiledialogEx.cpp
;	COMDAT ?DoDataExchange@CFileDialogEx@@MAEXPAVCDataExchange@@@Z
_TEXT	SEGMENT
_pDX$ = 8						; size = 4
?DoDataExchange@CFileDialogEx@@MAEXPAVCDataExchange@@@Z PROC ; CFileDialogEx::DoDataExchange, COMDAT
; _this$ = ecx

; 42   :          CDialog::DoDataExchange(pDX);
; 43   :          //{{AFX_DATA_MAP(CFileDialogEx)
; 44   :              // NOTE: the ClassWizard will add DDX and DDV calls here
; 45   :          //}}AFX_DATA_MAP
; 46   :      }

  00000	c2 04 00	 ret	 4
?DoDataExchange@CFileDialogEx@@MAEXPAVCDataExchange@@@Z ENDP ; CFileDialogEx::DoDataExchange
_TEXT	ENDS
; Function compile flags: /Ogtp
; File F:\work\AES\AES\AES\CfiledialogEx.cpp
;	COMDAT ?GetMessageMap@CFileDialogEx@@MBEPBUAFX_MSGMAP@@XZ
_TEXT	SEGMENT
?GetMessageMap@CFileDialogEx@@MBEPBUAFX_MSGMAP@@XZ PROC	; CFileDialogEx::GetMessageMap, COMDAT
; _this$ = ecx

; 48   :      BEGIN_MESSAGE_MAP(CFileDialogEx, CFileDialog)

  00000	b8 00 00 00 00	 mov	 eax, OFFSET ?messageMap@?1??GetThisMessageMap@CFileDialogEx@@KGPBUAFX_MSGMAP@@XZ@4U3@B
  00005	c3		 ret	 0
?GetMessageMap@CFileDialogEx@@MBEPBUAFX_MSGMAP@@XZ ENDP	; CFileDialogEx::GetMessageMap
_TEXT	ENDS
; Function compile flags: /Ogtp
; File F:\work\AES\AES\AES\CfiledialogEx.cpp
;	COMDAT ?GetThisMessageMap@CFileDialogEx@@KGPBUAFX_MSGMAP@@XZ
_TEXT	SEGMENT
?GetThisMessageMap@CFileDialogEx@@KGPBUAFX_MSGMAP@@XZ PROC ; CFileDialogEx::GetThisMessageMap, COMDAT

; 49   :          //{{AFX_MSG_MAP(CFileDialogEx)
; 50   :          ON_WM_CTLCOLOR()
; 51   :          //}}AFX_MSG_MAP
; 52   :      END_MESSAGE_MAP()

  00000	b8 00 00 00 00	 mov	 eax, OFFSET ?messageMap@?1??GetThisMessageMap@CFileDialogEx@@KGPBUAFX_MSGMAP@@XZ@4U3@B
  00005	c3		 ret	 0
?GetThisMessageMap@CFileDialogEx@@KGPBUAFX_MSGMAP@@XZ ENDP ; CFileDialogEx::GetThisMessageMap
_TEXT	ENDS
; Function compile flags: /Ogtp
; File F:\work\AES\AES\AES\CfiledialogEx.cpp
; File C:\Program Files (x86)\Microsoft Visual Studio\2019\Enterprise\VC\Tools\MSVC\14.29.30037\atlmfc\include\afxwin1.inl
; File F:\work\AES\AES\AES\CfiledialogEx.cpp
; File C:\Program Files (x86)\Microsoft Visual Studio\2019\Enterprise\VC\Tools\MSVC\14.29.30037\atlmfc\include\afxwin1.inl
; File F:\work\AES\AES\AES\CfiledialogEx.cpp
;	COMDAT ?OnCtlColor@CFileDialogEx@@IAEPAUHBRUSH__@@PAVCDC@@PAVCWnd@@I@Z
_TEXT	SEGMENT
_pDC$ = 8						; size = 4
_pWnd$ = 12						; size = 4
_nCtlColor$ = 16					; size = 4
?OnCtlColor@CFileDialogEx@@IAEPAUHBRUSH__@@PAVCDC@@PAVCWnd@@I@Z PROC ; CFileDialogEx::OnCtlColor, COMDAT
; _this$ = ecx

; 58   :      {

  00000	55		 push	 ebp
  00001	8b ec		 mov	 ebp, esp
  00003	56		 push	 esi
  00004	57		 push	 edi
  00005	8b f9		 mov	 edi, ecx
; File C:\Program Files (x86)\Microsoft Visual Studio\2019\Enterprise\VC\Tools\MSVC\14.29.30037\atlmfc\include\afxwin1.inl

; 132  : 	{ return Attach(::CreateSolidBrush(crColor)); }

  00007	68 00 00 ff 00	 push	 16711680		; 00ff0000H
; File F:\work\AES\AES\AES\CfiledialogEx.cpp

; 59   :          m_pBkBrush.CreateSolidBrush(BACKGROUNG_COLOR);

  0000c	8d b7 e8 04 00
	00		 lea	 esi, DWORD PTR [edi+1256]
; File C:\Program Files (x86)\Microsoft Visual Studio\2019\Enterprise\VC\Tools\MSVC\14.29.30037\atlmfc\include\afxwin1.inl

; 132  : 	{ return Attach(::CreateSolidBrush(crColor)); }

  00012	ff 15 00 00 00
	00		 call	 DWORD PTR __imp__CreateSolidBrush@4
  00018	50		 push	 eax
  00019	8b ce		 mov	 ecx, esi
  0001b	e8 00 00 00 00	 call	 ?Attach@CGdiObject@@QAEHPAX@Z ; CGdiObject::Attach
; File F:\work\AES\AES\AES\CfiledialogEx.cpp

; 60   :          switch (nCtlColor) {

  00020	8b 4d 10	 mov	 ecx, DWORD PTR _nCtlColor$[ebp]
  00023	8b c1		 mov	 eax, ecx
  00025	83 e8 04	 sub	 eax, 4
  00028	74 26		 je	 SHORT $LN5@OnCtlColor
  0002a	83 e8 02	 sub	 eax, 2
  0002d	74 14		 je	 SHORT $LN4@OnCtlColor

; 66   :              return (m_pBkBrush);
; 67   :          }
; 68   :          case CTLCOLOR_DLG:
; 69   :              return (HBRUSH)(m_pBkBrush.GetSafeHandle());
; 70   : 
; 71   :          default:
; 72   :               return CFileDialog::OnCtlColor(pDC, pWnd, nCtlColor);

  0002f	51		 push	 ecx
  00030	ff 75 0c	 push	 DWORD PTR _pWnd$[ebp]
  00033	8b cf		 mov	 ecx, edi
  00035	ff 75 08	 push	 DWORD PTR _pDC$[ebp]
  00038	e8 00 00 00 00	 call	 ?OnCtlColor@CWnd@@IAEPAUHBRUSH__@@PAVCDC@@PAV1@I@Z ; CWnd::OnCtlColor
  0003d	5f		 pop	 edi

; 73   :          }
; 74   :      }

  0003e	5e		 pop	 esi
  0003f	5d		 pop	 ebp
  00040	c2 0c 00	 ret	 12			; 0000000cH
$LN4@OnCtlColor:

; 61   : 
; 62   :          case CTLCOLOR_STATIC:
; 63   :          {
; 64   :              // Set the static text to white on blue.
; 65   :              pDC->SetBkColor(RGB(0, 0, 255));

  00043	8b 4d 08	 mov	 ecx, DWORD PTR _pDC$[ebp]
  00046	68 00 00 ff 00	 push	 16711680		; 00ff0000H
  0004b	8b 01		 mov	 eax, DWORD PTR [ecx]
  0004d	ff 50 2c	 call	 DWORD PTR [eax+44]
$LN5@OnCtlColor:

; 73   :          }
; 74   :      }

  00050	85 f6		 test	 esi, esi
  00052	75 08		 jne	 SHORT $LN16@OnCtlColor
  00054	5f		 pop	 edi
  00055	33 c0		 xor	 eax, eax
  00057	5e		 pop	 esi
  00058	5d		 pop	 ebp
  00059	c2 0c 00	 ret	 12			; 0000000cH
$LN16@OnCtlColor:
  0005c	8b 46 04	 mov	 eax, DWORD PTR [esi+4]
  0005f	5f		 pop	 edi
  00060	5e		 pop	 esi
  00061	5d		 pop	 ebp
  00062	c2 0c 00	 ret	 12			; 0000000cH
?OnCtlColor@CFileDialogEx@@IAEPAUHBRUSH__@@PAVCDC@@PAVCWnd@@I@Z ENDP ; CFileDialogEx::OnCtlColor
_TEXT	ENDS
; Function compile flags: /Ogtp
; File C:\Program Files (x86)\Microsoft Visual Studio\2019\Enterprise\VC\Tools\MSVC\14.29.30037\atlmfc\include\afxwin1.inl
;	COMDAT ?GetSafeHandle@CGdiObject@@QBEPAXXZ
_TEXT	SEGMENT
?GetSafeHandle@CGdiObject@@QBEPAXXZ PROC		; CGdiObject::GetSafeHandle, COMDAT
; _this$ = ecx

; 68   : 	{ return this == NULL ? NULL : m_hObject; }

  00000	85 c9		 test	 ecx, ecx
  00002	75 03		 jne	 SHORT $LN3@GetSafeHan
  00004	33 c0		 xor	 eax, eax
  00006	c3		 ret	 0
$LN3@GetSafeHan:
  00007	8b 41 04	 mov	 eax, DWORD PTR [ecx+4]
  0000a	c3		 ret	 0
?GetSafeHandle@CGdiObject@@QBEPAXXZ ENDP		; CGdiObject::GetSafeHandle
_TEXT	ENDS
; Function compile flags: /Ogtp
; File C:\Program Files (x86)\Microsoft Visual Studio\2019\Enterprise\VC\Tools\MSVC\14.29.30037\atlmfc\include\afxwin1.inl
;	COMDAT ??BCBrush@@QBEPAUHBRUSH__@@XZ
_TEXT	SEGMENT
??BCBrush@@QBEPAUHBRUSH__@@XZ PROC			; CBrush::operator HBRUSH__ *, COMDAT
; _this$ = ecx

; 124  : 	{ return (HBRUSH)(this == NULL ? NULL : m_hObject); }

  00000	85 c9		 test	 ecx, ecx
  00002	75 03		 jne	 SHORT $LN3@operator
  00004	33 c0		 xor	 eax, eax
  00006	c3		 ret	 0
$LN3@operator:
  00007	8b 41 04	 mov	 eax, DWORD PTR [ecx+4]
  0000a	c3		 ret	 0
??BCBrush@@QBEPAUHBRUSH__@@XZ ENDP			; CBrush::operator HBRUSH__ *
_TEXT	ENDS
; Function compile flags: /Ogtp
; File C:\Program Files (x86)\Microsoft Visual Studio\2019\Enterprise\VC\Tools\MSVC\14.29.30037\atlmfc\include\afxwin1.inl
;	COMDAT ?CreateSolidBrush@CBrush@@QAEHK@Z
_TEXT	SEGMENT
_crColor$ = 8						; size = 4
?CreateSolidBrush@CBrush@@QAEHK@Z PROC			; CBrush::CreateSolidBrush, COMDAT
; _this$ = ecx

; 132  : 	{ return Attach(::CreateSolidBrush(crColor)); }

  00000	55		 push	 ebp
  00001	8b ec		 mov	 ebp, esp
  00003	56		 push	 esi
  00004	ff 75 08	 push	 DWORD PTR _crColor$[ebp]
  00007	8b f1		 mov	 esi, ecx
  00009	ff 15 00 00 00
	00		 call	 DWORD PTR __imp__CreateSolidBrush@4
  0000f	50		 push	 eax
  00010	8b ce		 mov	 ecx, esi
  00012	e8 00 00 00 00	 call	 ?Attach@CGdiObject@@QAEHPAX@Z ; CGdiObject::Attach
  00017	5e		 pop	 esi
  00018	5d		 pop	 ebp
  00019	c2 04 00	 ret	 4
?CreateSolidBrush@CBrush@@QAEHK@Z ENDP			; CBrush::CreateSolidBrush
_TEXT	ENDS
; Function compile flags: /Ogtp
; File C:\Program Files (x86)\Microsoft Visual Studio\2019\Enterprise\VC\Tools\MSVC\14.29.30037\atlmfc\include\afx.inl
;	COMDAT ??0CObject@@IAE@XZ
_TEXT	SEGMENT
??0CObject@@IAE@XZ PROC					; CObject::CObject, COMDAT
; _this$ = ecx

; 102  : 	{ }

  00000	8b c1		 mov	 eax, ecx
  00002	c3		 ret	 0
??0CObject@@IAE@XZ ENDP					; CObject::CObject
_TEXT	ENDS
; Function compile flags: /Ogtp
; File C:\Program Files (x86)\Microsoft Visual Studio\2019\Enterprise\VC\Tools\MSVC\14.29.30037\atlmfc\include\afxwin1.inl
;	COMDAT ??0CGdiObject@@QAE@XZ
_TEXT	SEGMENT
??0CGdiObject@@QAE@XZ PROC				; CGdiObject::CGdiObject, COMDAT
; _this$ = ecx

; 70   : 	{ m_hObject = NULL; }

  00000	c7 01 00 00 00
	00		 mov	 DWORD PTR [ecx], OFFSET ??_7CGdiObject@@6B@
  00006	8b c1		 mov	 eax, ecx
  00008	c7 41 04 00 00
	00 00		 mov	 DWORD PTR [ecx+4], 0
  0000f	c3		 ret	 0
??0CGdiObject@@QAE@XZ ENDP				; CGdiObject::CGdiObject
_TEXT	ENDS
; Function compile flags: /Ogtp
; File C:\Program Files (x86)\Microsoft Visual Studio\2019\Enterprise\VC\Tools\MSVC\14.29.30037\atlmfc\include\afxwin1.inl
;	COMDAT ??0CBrush@@QAE@XZ
_TEXT	SEGMENT
??0CBrush@@QAE@XZ PROC					; CBrush::CBrush, COMDAT
; _this$ = ecx

; 70   : 	{ m_hObject = NULL; }

  00000	c7 41 04 00 00
	00 00		 mov	 DWORD PTR [ecx+4], 0

; 128  : 	{ }

  00007	8b c1		 mov	 eax, ecx
  00009	c7 01 00 00 00
	00		 mov	 DWORD PTR [ecx], OFFSET ??_7CBrush@@6B@
  0000f	c3		 ret	 0
??0CBrush@@QAE@XZ ENDP					; CBrush::CBrush
_TEXT	ENDS
END
