; Listing generated by Microsoft (R) Optimizing Compiler Version 19.29.30133.0 

	TITLE	j:\work\aes\aes\aes\release\code_huffman.obj
	.686P
	.XMM
	include listing.inc
	.model	flat

INCLUDELIB OLDNAMES

PUBLIC	??_C@_02JDPG@rb@				; `string'
PUBLIC	??_C@_02GMLFBBN@wb@				; `string'
EXTRN	??_M@YGXPAXIIP6EX0@Z@Z:PROC			; `eh vector destructor iterator'
EXTRN	??_L@YGXPAXIIP6EX0@Z1@Z:PROC			; `eh vector constructor iterator'
EXTRN	_fputc:PROC
EXTRN	_fgetc:PROC
EXTRN	_ftell:PROC
EXTRN	_fseek:PROC
EXTRN	_setvbuf:PROC
EXTRN	_fclose:PROC
EXTRN	_fopen:PROC
;	COMDAT ??_C@_02GMLFBBN@wb@
CONST	SEGMENT
??_C@_02GMLFBBN@wb@ DB 'wb', 00H			; `string'
CONST	ENDS
;	COMDAT ??_C@_02JDPG@rb@
CONST	SEGMENT
??_C@_02JDPG@rb@ DB 'rb', 00H				; `string'
PUBLIC	?__autoclassinit2@node@simple_Huffman@@QAEXI@Z	; simple_Huffman::node::__autoclassinit2
PUBLIC	??0simple_Huffman@@QAE@XZ			; simple_Huffman::simple_Huffman
PUBLIC	?initialize@simple_Huffman@@AAEXXZ		; simple_Huffman::initialize
PUBLIC	?Finalize@simple_Huffman@@QAEXXZ		; simple_Huffman::Finalize
PUBLIC	?performInternalCleanup@simple_Huffman@@AAEXXZ	; simple_Huffman::performInternalCleanup
PUBLIC	?getOutput@simple_Huffman@@QAEPAEXZ		; simple_Huffman::getOutput
PUBLIC	?Decompress@simple_Huffman@@QAEHPAEH@Z		; simple_Huffman::Decompress
PUBLIC	?MakeTreeD@simple_Huffman@@AAEXXZ		; simple_Huffman::MakeTreeD
PUBLIC	?moveTreesRight2@simple_Huffman@@AAEXPAPAVnode@1@@Z ; simple_Huffman::moveTreesRight2
PUBLIC	?InitializeLeaves@simple_Huffman@@AAEXPAVnode@1@HH@Z ; simple_Huffman::InitializeLeaves
PUBLIC	??_Gnode@simple_Huffman@@QAEPAXI@Z		; simple_Huffman::node::`scalar deleting destructor'
PUBLIC	??1node@simple_Huffman@@QAE@XZ			; simple_Huffman::node::~node
PUBLIC	??0node@simple_Huffman@@QAE@XZ			; simple_Huffman::node::node
;	COMDAT xdata$x
xdata$x	SEGMENT
__unwindtable$??0simple_Huffman@@QAE@XZ DD 0ffffffffH
	DD	FLAT:__unwindfunclet$??0simple_Huffman@@QAE@XZ$0
__ehfuncinfo$??0simple_Huffman@@QAE@XZ DQ 00000000119930522r ; 2.33398e-314
	DD	FLAT:__unwindtable$??0simple_Huffman@@QAE@XZ
	DQ	00000000000000000r		; 0
	DQ	00000000000000000r		; 0
	DQ	00000000100000000r		; 2.122e-314
END
