; Listing generated by Microsoft (R) Optimizing Compiler Version 19.23.28106.4 

	TITLE	i:\projets\aes\aes\aes\colorbutton.cpp
	.686P
	.XMM
	include listing.inc
	.model	flat

INCLUDELIB OLDNAMES

PUBLIC	??_R2CColorButton@@8				; CColorButton::`RTTI Base Class Array'
PUBLIC	??_R1A@?0A@EA@CColorButton@@8			; CColorButton::`RTTI Base Class Descriptor at (0,-1,0,64)'
PUBLIC	??_R3CColorButton@@8				; CColorButton::`RTTI Class Hierarchy Descriptor'
PUBLIC	??_R0?AVCColorButton@@@8			; CColorButton `RTTI Type Descriptor'
PUBLIC	??_R4CColorButton@@6B@				; CColorButton::`RTTI Complete Object Locator'
PUBLIC	??_7CColorButton@@6B@				; CColorButton::`vftable'
PUBLIC	??_R0?AVCButton@@@8				; CButton `RTTI Type Descriptor'
PUBLIC	??_R1A@?0A@EA@CButton@@8			; CButton::`RTTI Base Class Descriptor at (0,-1,0,64)'
PUBLIC	??_R2CButton@@8					; CButton::`RTTI Base Class Array'
PUBLIC	??_R3CButton@@8					; CButton::`RTTI Class Hierarchy Descriptor'
PUBLIC	??_R4CButton@@6B@				; CButton::`RTTI Complete Object Locator'
PUBLIC	??_7CButton@@6B@				; CButton::`vftable'
EXTRN	?ModifyStyle@CWnd@@QAEHKKI@Z:PROC		; CWnd::ModifyStyle
EXTRN	__imp__RedrawWindow@16:PROC
EXTRN	?GetThisMessageMap@CWnd@@KGPBUAFX_MSGMAP@@XZ:PROC ; CWnd::GetThisMessageMap
EXTRN	?Attach@CGdiObject@@QAEHPAX@Z:PROC		; CGdiObject::Attach
EXTRN	__imp__CreateSolidBrush@4:PROC
EXTRN	__imp__GetSysColor@4:PROC
EXTRN	??1CButton@@UAE@XZ:PROC				; CButton::~CButton
EXTRN	??0CWnd@@QAE@XZ:PROC				; CWnd::CWnd
EXTRN	??1CWnd@@UAE@XZ:PROC				; CWnd::~CWnd
EXTRN	?GetRuntimeClass@CButton@@UBEPAUCRuntimeClass@@XZ:PROC ; CButton::GetRuntimeClass
EXTRN	?GetMessageMap@CWnd@@MBEPBUAFX_MSGMAP@@XZ:PROC	; CWnd::GetMessageMap
EXTRN	?OnCommand@CWnd@@MAEHIJ@Z:PROC			; CWnd::OnCommand
EXTRN	?PreTranslateMessage@CWnd@@UAEHPAUtagMSG@@@Z:PROC ; CWnd::PreTranslateMessage
EXTRN	?OnChildNotify@CButton@@MAEHIIJPAJ@Z:PROC	; CButton::OnChildNotify
EXTRN	?CheckAutoCenter@CWnd@@UAEHXZ:PROC		; CWnd::CheckAutoCenter
EXTRN	?SetOccDialogInfo@CWnd@@MAEHPAU_AFX_OCC_DIALOG_INFO@@@Z:PROC ; CWnd::SetOccDialogInfo
EXTRN	?GetOccDialogInfo@CWnd@@MAEPAU_AFX_OCC_DIALOG_INFO@@XZ:PROC ; CWnd::GetOccDialogInfo
EXTRN	?Create@CButton@@UAEHPB_WKABUtagRECT@@PAVCWnd@@I@Z:PROC ; CButton::Create
EXTRN	?DrawItem@CButton@@UAEXPAUtagDRAWITEMSTRUCT@@@Z:PROC ; CButton::DrawItem
;	COMDAT ??_7CButton@@6B@
CONST	SEGMENT
??_7CButton@@6B@ DD FLAT:??_R4CButton@@6B@		; CButton::`vftable'
	DD	FLAT:?GetRuntimeClass@CButton@@UBEPAUCRuntimeClass@@XZ
	DD	FLAT:??_ECButton@@UAEPAXI@Z
	DD	FLAT:?Serialize@CObject@@UAEXAAVCArchive@@@Z
	DD	FLAT:?OnCmdMsg@CCmdTarget@@UAEHIHPAXPAUAFX_CMDHANDLERINFO@@@Z
	DD	FLAT:?OnFinalRelease@CWnd@@UAEXXZ
	DD	FLAT:?IsInvokeAllowed@CCmdTarget@@UAEHJ@Z
	DD	FLAT:?GetDispatchIID@CCmdTarget@@UAEHPAU_GUID@@@Z
	DD	FLAT:?GetTypeInfoCount@CCmdTarget@@UAEIXZ
	DD	FLAT:?GetTypeLibCache@CCmdTarget@@UAEPAVCTypeLibCache@@XZ
	DD	FLAT:?GetTypeLib@CCmdTarget@@UAEJKPAPAUITypeLib@@@Z
	DD	FLAT:?GetMessageMap@CWnd@@MBEPBUAFX_MSGMAP@@XZ
	DD	FLAT:?GetCommandMap@CCmdTarget@@MBEPBUAFX_OLECMDMAP@@XZ
	DD	FLAT:?GetDispatchMap@CCmdTarget@@MBEPBUAFX_DISPMAP@@XZ
	DD	FLAT:?GetConnectionMap@CCmdTarget@@MBEPBUAFX_CONNECTIONMAP@@XZ
	DD	FLAT:?GetInterfaceMap@CWnd@@MBEPBUAFX_INTERFACEMAP@@XZ
	DD	FLAT:?GetEventSinkMap@CCmdTarget@@MBEPBUAFX_EVENTSINKMAP@@XZ
	DD	FLAT:?OnCreateAggregates@CCmdTarget@@UAEHXZ
	DD	FLAT:?GetInterfaceHook@CCmdTarget@@UAEPAUIUnknown@@PBX@Z
	DD	FLAT:?GetExtraConnectionPoints@CCmdTarget@@MAEHPAVCPtrArray@@@Z
	DD	FLAT:?GetConnectionHook@CCmdTarget@@MAEPAUIConnectionPoint@@ABU_GUID@@@Z
	DD	FLAT:?PreSubclassWindow@CWnd@@UAEXXZ
	DD	FLAT:?Create@CWnd@@UAEHPB_W0KABUtagRECT@@PAV1@IPAUCCreateContext@@@Z
	DD	FLAT:?CreateEx@CWnd@@UAEHKPB_W0KABUtagRECT@@PAV1@IPAX@Z
	DD	FLAT:?CreateEx@CWnd@@UAEHKPB_W0KHHHHPAUHWND__@@PAUHMENU__@@PAX@Z
	DD	FLAT:?DestroyWindow@CWnd@@UAEHXZ
	DD	FLAT:?PreCreateWindow@CWnd@@UAEHAAUtagCREATESTRUCTW@@@Z
	DD	FLAT:?CalcWindowRect@CWnd@@UAEXPAUtagRECT@@I@Z
	DD	FLAT:?GetMenu@CWnd@@UBEPAVCMenu@@XZ
	DD	FLAT:?SetMenu@CWnd@@UAEHPAVCMenu@@@Z
	DD	FLAT:?OnToolHitTest@CWnd@@UBEHVCPoint@@PAUtagTOOLINFOW@@@Z
	DD	FLAT:?GetScrollBarCtrl@CWnd@@UBEPAVCScrollBar@@H@Z
	DD	FLAT:?WinHelpW@CWnd@@UAEXKI@Z
	DD	FLAT:?HtmlHelpW@CWnd@@UAEXKI@Z
	DD	FLAT:?WinHelpInternal@CWnd@@UAEXKI@Z
	DD	FLAT:?ContinueModal@CWnd@@UAEHXZ
	DD	FLAT:?EndModalLoop@CWnd@@UAEXH@Z
	DD	FLAT:?OnDrawIconicThumbnailOrLivePreview@CWnd@@UAEXAAVCDC@@VCRect@@VCSize@@HAAH@Z
	DD	FLAT:?EnsureStdObj@CWnd@@UAEJXZ
	DD	FLAT:?get_accParent@CWnd@@UAEJPAPAUIDispatch@@@Z
	DD	FLAT:?get_accChildCount@CWnd@@UAEJPAJ@Z
	DD	FLAT:?get_accChild@CWnd@@UAEJUtagVARIANT@@PAPAUIDispatch@@@Z
	DD	FLAT:?get_accName@CWnd@@UAEJUtagVARIANT@@PAPA_W@Z
	DD	FLAT:?get_accValue@CWnd@@UAEJUtagVARIANT@@PAPA_W@Z
	DD	FLAT:?get_accDescription@CWnd@@UAEJUtagVARIANT@@PAPA_W@Z
	DD	FLAT:?get_accRole@CWnd@@UAEJUtagVARIANT@@PAU2@@Z
	DD	FLAT:?get_accState@CWnd@@UAEJUtagVARIANT@@PAU2@@Z
	DD	FLAT:?get_accHelp@CWnd@@UAEJUtagVARIANT@@PAPA_W@Z
	DD	FLAT:?get_accHelpTopic@CWnd@@UAEJPAPA_WUtagVARIANT@@PAJ@Z
	DD	FLAT:?get_accKeyboardShortcut@CWnd@@UAEJUtagVARIANT@@PAPA_W@Z
	DD	FLAT:?get_accFocus@CWnd@@UAEJPAUtagVARIANT@@@Z
	DD	FLAT:?get_accSelection@CWnd@@UAEJPAUtagVARIANT@@@Z
	DD	FLAT:?get_accDefaultAction@CWnd@@UAEJUtagVARIANT@@PAPA_W@Z
	DD	FLAT:?accSelect@CWnd@@UAEJJUtagVARIANT@@@Z
	DD	FLAT:?accLocation@CWnd@@UAEJPAJ000UtagVARIANT@@@Z
	DD	FLAT:?accNavigate@CWnd@@UAEJJUtagVARIANT@@PAU2@@Z
	DD	FLAT:?accHitTest@CWnd@@UAEJJJPAUtagVARIANT@@@Z
	DD	FLAT:?accDoDefaultAction@CWnd@@UAEJUtagVARIANT@@@Z
	DD	FLAT:?put_accName@CWnd@@UAEJUtagVARIANT@@PA_W@Z
	DD	FLAT:?put_accValue@CWnd@@UAEJUtagVARIANT@@PA_W@Z
	DD	FLAT:?SetProxy@CWnd@@UAEJPAUIAccessibleProxy@@@Z
	DD	FLAT:?CreateAccessibleProxy@CWnd@@UAEJIJPAJ@Z
	DD	FLAT:?OnCommand@CWnd@@MAEHIJ@Z
	DD	FLAT:?OnNotify@CWnd@@MAEHIJPAJ@Z
	DD	FLAT:?GetSuperWndProcAddr@CWnd@@MAEPAP6GJPAUHWND__@@IIJ@ZXZ
	DD	FLAT:?DoDataExchange@CWnd@@MAEXPAVCDataExchange@@@Z
	DD	FLAT:?BeginModalState@CWnd@@UAEXXZ
	DD	FLAT:?EndModalState@CWnd@@UAEXXZ
	DD	FLAT:?PreTranslateMessage@CWnd@@UAEHPAUtagMSG@@@Z
	DD	FLAT:?OnAmbientProperty@CWnd@@UAEHPAVCOleControlSite@@JPAUtagVARIANT@@@Z
	DD	FLAT:?WindowProc@CWnd@@MAEJIIJ@Z
	DD	FLAT:?OnWndMsg@CWnd@@MAEHIIJPAJ@Z
	DD	FLAT:?DefWindowProcW@CWnd@@MAEJIIJ@Z
	DD	FLAT:?PostNcDestroy@CWnd@@MAEXXZ
	DD	FLAT:?OnChildNotify@CButton@@MAEHIIJPAJ@Z
	DD	FLAT:?OnTouchInputs@CWnd@@MAEHIPAUtagTOUCHINPUT@@@Z
	DD	FLAT:?OnTouchInput@CWnd@@MAEHVCPoint@@HHPAUtagTOUCHINPUT@@@Z
	DD	FLAT:?GetGestureStatus@CWnd@@MAEKVCPoint@@@Z
	DD	FLAT:?OnGestureZoom@CWnd@@MAEHVCPoint@@J@Z
	DD	FLAT:?OnGesturePan@CWnd@@MAEHVCPoint@@0@Z
	DD	FLAT:?OnGestureRotate@CWnd@@MAEHVCPoint@@N@Z
	DD	FLAT:?OnGestureTwoFingerTap@CWnd@@MAEHVCPoint@@@Z
	DD	FLAT:?OnGesturePressAndTap@CWnd@@MAEHVCPoint@@J@Z
	DD	FLAT:?ResizeDynamicLayout@CWnd@@MAEXXZ
	DD	FLAT:?CheckAutoCenter@CWnd@@UAEHXZ
	DD	FLAT:?IsFrameWnd@CWnd@@UBEHXZ
	DD	FLAT:?CreateControlContainer@CWnd@@MAEHPAPAVCOleControlContainer@@@Z
	DD	FLAT:?CreateControlSite@CWnd@@MAEHPAVCOleControlContainer@@PAPAVCOleControlSite@@IABU_GUID@@@Z
	DD	FLAT:?SetOccDialogInfo@CWnd@@MAEHPAU_AFX_OCC_DIALOG_INFO@@@Z
	DD	FLAT:?GetOccDialogInfo@CWnd@@MAEPAU_AFX_OCC_DIALOG_INFO@@XZ
	DD	FLAT:?Create@CButton@@UAEHPB_WKABUtagRECT@@PAVCWnd@@I@Z
	DD	FLAT:?DrawItem@CButton@@UAEXPAUtagDRAWITEMSTRUCT@@@Z
CONST	ENDS
;	COMDAT ??_R4CButton@@6B@
rdata$r	SEGMENT
??_R4CButton@@6B@ DD 00H				; CButton::`RTTI Complete Object Locator'
	DD	00H
	DD	00H
	DD	FLAT:??_R0?AVCButton@@@8
	DD	FLAT:??_R3CButton@@8
rdata$r	ENDS
;	COMDAT ??_R3CButton@@8
rdata$r	SEGMENT
??_R3CButton@@8 DD 00H					; CButton::`RTTI Class Hierarchy Descriptor'
	DD	00H
	DD	04H
	DD	FLAT:??_R2CButton@@8
rdata$r	ENDS
;	COMDAT ??_R2CButton@@8
rdata$r	SEGMENT
??_R2CButton@@8 DD FLAT:??_R1A@?0A@EA@CButton@@8	; CButton::`RTTI Base Class Array'
	DD	FLAT:??_R1A@?0A@EA@CWnd@@8
	DD	FLAT:??_R1A@?0A@EA@CCmdTarget@@8
	DD	FLAT:??_R1A@?0A@EA@CObject@@8
rdata$r	ENDS
;	COMDAT ??_R1A@?0A@EA@CButton@@8
rdata$r	SEGMENT
??_R1A@?0A@EA@CButton@@8 DD FLAT:??_R0?AVCButton@@@8	; CButton::`RTTI Base Class Descriptor at (0,-1,0,64)'
	DD	03H
	DD	00H
	DD	0ffffffffH
	DD	00H
	DD	040H
	DD	FLAT:??_R3CButton@@8
rdata$r	ENDS
;	COMDAT ??_R0?AVCButton@@@8
data$r	SEGMENT
??_R0?AVCButton@@@8 DD FLAT:??_7type_info@@6B@		; CButton `RTTI Type Descriptor'
	DD	00H
	DB	'.?AVCButton@@', 00H
data$r	ENDS
;	COMDAT ??_7CColorButton@@6B@
CONST	SEGMENT
??_7CColorButton@@6B@ DD FLAT:??_R4CColorButton@@6B@	; CColorButton::`vftable'
	DD	FLAT:?GetRuntimeClass@CButton@@UBEPAUCRuntimeClass@@XZ
	DD	FLAT:??_ECColorButton@@UAEPAXI@Z
	DD	FLAT:?Serialize@CObject@@UAEXAAVCArchive@@@Z
	DD	FLAT:?OnCmdMsg@CCmdTarget@@UAEHIHPAXPAUAFX_CMDHANDLERINFO@@@Z
	DD	FLAT:?OnFinalRelease@CWnd@@UAEXXZ
	DD	FLAT:?IsInvokeAllowed@CCmdTarget@@UAEHJ@Z
	DD	FLAT:?GetDispatchIID@CCmdTarget@@UAEHPAU_GUID@@@Z
	DD	FLAT:?GetTypeInfoCount@CCmdTarget@@UAEIXZ
	DD	FLAT:?GetTypeLibCache@CCmdTarget@@UAEPAVCTypeLibCache@@XZ
	DD	FLAT:?GetTypeLib@CCmdTarget@@UAEJKPAPAUITypeLib@@@Z
	DD	FLAT:?GetMessageMap@CColorButton@@MBEPBUAFX_MSGMAP@@XZ
	DD	FLAT:?GetCommandMap@CCmdTarget@@MBEPBUAFX_OLECMDMAP@@XZ
	DD	FLAT:?GetDispatchMap@CCmdTarget@@MBEPBUAFX_DISPMAP@@XZ
	DD	FLAT:?GetConnectionMap@CCmdTarget@@MBEPBUAFX_CONNECTIONMAP@@XZ
	DD	FLAT:?GetInterfaceMap@CWnd@@MBEPBUAFX_INTERFACEMAP@@XZ
	DD	FLAT:?GetEventSinkMap@CCmdTarget@@MBEPBUAFX_EVENTSINKMAP@@XZ
	DD	FLAT:?OnCreateAggregates@CCmdTarget@@UAEHXZ
	DD	FLAT:?GetInterfaceHook@CCmdTarget@@UAEPAUIUnknown@@PBX@Z
	DD	FLAT:?GetExtraConnectionPoints@CCmdTarget@@MAEHPAVCPtrArray@@@Z
	DD	FLAT:?GetConnectionHook@CCmdTarget@@MAEPAUIConnectionPoint@@ABU_GUID@@@Z
	DD	FLAT:?PreSubclassWindow@CColorButton@@UAEXXZ
	DD	FLAT:?Create@CWnd@@UAEHPB_W0KABUtagRECT@@PAV1@IPAUCCreateContext@@@Z
	DD	FLAT:?CreateEx@CWnd@@UAEHKPB_W0KABUtagRECT@@PAV1@IPAX@Z
	DD	FLAT:?CreateEx@CWnd@@UAEHKPB_W0KHHHHPAUHWND__@@PAUHMENU__@@PAX@Z
	DD	FLAT:?DestroyWindow@CWnd@@UAEHXZ
	DD	FLAT:?PreCreateWindow@CWnd@@UAEHAAUtagCREATESTRUCTW@@@Z
	DD	FLAT:?CalcWindowRect@CWnd@@UAEXPAUtagRECT@@I@Z
	DD	FLAT:?GetMenu@CWnd@@UBEPAVCMenu@@XZ
	DD	FLAT:?SetMenu@CWnd@@UAEHPAVCMenu@@@Z
	DD	FLAT:?OnToolHitTest@CWnd@@UBEHVCPoint@@PAUtagTOOLINFOW@@@Z
	DD	FLAT:?GetScrollBarCtrl@CWnd@@UBEPAVCScrollBar@@H@Z
	DD	FLAT:?WinHelpW@CWnd@@UAEXKI@Z
	DD	FLAT:?HtmlHelpW@CWnd@@UAEXKI@Z
	DD	FLAT:?WinHelpInternal@CWnd@@UAEXKI@Z
	DD	FLAT:?ContinueModal@CWnd@@UAEHXZ
	DD	FLAT:?EndModalLoop@CWnd@@UAEXH@Z
	DD	FLAT:?OnDrawIconicThumbnailOrLivePreview@CWnd@@UAEXAAVCDC@@VCRect@@VCSize@@HAAH@Z
	DD	FLAT:?EnsureStdObj@CWnd@@UAEJXZ
	DD	FLAT:?get_accParent@CWnd@@UAEJPAPAUIDispatch@@@Z
	DD	FLAT:?get_accChildCount@CWnd@@UAEJPAJ@Z
	DD	FLAT:?get_accChild@CWnd@@UAEJUtagVARIANT@@PAPAUIDispatch@@@Z
	DD	FLAT:?get_accName@CWnd@@UAEJUtagVARIANT@@PAPA_W@Z
	DD	FLAT:?get_accValue@CWnd@@UAEJUtagVARIANT@@PAPA_W@Z
	DD	FLAT:?get_accDescription@CWnd@@UAEJUtagVARIANT@@PAPA_W@Z
	DD	FLAT:?get_accRole@CWnd@@UAEJUtagVARIANT@@PAU2@@Z
	DD	FLAT:?get_accState@CWnd@@UAEJUtagVARIANT@@PAU2@@Z
	DD	FLAT:?get_accHelp@CWnd@@UAEJUtagVARIANT@@PAPA_W@Z
	DD	FLAT:?get_accHelpTopic@CWnd@@UAEJPAPA_WUtagVARIANT@@PAJ@Z
	DD	FLAT:?get_accKeyboardShortcut@CWnd@@UAEJUtagVARIANT@@PAPA_W@Z
	DD	FLAT:?get_accFocus@CWnd@@UAEJPAUtagVARIANT@@@Z
	DD	FLAT:?get_accSelection@CWnd@@UAEJPAUtagVARIANT@@@Z
	DD	FLAT:?get_accDefaultAction@CWnd@@UAEJUtagVARIANT@@PAPA_W@Z
	DD	FLAT:?accSelect@CWnd@@UAEJJUtagVARIANT@@@Z
	DD	FLAT:?accLocation@CWnd@@UAEJPAJ000UtagVARIANT@@@Z
	DD	FLAT:?accNavigate@CWnd@@UAEJJUtagVARIANT@@PAU2@@Z
	DD	FLAT:?accHitTest@CWnd@@UAEJJJPAUtagVARIANT@@@Z
	DD	FLAT:?accDoDefaultAction@CWnd@@UAEJUtagVARIANT@@@Z
	DD	FLAT:?put_accName@CWnd@@UAEJUtagVARIANT@@PA_W@Z
	DD	FLAT:?put_accValue@CWnd@@UAEJUtagVARIANT@@PA_W@Z
	DD	FLAT:?SetProxy@CWnd@@UAEJPAUIAccessibleProxy@@@Z
	DD	FLAT:?CreateAccessibleProxy@CWnd@@UAEJIJPAJ@Z
	DD	FLAT:?OnCommand@CWnd@@MAEHIJ@Z
	DD	FLAT:?OnNotify@CWnd@@MAEHIJPAJ@Z
	DD	FLAT:?GetSuperWndProcAddr@CWnd@@MAEPAP6GJPAUHWND__@@IIJ@ZXZ
	DD	FLAT:?DoDataExchange@CWnd@@MAEXPAVCDataExchange@@@Z
	DD	FLAT:?BeginModalState@CWnd@@UAEXXZ
	DD	FLAT:?EndModalState@CWnd@@UAEXXZ
	DD	FLAT:?PreTranslateMessage@CWnd@@UAEHPAUtagMSG@@@Z
	DD	FLAT:?OnAmbientProperty@CWnd@@UAEHPAVCOleControlSite@@JPAUtagVARIANT@@@Z
	DD	FLAT:?WindowProc@CWnd@@MAEJIIJ@Z
	DD	FLAT:?OnWndMsg@CWnd@@MAEHIIJPAJ@Z
	DD	FLAT:?DefWindowProcW@CWnd@@MAEJIIJ@Z
	DD	FLAT:?PostNcDestroy@CWnd@@MAEXXZ
	DD	FLAT:?OnChildNotify@CButton@@MAEHIIJPAJ@Z
	DD	FLAT:?OnTouchInputs@CWnd@@MAEHIPAUtagTOUCHINPUT@@@Z
	DD	FLAT:?OnTouchInput@CWnd@@MAEHVCPoint@@HHPAUtagTOUCHINPUT@@@Z
	DD	FLAT:?GetGestureStatus@CWnd@@MAEKVCPoint@@@Z
	DD	FLAT:?OnGestureZoom@CWnd@@MAEHVCPoint@@J@Z
	DD	FLAT:?OnGesturePan@CWnd@@MAEHVCPoint@@0@Z
	DD	FLAT:?OnGestureRotate@CWnd@@MAEHVCPoint@@N@Z
	DD	FLAT:?OnGestureTwoFingerTap@CWnd@@MAEHVCPoint@@@Z
	DD	FLAT:?OnGesturePressAndTap@CWnd@@MAEHVCPoint@@J@Z
	DD	FLAT:?ResizeDynamicLayout@CWnd@@MAEXXZ
	DD	FLAT:?CheckAutoCenter@CWnd@@UAEHXZ
	DD	FLAT:?IsFrameWnd@CWnd@@UBEHXZ
	DD	FLAT:?CreateControlContainer@CWnd@@MAEHPAPAVCOleControlContainer@@@Z
	DD	FLAT:?CreateControlSite@CWnd@@MAEHPAVCOleControlContainer@@PAPAVCOleControlSite@@IABU_GUID@@@Z
	DD	FLAT:?SetOccDialogInfo@CWnd@@MAEHPAU_AFX_OCC_DIALOG_INFO@@@Z
	DD	FLAT:?GetOccDialogInfo@CWnd@@MAEPAU_AFX_OCC_DIALOG_INFO@@XZ
	DD	FLAT:?Create@CButton@@UAEHPB_WKABUtagRECT@@PAVCWnd@@I@Z
	DD	FLAT:?DrawItem@CButton@@UAEXPAUtagDRAWITEMSTRUCT@@@Z
CONST	ENDS
;	COMDAT ?_messageEntries@?1??GetThisMessageMap@CColorButton@@KGPBUAFX_MSGMAP@@XZ@4QBUAFX_MSGMAP_ENTRY@@B
CONST	SEGMENT
?_messageEntries@?1??GetThisMessageMap@CColorButton@@KGPBUAFX_MSGMAP@@XZ@4QBUAFX_MSGMAP_ENTRY@@B DD 0bc19H ; `CColorButton::GetThisMessageMap'::`2'::_messageEntries
	DD	00H
	DD	00H
	DD	00H
	DD	09H
	DD	FLAT:?CtlColor@CColorButton@@IAEPAUHBRUSH__@@PAVCDC@@I@Z
	DD	00H
	DD	00H
	DD	00H
	DD	00H
	DD	00H
	DD	00H
CONST	ENDS
;	COMDAT ?messageMap@?1??GetThisMessageMap@CColorButton@@KGPBUAFX_MSGMAP@@XZ@4U3@B
CONST	SEGMENT
?messageMap@?1??GetThisMessageMap@CColorButton@@KGPBUAFX_MSGMAP@@XZ@4U3@B DD FLAT:?GetThisMessageMap@CWnd@@KGPBUAFX_MSGMAP@@XZ ; `CColorButton::GetThisMessageMap'::`2'::messageMap
	DD	FLAT:?_messageEntries@?1??GetThisMessageMap@CColorButton@@KGPBUAFX_MSGMAP@@XZ@4QBUAFX_MSGMAP_ENTRY@@B
CONST	ENDS
;	COMDAT ??_R4CColorButton@@6B@
rdata$r	SEGMENT
??_R4CColorButton@@6B@ DD 00H				; CColorButton::`RTTI Complete Object Locator'
	DD	00H
	DD	00H
	DD	FLAT:??_R0?AVCColorButton@@@8
	DD	FLAT:??_R3CColorButton@@8
rdata$r	ENDS
;	COMDAT ??_R0?AVCColorButton@@@8
data$r	SEGMENT
??_R0?AVCColorButton@@@8 DD FLAT:??_7type_info@@6B@	; CColorButton `RTTI Type Descriptor'
	DD	00H
	DB	'.?AVCColorButton@@', 00H
data$r	ENDS
;	COMDAT ??_R3CColorButton@@8
rdata$r	SEGMENT
??_R3CColorButton@@8 DD 00H				; CColorButton::`RTTI Class Hierarchy Descriptor'
	DD	00H
	DD	05H
	DD	FLAT:??_R2CColorButton@@8
rdata$r	ENDS
;	COMDAT ??_R1A@?0A@EA@CColorButton@@8
rdata$r	SEGMENT
??_R1A@?0A@EA@CColorButton@@8 DD FLAT:??_R0?AVCColorButton@@@8 ; CColorButton::`RTTI Base Class Descriptor at (0,-1,0,64)'
	DD	04H
	DD	00H
	DD	0ffffffffH
	DD	00H
	DD	040H
	DD	FLAT:??_R3CColorButton@@8
rdata$r	ENDS
;	COMDAT ??_R2CColorButton@@8
rdata$r	SEGMENT
??_R2CColorButton@@8 DD FLAT:??_R1A@?0A@EA@CColorButton@@8 ; CColorButton::`RTTI Base Class Array'
	DD	FLAT:??_R1A@?0A@EA@CButton@@8
	DD	FLAT:??_R1A@?0A@EA@CWnd@@8
	DD	FLAT:??_R1A@?0A@EA@CCmdTarget@@8
	DD	FLAT:??_R1A@?0A@EA@CObject@@8
PUBLIC	??0CButton@@QAE@XZ				; CButton::CButton
PUBLIC	??_GCButton@@UAEPAXI@Z				; CButton::`scalar deleting destructor'
PUBLIC	??0CBrush@@QAE@XZ				; CBrush::CBrush
PUBLIC	??0CGdiObject@@QAE@XZ				; CGdiObject::CGdiObject
PUBLIC	??0CObject@@IAE@XZ				; CObject::CObject
PUBLIC	?CreateSolidBrush@CBrush@@QAEHK@Z		; CBrush::CreateSolidBrush
PUBLIC	??BCBrush@@QBEPAUHBRUSH__@@XZ			; CBrush::operator HBRUSH__ *
PUBLIC	?RedrawWindow@CWnd@@QAEHPBUtagRECT@@PAVCRgn@@I@Z ; CWnd::RedrawWindow
PUBLIC	?GetSafeHandle@CGdiObject@@QBEPAXXZ		; CGdiObject::GetSafeHandle
PUBLIC	?PreSubclassWindow@CColorButton@@UAEXXZ		; CColorButton::PreSubclassWindow
PUBLIC	?CtlColor@CColorButton@@IAEPAUHBRUSH__@@PAVCDC@@I@Z ; CColorButton::CtlColor
PUBLIC	?GetThisMessageMap@CColorButton@@KGPBUAFX_MSGMAP@@XZ ; CColorButton::GetThisMessageMap
PUBLIC	?GetMessageMap@CColorButton@@MBEPBUAFX_MSGMAP@@XZ ; CColorButton::GetMessageMap
PUBLIC	??1CColorButton@@UAE@XZ				; CColorButton::~CColorButton
PUBLIC	??_GCColorButton@@UAEPAXI@Z			; CColorButton::`scalar deleting destructor'
EXTRN	??_ECButton@@UAEPAXI@Z:PROC			; CButton::`vector deleting destructor'
EXTRN	??_ECColorButton@@UAEPAXI@Z:PROC		; CColorButton::`vector deleting destructor'
; Function compile flags: /Ogtp
; File I:\Projets\AES\AES\AES\ColorButton.cpp
; File C:\Program Files (x86)\Microsoft Visual Studio\2019\Enterprise\VC\Tools\MSVC\14.23.28105\atlmfc\include\afxwin1.inl
; File I:\Projets\AES\AES\AES\ColorButton.cpp
; File C:\Program Files (x86)\Microsoft Visual Studio\2019\Enterprise\VC\Tools\MSVC\14.23.28105\atlmfc\include\afx.inl
;	COMDAT ??_GCColorButton@@UAEPAXI@Z
_TEXT	SEGMENT
___flags$ = 8						; size = 4
??_GCColorButton@@UAEPAXI@Z PROC			; CColorButton::`scalar deleting destructor', COMDAT
; _this$ = ecx
	push	ebp
	mov	ebp, esp
; File I:\Projets\AES\AES\AES\ColorButton.cpp

; 47   : {

	push	esi
	mov	esi, ecx

; 48   : }

	lea	ecx, DWORD PTR [esi+128]
	mov	DWORD PTR [esi], OFFSET ??_7CColorButton@@6B@
; File C:\Program Files (x86)\Microsoft Visual Studio\2019\Enterprise\VC\Tools\MSVC\14.23.28105\atlmfc\include\afxwin1.inl

; 130  : 	{ }

	mov	DWORD PTR [ecx], OFFSET ??_7CBrush@@6B@
	call	??1CGdiObject@@UAE@XZ			; CGdiObject::~CGdiObject
; File I:\Projets\AES\AES\AES\ColorButton.cpp

; 48   : }

	mov	ecx, esi
	call	??1CButton@@UAE@XZ			; CButton::~CButton
	mov	eax, DWORD PTR ___flags$[ebp]
	test	al, 1
	je	SHORT $LN15@scalar
	test	al, 4
	jne	SHORT $LN3@scalar
; File C:\Program Files (x86)\Microsoft Visual Studio\2019\Enterprise\VC\Tools\MSVC\14.23.28105\atlmfc\include\afx.inl

; 102  : 	{ ::operator delete(p); }

	push	esi
	call	??3@YAXPAX@Z				; operator delete
	add	esp, 4
	mov	eax, esi
	pop	esi
	pop	ebp
	ret	4
$LN3@scalar:
	push	144					; 00000090H
	push	esi
	call	?__global_delete@@YAXPAXI@Z		; __global_delete
	add	esp, 8
$LN15@scalar:
	mov	eax, esi
	pop	esi
	pop	ebp
	ret	4
??_GCColorButton@@UAEPAXI@Z ENDP			; CColorButton::`scalar deleting destructor'
_TEXT	ENDS
; Function compile flags: /Ogtp
; File I:\Projets\AES\AES\AES\ColorButton.cpp
; File C:\Program Files (x86)\Microsoft Visual Studio\2019\Enterprise\VC\Tools\MSVC\14.23.28105\atlmfc\include\afxwin1.inl
; File I:\Projets\AES\AES\AES\ColorButton.cpp
;	COMDAT ??1CColorButton@@UAE@XZ
_TEXT	SEGMENT
??1CColorButton@@UAE@XZ PROC				; CColorButton::~CColorButton, COMDAT
; _this$ = ecx

; 47   : {

	push	esi
	mov	esi, ecx

; 48   : }

	lea	ecx, DWORD PTR [esi+128]
	mov	DWORD PTR [esi], OFFSET ??_7CColorButton@@6B@
; File C:\Program Files (x86)\Microsoft Visual Studio\2019\Enterprise\VC\Tools\MSVC\14.23.28105\atlmfc\include\afxwin1.inl

; 130  : 	{ }

	mov	DWORD PTR [ecx], OFFSET ??_7CBrush@@6B@
	call	??1CGdiObject@@UAE@XZ			; CGdiObject::~CGdiObject
; File I:\Projets\AES\AES\AES\ColorButton.cpp

; 48   : }

	mov	ecx, esi
	pop	esi
	jmp	??1CButton@@UAE@XZ			; CButton::~CButton
??1CColorButton@@UAE@XZ ENDP				; CColorButton::~CColorButton
_TEXT	ENDS
; Function compile flags: /Ogtp
; File I:\Projets\AES\AES\AES\ColorButton.cpp
;	COMDAT ?GetMessageMap@CColorButton@@MBEPBUAFX_MSGMAP@@XZ
_TEXT	SEGMENT
?GetMessageMap@CColorButton@@MBEPBUAFX_MSGMAP@@XZ PROC	; CColorButton::GetMessageMap, COMDAT
; _this$ = ecx

; 51   : BEGIN_MESSAGE_MAP(CColorButton, CStatic)

	mov	eax, OFFSET ?messageMap@?1??GetThisMessageMap@CColorButton@@KGPBUAFX_MSGMAP@@XZ@4U3@B
	ret	0
?GetMessageMap@CColorButton@@MBEPBUAFX_MSGMAP@@XZ ENDP	; CColorButton::GetMessageMap
_TEXT	ENDS
; Function compile flags: /Ogtp
; File I:\Projets\AES\AES\AES\ColorButton.cpp
;	COMDAT ?GetThisMessageMap@CColorButton@@KGPBUAFX_MSGMAP@@XZ
_TEXT	SEGMENT
?GetThisMessageMap@CColorButton@@KGPBUAFX_MSGMAP@@XZ PROC ; CColorButton::GetThisMessageMap, COMDAT

; 52   : 	//{{AFX_MSG_MAP(CColorStatic)
; 53   : 	ON_WM_CTLCOLOR_REFLECT()
; 54   : 	//}}AFX_MSG_MAP
; 55   : END_MESSAGE_MAP()

	mov	eax, OFFSET ?messageMap@?1??GetThisMessageMap@CColorButton@@KGPBUAFX_MSGMAP@@XZ@4U3@B
	ret	0
?GetThisMessageMap@CColorButton@@KGPBUAFX_MSGMAP@@XZ ENDP ; CColorButton::GetThisMessageMap
_TEXT	ENDS
; Function compile flags: /Ogtp
; File I:\Projets\AES\AES\AES\ColorButton.cpp
; File C:\Program Files (x86)\Microsoft Visual Studio\2019\Enterprise\VC\Tools\MSVC\14.23.28105\atlmfc\include\afxwin1.inl
; File I:\Projets\AES\AES\AES\ColorButton.cpp
;	COMDAT ?CtlColor@CColorButton@@IAEPAUHBRUSH__@@PAVCDC@@I@Z
_TEXT	SEGMENT
_pDC$ = 8						; size = 4
_nCtlColor$ = 12					; size = 4
?CtlColor@CColorButton@@IAEPAUHBRUSH__@@PAVCDC@@I@Z PROC ; CColorButton::CtlColor, COMDAT
; _this$ = ecx

; 61   : {

	push	ebp
	mov	ebp, esp
	push	ebx
	push	esi
	push	edi
	mov	edi, ecx

; 62   : 	HBRUSH hbr;
; 63   : 	hbr = (HBRUSH)m_brBkgnd; // Passing a Handle to the Brush

	lea	eax, DWORD PTR [edi+128]
; File C:\Program Files (x86)\Microsoft Visual Studio\2019\Enterprise\VC\Tools\MSVC\14.23.28105\atlmfc\include\afxwin1.inl

; 124  : 	{ return (HBRUSH)(this == NULL ? NULL : m_hObject); }

	test	eax, eax
	jne	SHORT $LN6@CtlColor
	xor	ebx, ebx
	jmp	SHORT $LN7@CtlColor
$LN6@CtlColor:
	mov	ebx, DWORD PTR [eax+4]
$LN7@CtlColor:
; File I:\Projets\AES\AES\AES\ColorButton.cpp

; 64   : 	pDC->SetBkColor(m_crBkColor); // Setting the Color of the Text Background to the one passed by the Dialog

	mov	esi, DWORD PTR _pDC$[ebp]
	mov	ecx, esi
	push	DWORD PTR [edi+136]
	mov	edx, DWORD PTR [esi]
	call	DWORD PTR [edx+44]

; 65   : 	pDC->SetTextColor(m_crTextColor); // Setting the Text Color to the one Passed by the Dialog

	mov	edx, DWORD PTR [esi]
	mov	ecx, esi
	push	DWORD PTR [edi+140]
	call	DWORD PTR [edx+48]

; 66   : 
; 67   : 	if (nCtlColor)       // To get rid of compiler warning
; 68   :       nCtlColor += 0;
; 69   : 
; 70   : 	return hbr;

	pop	edi
	pop	esi
	mov	eax, ebx
	pop	ebx

; 71   : 	
; 72   : }

	pop	ebp
	ret	8
?CtlColor@CColorButton@@IAEPAUHBRUSH__@@PAVCDC@@I@Z ENDP ; CColorButton::CtlColor
_TEXT	ENDS
; Function compile flags: /Ogtp
; File I:\Projets\AES\AES\AES\ColorButton.cpp
;	COMDAT ?PreSubclassWindow@CColorButton@@UAEXXZ
_TEXT	SEGMENT
?PreSubclassWindow@CColorButton@@UAEXXZ PROC		; CColorButton::PreSubclassWindow, COMDAT
; _this$ = ecx

; 89   : {	

	push	esi

; 90   : 	ModifyStyle(0, BS_OWNERDRAW);	// make the button owner drawn

	push	0
	push	11					; 0000000bH
	push	0
	mov	esi, ecx
	call	?ModifyStyle@CWnd@@QAEHKKI@Z		; CWnd::ModifyStyle

; 91   : 
; 92   : 	CButton::PreSubclassWindow();

	mov	ecx, esi
	pop	esi
	jmp	?PreSubclassWindow@CWnd@@UAEXXZ		; CWnd::PreSubclassWindow
?PreSubclassWindow@CColorButton@@UAEXXZ ENDP		; CColorButton::PreSubclassWindow
_TEXT	ENDS
; Function compile flags: /Ogtp
; File C:\Program Files (x86)\Microsoft Visual Studio\2019\Enterprise\VC\Tools\MSVC\14.23.28105\atlmfc\include\afxwin1.inl
;	COMDAT ?GetSafeHandle@CGdiObject@@QBEPAXXZ
_TEXT	SEGMENT
?GetSafeHandle@CGdiObject@@QBEPAXXZ PROC		; CGdiObject::GetSafeHandle, COMDAT
; _this$ = ecx

; 68   : 	{ return this == NULL ? NULL : m_hObject; }

	test	ecx, ecx
	jne	SHORT $LN3@GetSafeHan
	xor	eax, eax
	ret	0
$LN3@GetSafeHan:
	mov	eax, DWORD PTR [ecx+4]
	ret	0
?GetSafeHandle@CGdiObject@@QBEPAXXZ ENDP		; CGdiObject::GetSafeHandle
_TEXT	ENDS
; Function compile flags: /Ogtp
; File C:\Program Files (x86)\Microsoft Visual Studio\2019\Enterprise\VC\Tools\MSVC\14.23.28105\atlmfc\include\afxwin2.inl
; File C:\Program Files (x86)\Microsoft Visual Studio\2019\Enterprise\VC\Tools\MSVC\14.23.28105\atlmfc\include\afxwin1.inl
; File C:\Program Files (x86)\Microsoft Visual Studio\2019\Enterprise\VC\Tools\MSVC\14.23.28105\atlmfc\include\afxwin2.inl
; File C:\Program Files (x86)\Microsoft Visual Studio\2019\Enterprise\VC\Tools\MSVC\14.23.28105\atlmfc\include\afxwin1.inl
; File C:\Program Files (x86)\Microsoft Visual Studio\2019\Enterprise\VC\Tools\MSVC\14.23.28105\atlmfc\include\afxwin2.inl
;	COMDAT ?RedrawWindow@CWnd@@QAEHPBUtagRECT@@PAVCRgn@@I@Z
_TEXT	SEGMENT
_lpRectUpdate$ = 8					; size = 4
_prgnUpdate$ = 12					; size = 4
_flags$ = 16						; size = 4
?RedrawWindow@CWnd@@QAEHPBUtagRECT@@PAVCRgn@@I@Z PROC	; CWnd::RedrawWindow, COMDAT
; _this$ = ecx

; 142  : 	{ ASSERT(::IsWindow(m_hWnd)); return ::RedrawWindow(m_hWnd, lpRectUpdate, (HRGN)prgnUpdate->GetSafeHandle(), flags); }

	push	ebp
	mov	ebp, esp
; File C:\Program Files (x86)\Microsoft Visual Studio\2019\Enterprise\VC\Tools\MSVC\14.23.28105\atlmfc\include\afxwin1.inl

; 68   : 	{ return this == NULL ? NULL : m_hObject; }

	mov	eax, DWORD PTR _prgnUpdate$[ebp]
	test	eax, eax
	jne	SHORT $LN5@RedrawWind
; File C:\Program Files (x86)\Microsoft Visual Studio\2019\Enterprise\VC\Tools\MSVC\14.23.28105\atlmfc\include\afxwin2.inl

; 142  : 	{ ASSERT(::IsWindow(m_hWnd)); return ::RedrawWindow(m_hWnd, lpRectUpdate, (HRGN)prgnUpdate->GetSafeHandle(), flags); }

	push	DWORD PTR _flags$[ebp]
	push	eax
	push	DWORD PTR _lpRectUpdate$[ebp]
	push	DWORD PTR [ecx+32]
	call	DWORD PTR __imp__RedrawWindow@16
	pop	ebp
	ret	12					; 0000000cH
$LN5@RedrawWind:
	push	DWORD PTR _flags$[ebp]
; File C:\Program Files (x86)\Microsoft Visual Studio\2019\Enterprise\VC\Tools\MSVC\14.23.28105\atlmfc\include\afxwin1.inl

; 68   : 	{ return this == NULL ? NULL : m_hObject; }

	mov	eax, DWORD PTR [eax+4]
; File C:\Program Files (x86)\Microsoft Visual Studio\2019\Enterprise\VC\Tools\MSVC\14.23.28105\atlmfc\include\afxwin2.inl

; 142  : 	{ ASSERT(::IsWindow(m_hWnd)); return ::RedrawWindow(m_hWnd, lpRectUpdate, (HRGN)prgnUpdate->GetSafeHandle(), flags); }

	push	eax
	push	DWORD PTR _lpRectUpdate$[ebp]
	push	DWORD PTR [ecx+32]
	call	DWORD PTR __imp__RedrawWindow@16
	pop	ebp
	ret	12					; 0000000cH
?RedrawWindow@CWnd@@QAEHPBUtagRECT@@PAVCRgn@@I@Z ENDP	; CWnd::RedrawWindow
_TEXT	ENDS
; Function compile flags: /Ogtp
; File C:\Program Files (x86)\Microsoft Visual Studio\2019\Enterprise\VC\Tools\MSVC\14.23.28105\atlmfc\include\afxwin1.inl
;	COMDAT ??BCBrush@@QBEPAUHBRUSH__@@XZ
_TEXT	SEGMENT
??BCBrush@@QBEPAUHBRUSH__@@XZ PROC			; CBrush::operator HBRUSH__ *, COMDAT
; _this$ = ecx

; 124  : 	{ return (HBRUSH)(this == NULL ? NULL : m_hObject); }

	test	ecx, ecx
	jne	SHORT $LN3@operator
	xor	eax, eax
	ret	0
$LN3@operator:
	mov	eax, DWORD PTR [ecx+4]
	ret	0
??BCBrush@@QBEPAUHBRUSH__@@XZ ENDP			; CBrush::operator HBRUSH__ *
_TEXT	ENDS
; Function compile flags: /Ogtp
; File C:\Program Files (x86)\Microsoft Visual Studio\2019\Enterprise\VC\Tools\MSVC\14.23.28105\atlmfc\include\afxwin1.inl
;	COMDAT ?CreateSolidBrush@CBrush@@QAEHK@Z
_TEXT	SEGMENT
_crColor$ = 8						; size = 4
?CreateSolidBrush@CBrush@@QAEHK@Z PROC			; CBrush::CreateSolidBrush, COMDAT
; _this$ = ecx

; 132  : 	{ return Attach(::CreateSolidBrush(crColor)); }

	push	ebp
	mov	ebp, esp
	push	esi
	push	DWORD PTR _crColor$[ebp]
	mov	esi, ecx
	call	DWORD PTR __imp__CreateSolidBrush@4
	push	eax
	mov	ecx, esi
	call	?Attach@CGdiObject@@QAEHPAX@Z		; CGdiObject::Attach
	pop	esi
	pop	ebp
	ret	4
?CreateSolidBrush@CBrush@@QAEHK@Z ENDP			; CBrush::CreateSolidBrush
_TEXT	ENDS
; Function compile flags: /Ogtp
; File C:\Program Files (x86)\Microsoft Visual Studio\2019\Enterprise\VC\Tools\MSVC\14.23.28105\atlmfc\include\afx.inl
;	COMDAT ??0CObject@@IAE@XZ
_TEXT	SEGMENT
??0CObject@@IAE@XZ PROC					; CObject::CObject, COMDAT
; _this$ = ecx

; 92   : 	{ }

	mov	eax, ecx
	ret	0
??0CObject@@IAE@XZ ENDP					; CObject::CObject
_TEXT	ENDS
; Function compile flags: /Ogtp
; File C:\Program Files (x86)\Microsoft Visual Studio\2019\Enterprise\VC\Tools\MSVC\14.23.28105\atlmfc\include\afxwin1.inl
;	COMDAT ??0CGdiObject@@QAE@XZ
_TEXT	SEGMENT
??0CGdiObject@@QAE@XZ PROC				; CGdiObject::CGdiObject, COMDAT
; _this$ = ecx

; 70   : 	{ m_hObject = NULL; }

	mov	DWORD PTR [ecx], OFFSET ??_7CGdiObject@@6B@
	mov	eax, ecx
	mov	DWORD PTR [ecx+4], 0
	ret	0
??0CGdiObject@@QAE@XZ ENDP				; CGdiObject::CGdiObject
_TEXT	ENDS
; Function compile flags: /Ogtp
; File C:\Program Files (x86)\Microsoft Visual Studio\2019\Enterprise\VC\Tools\MSVC\14.23.28105\atlmfc\include\afxwin1.inl
;	COMDAT ??0CBrush@@QAE@XZ
_TEXT	SEGMENT
??0CBrush@@QAE@XZ PROC					; CBrush::CBrush, COMDAT
; _this$ = ecx

; 70   : 	{ m_hObject = NULL; }

	mov	DWORD PTR [ecx+4], 0

; 128  : 	{ }

	mov	eax, ecx
	mov	DWORD PTR [ecx], OFFSET ??_7CBrush@@6B@
	ret	0
??0CBrush@@QAE@XZ ENDP					; CBrush::CBrush
_TEXT	ENDS
; Function compile flags: /Ogtp
; File C:\Program Files (x86)\Microsoft Visual Studio\2019\Enterprise\VC\Tools\MSVC\14.23.28105\atlmfc\include\afx.inl
;	COMDAT ??_GCButton@@UAEPAXI@Z
_TEXT	SEGMENT
___flags$ = 8						; size = 4
??_GCButton@@UAEPAXI@Z PROC				; CButton::`scalar deleting destructor', COMDAT
; _this$ = ecx
	push	ebp
	mov	ebp, esp
	push	esi
	mov	esi, ecx
	call	??1CButton@@UAE@XZ			; CButton::~CButton
	mov	eax, DWORD PTR ___flags$[ebp]
	test	al, 1
	je	SHORT $LN9@scalar
	test	al, 4
	jne	SHORT $LN3@scalar

; 102  : 	{ ::operator delete(p); }

	push	esi
	call	??3@YAXPAX@Z				; operator delete
	add	esp, 4
	mov	eax, esi
	pop	esi
	pop	ebp
	ret	4
$LN3@scalar:
	push	128					; 00000080H
	push	esi
	call	?__global_delete@@YAXPAXI@Z		; __global_delete
	add	esp, 8
$LN9@scalar:
	mov	eax, esi
	pop	esi
	pop	ebp
	ret	4
??_GCButton@@UAEPAXI@Z ENDP				; CButton::`scalar deleting destructor'
_TEXT	ENDS
; Function compile flags: /Ogtp
; File C:\Program Files (x86)\Microsoft Visual Studio\2019\Enterprise\VC\Tools\MSVC\14.23.28105\atlmfc\include\afxwin2.inl
;	COMDAT ??0CButton@@QAE@XZ
_TEXT	SEGMENT
_this$ = -4						; size = 4
??0CButton@@QAE@XZ PROC					; CButton::CButton, COMDAT
; _this$ = ecx

; 622  : 	{ }

	push	ebp
	mov	ebp, esp
	push	ecx
	push	esi
	mov	esi, ecx
	mov	DWORD PTR _this$[ebp], esi
	call	??0CWnd@@QAE@XZ				; CWnd::CWnd
	mov	DWORD PTR [esi], OFFSET ??_7CButton@@6B@
	mov	eax, esi
	pop	esi
	mov	esp, ebp
	pop	ebp
	ret	0
??0CButton@@QAE@XZ ENDP					; CButton::CButton
_TEXT	ENDS
END
