; Listing generated by Microsoft (R) Optimizing Compiler Version 19.29.30133.0 

	TITLE	j:\work\aes\aes\aes\release\colorradiobutton.obj
	.686P
	.XMM
	include listing.inc
	.model	flat

INCLUDELIB OLDNAMES

PUBLIC	??_R2CColorRadioButton@@8			; CColorRadioButton::`RTTI Base Class Array'
PUBLIC	??_R1A@?0A@EA@CColorRadioButton@@8		; CColorRadioButton::`RTTI Base Class Descriptor at (0,-1,0,64)'
PUBLIC	??_R3CColorRadioButton@@8			; CColorRadioButton::`RTTI Class Hierarchy Descriptor'
PUBLIC	??_R0?AVCColorRadioButton@@@8			; CColorRadioButton `RTTI Type Descriptor'
PUBLIC	??_R4CColorRadioButton@@6B@			; CColorRadioButton::`RTTI Complete Object Locator'
PUBLIC	??_7CColorRadioButton@@6B@			; CColorRadioButton::`vftable'
EXTRN	__imp__GetWindowLongW@8:PROC
EXTRN	__imp__DrawTextW@20:PROC
EXTRN	__imp__SetBkColor@8:PROC
EXTRN	__imp__SetTextColor@8:PROC
EXTRN	__imp__DrawFrameControl@16:PROC
EXTRN	?FillSolidRect@CDC@@QAEXPBUtagRECT@@K@Z:PROC	; CDC::FillSolidRect
EXTRN	?GetWindowTextW@CWnd@@QBEXAAV?$CStringT@_WV?$StrTraitMFC@_WV?$ChTraitsCRT@_W@ATL@@@@@ATL@@@Z:PROC ; CWnd::GetWindowTextW
EXTRN	__imp__CopyRect@8:PROC
EXTRN	?FromHandle@CDC@@SGPAV1@PAUHDC__@@@Z:PROC	; CDC::FromHandle
EXTRN	?OnCtlColor@CWnd@@IAEPAUHBRUSH__@@PAVCDC@@PAV1@I@Z:PROC ; CWnd::OnCtlColor
;	COMDAT ??_7CColorRadioButton@@6B@
CONST	SEGMENT
??_7CColorRadioButton@@6B@ DD FLAT:??_R4CColorRadioButton@@6B@ ; CColorRadioButton::`vftable'
	DD	FLAT:?GetRuntimeClass@CButton@@UBEPAUCRuntimeClass@@XZ
	DD	FLAT:??_ECColorRadioButton@@UAEPAXI@Z
	DD	FLAT:?Serialize@CObject@@UAEXAAVCArchive@@@Z
	DD	FLAT:?OnCmdMsg@CCmdTarget@@UAEHIHPAXPAUAFX_CMDHANDLERINFO@@@Z
	DD	FLAT:?OnFinalRelease@CWnd@@UAEXXZ
	DD	FLAT:?IsInvokeAllowed@CCmdTarget@@UAEHJ@Z
	DD	FLAT:?GetDispatchIID@CCmdTarget@@UAEHPAU_GUID@@@Z
	DD	FLAT:?GetTypeInfoCount@CCmdTarget@@UAEIXZ
	DD	FLAT:?GetTypeLibCache@CCmdTarget@@UAEPAVCTypeLibCache@@XZ
	DD	FLAT:?GetTypeLib@CCmdTarget@@UAEJKPAPAUITypeLib@@@Z
	DD	FLAT:?GetMessageMap@CColorRadioButton@@MBEPBUAFX_MSGMAP@@XZ
	DD	FLAT:?GetCommandMap@CCmdTarget@@MBEPBUAFX_OLECMDMAP@@XZ
	DD	FLAT:?GetDispatchMap@CCmdTarget@@MBEPBUAFX_DISPMAP@@XZ
	DD	FLAT:?GetConnectionMap@CCmdTarget@@MBEPBUAFX_CONNECTIONMAP@@XZ
	DD	FLAT:?GetInterfaceMap@CWnd@@MBEPBUAFX_INTERFACEMAP@@XZ
	DD	FLAT:?GetEventSinkMap@CCmdTarget@@MBEPBUAFX_EVENTSINKMAP@@XZ
	DD	FLAT:?OnCreateAggregates@CCmdTarget@@UAEHXZ
	DD	FLAT:?GetInterfaceHook@CCmdTarget@@UAEPAUIUnknown@@PBX@Z
	DD	FLAT:?GetExtraConnectionPoints@CCmdTarget@@MAEHPAVCPtrArray@@@Z
	DD	FLAT:?GetConnectionHook@CCmdTarget@@MAEPAUIConnectionPoint@@ABU_GUID@@@Z
	DD	FLAT:?PreSubclassWindow@CColorRadioButton@@UAEXXZ
	DD	FLAT:?Create@CWnd@@UAEHPB_W0KABUtagRECT@@PAV1@IPAUCCreateContext@@@Z
	DD	FLAT:?CreateEx@CWnd@@UAEHKPB_W0KABUtagRECT@@PAV1@IPAX@Z
	DD	FLAT:?CreateEx@CWnd@@UAEHKPB_W0KHHHHPAUHWND__@@PAUHMENU__@@PAX@Z
	DD	FLAT:?DestroyWindow@CWnd@@UAEHXZ
	DD	FLAT:?PreCreateWindow@CWnd@@UAEHAAUtagCREATESTRUCTW@@@Z
	DD	FLAT:?CalcWindowRect@CWnd@@UAEXPAUtagRECT@@I@Z
	DD	FLAT:?GetMenu@CWnd@@UBEPAVCMenu@@XZ
	DD	FLAT:?SetMenu@CWnd@@UAEHPAVCMenu@@@Z
	DD	FLAT:?OnToolHitTest@CWnd@@UBEHVCPoint@@PAUtagTOOLINFOW@@@Z
	DD	FLAT:?GetScrollBarCtrl@CWnd@@UBEPAVCScrollBar@@H@Z
	DD	FLAT:?WinHelpW@CWnd@@UAEXKI@Z
	DD	FLAT:?HtmlHelpW@CWnd@@UAEXKI@Z
	DD	FLAT:?WinHelpInternal@CWnd@@UAEXKI@Z
	DD	FLAT:?ContinueModal@CWnd@@UAEHXZ
	DD	FLAT:?EndModalLoop@CWnd@@UAEXH@Z
	DD	FLAT:?OnDrawIconicThumbnailOrLivePreview@CWnd@@UAEXAAVCDC@@VCRect@@VCSize@@HAAH@Z
	DD	FLAT:?EnsureStdObj@CWnd@@UAEJXZ
	DD	FLAT:?get_accParent@CWnd@@UAEJPAPAUIDispatch@@@Z
	DD	FLAT:?get_accChildCount@CWnd@@UAEJPAJ@Z
	DD	FLAT:?get_accChild@CWnd@@UAEJUtagVARIANT@@PAPAUIDispatch@@@Z
	DD	FLAT:?get_accName@CWnd@@UAEJUtagVARIANT@@PAPA_W@Z
	DD	FLAT:?get_accValue@CWnd@@UAEJUtagVARIANT@@PAPA_W@Z
	DD	FLAT:?get_accDescription@CWnd@@UAEJUtagVARIANT@@PAPA_W@Z
	DD	FLAT:?get_accRole@CWnd@@UAEJUtagVARIANT@@PAU2@@Z
	DD	FLAT:?get_accState@CWnd@@UAEJUtagVARIANT@@PAU2@@Z
	DD	FLAT:?get_accHelp@CWnd@@UAEJUtagVARIANT@@PAPA_W@Z
	DD	FLAT:?get_accHelpTopic@CWnd@@UAEJPAPA_WUtagVARIANT@@PAJ@Z
	DD	FLAT:?get_accKeyboardShortcut@CWnd@@UAEJUtagVARIANT@@PAPA_W@Z
	DD	FLAT:?get_accFocus@CWnd@@UAEJPAUtagVARIANT@@@Z
	DD	FLAT:?get_accSelection@CWnd@@UAEJPAUtagVARIANT@@@Z
	DD	FLAT:?get_accDefaultAction@CWnd@@UAEJUtagVARIANT@@PAPA_W@Z
	DD	FLAT:?accSelect@CWnd@@UAEJJUtagVARIANT@@@Z
	DD	FLAT:?accLocation@CWnd@@UAEJPAJ000UtagVARIANT@@@Z
	DD	FLAT:?accNavigate@CWnd@@UAEJJUtagVARIANT@@PAU2@@Z
	DD	FLAT:?accHitTest@CWnd@@UAEJJJPAUtagVARIANT@@@Z
	DD	FLAT:?accDoDefaultAction@CWnd@@UAEJUtagVARIANT@@@Z
	DD	FLAT:?put_accName@CWnd@@UAEJUtagVARIANT@@PA_W@Z
	DD	FLAT:?put_accValue@CWnd@@UAEJUtagVARIANT@@PA_W@Z
	DD	FLAT:?SetProxy@CWnd@@UAEJPAUIAccessibleProxy@@@Z
	DD	FLAT:?CreateAccessibleProxy@CWnd@@UAEJIJPAJ@Z
	DD	FLAT:?OnCommand@CWnd@@MAEHIJ@Z
	DD	FLAT:?OnNotify@CWnd@@MAEHIJPAJ@Z
	DD	FLAT:?GetSuperWndProcAddr@CWnd@@MAEPAP6GJPAUHWND__@@IIJ@ZXZ
	DD	FLAT:?DoDataExchange@CWnd@@MAEXPAVCDataExchange@@@Z
	DD	FLAT:?BeginModalState@CWnd@@UAEXXZ
	DD	FLAT:?EndModalState@CWnd@@UAEXXZ
	DD	FLAT:?PreTranslateMessage@CWnd@@UAEHPAUtagMSG@@@Z
	DD	FLAT:?OnAmbientProperty@CWnd@@UAEHPAVCOleControlSite@@JPAUtagVARIANT@@@Z
	DD	FLAT:?WindowProc@CWnd@@MAEJIIJ@Z
	DD	FLAT:?OnWndMsg@CWnd@@MAEHIIJPAJ@Z
	DD	FLAT:?DefWindowProcW@CWnd@@MAEJIIJ@Z
	DD	FLAT:?PostNcDestroy@CWnd@@MAEXXZ
	DD	FLAT:?OnChildNotify@CButton@@MAEHIIJPAJ@Z
	DD	FLAT:?OnTouchInputs@CWnd@@MAEHIPAUtagTOUCHINPUT@@@Z
	DD	FLAT:?OnTouchInput@CWnd@@MAEHVCPoint@@HHPAUtagTOUCHINPUT@@@Z
	DD	FLAT:?GetGestureStatus@CWnd@@MAEKVCPoint@@@Z
	DD	FLAT:?OnGestureZoom@CWnd@@MAEHVCPoint@@J@Z
	DD	FLAT:?OnGesturePan@CWnd@@MAEHVCPoint@@0@Z
	DD	FLAT:?OnGestureRotate@CWnd@@MAEHVCPoint@@N@Z
	DD	FLAT:?OnGestureTwoFingerTap@CWnd@@MAEHVCPoint@@@Z
	DD	FLAT:?OnGesturePressAndTap@CWnd@@MAEHVCPoint@@J@Z
	DD	FLAT:?ResizeDynamicLayout@CWnd@@MAEXXZ
	DD	FLAT:?CheckAutoCenter@CWnd@@UAEHXZ
	DD	FLAT:?IsFrameWnd@CWnd@@UBEHXZ
	DD	FLAT:?CreateControlContainer@CWnd@@MAEHPAPAVCOleControlContainer@@@Z
	DD	FLAT:?CreateControlSite@CWnd@@MAEHPAVCOleControlContainer@@PAPAVCOleControlSite@@IABU_GUID@@@Z
	DD	FLAT:?SetOccDialogInfo@CWnd@@MAEHPAU_AFX_OCC_DIALOG_INFO@@@Z
	DD	FLAT:?GetOccDialogInfo@CWnd@@MAEPAU_AFX_OCC_DIALOG_INFO@@XZ
	DD	FLAT:?Create@CButton@@UAEHPB_WKABUtagRECT@@PAVCWnd@@I@Z
	DD	FLAT:?DrawItem@CColorRadioButton@@UAEXPAUtagDRAWITEMSTRUCT@@@Z
CONST	ENDS
;	COMDAT ?_messageEntries@?1??GetThisMessageMap@CColorRadioButton@@KGPBUAFX_MSGMAP@@XZ@4QBUAFX_MSGMAP_ENTRY@@B
CONST	SEGMENT
?_messageEntries@?1??GetThisMessageMap@CColorRadioButton@@KGPBUAFX_MSGMAP@@XZ@4QBUAFX_MSGMAP_ENTRY@@B DD 0bc19H ; `CColorRadioButton::GetThisMessageMap'::`2'::_messageEntries
	DD	00H
	DD	00H
	DD	00H
	DD	09H
	DD	FLAT:?CtlColor@CColorRadioButton@@IAEPAUHBRUSH__@@PAVCDC@@I@Z
	DD	019H
	DD	00H
	DD	00H
	DD	00H
	DD	08H
	DD	FLAT:?OnCtlColor@CWnd@@IAEPAUHBRUSH__@@PAVCDC@@PAV1@I@Z
	DD	00H
	DD	00H
	DD	00H
	DD	00H
	DD	00H
	DD	00H
CONST	ENDS
;	COMDAT ?messageMap@?1??GetThisMessageMap@CColorRadioButton@@KGPBUAFX_MSGMAP@@XZ@4U3@B
CONST	SEGMENT
?messageMap@?1??GetThisMessageMap@CColorRadioButton@@KGPBUAFX_MSGMAP@@XZ@4U3@B DD FLAT:?GetThisMessageMap@CWnd@@KGPBUAFX_MSGMAP@@XZ ; `CColorRadioButton::GetThisMessageMap'::`2'::messageMap
	DD	FLAT:?_messageEntries@?1??GetThisMessageMap@CColorRadioButton@@KGPBUAFX_MSGMAP@@XZ@4QBUAFX_MSGMAP_ENTRY@@B
CONST	ENDS
;	COMDAT ??_R4CColorRadioButton@@6B@
rdata$r	SEGMENT
??_R4CColorRadioButton@@6B@ DD 00H			; CColorRadioButton::`RTTI Complete Object Locator'
	DD	00H
	DD	00H
	DD	FLAT:??_R0?AVCColorRadioButton@@@8
	DD	FLAT:??_R3CColorRadioButton@@8
rdata$r	ENDS
;	COMDAT ??_R0?AVCColorRadioButton@@@8
data$rs	SEGMENT
??_R0?AVCColorRadioButton@@@8 DD FLAT:??_7type_info@@6B@ ; CColorRadioButton `RTTI Type Descriptor'
	DD	00H
	DB	'.?AVCColorRadioButton@@', 00H
data$rs	ENDS
;	COMDAT ??_R3CColorRadioButton@@8
rdata$r	SEGMENT
??_R3CColorRadioButton@@8 DD 00H			; CColorRadioButton::`RTTI Class Hierarchy Descriptor'
	DD	00H
	DD	05H
	DD	FLAT:??_R2CColorRadioButton@@8
rdata$r	ENDS
;	COMDAT ??_R1A@?0A@EA@CColorRadioButton@@8
rdata$r	SEGMENT
??_R1A@?0A@EA@CColorRadioButton@@8 DD FLAT:??_R0?AVCColorRadioButton@@@8 ; CColorRadioButton::`RTTI Base Class Descriptor at (0,-1,0,64)'
	DD	04H
	DD	00H
	DD	0ffffffffH
	DD	00H
	DD	040H
	DD	FLAT:??_R3CColorRadioButton@@8
rdata$r	ENDS
;	COMDAT ??_R2CColorRadioButton@@8
rdata$r	SEGMENT
??_R2CColorRadioButton@@8 DD FLAT:??_R1A@?0A@EA@CColorRadioButton@@8 ; CColorRadioButton::`RTTI Base Class Array'
	DD	FLAT:??_R1A@?0A@EA@CButton@@8
	DD	FLAT:??_R1A@?0A@EA@CWnd@@8
	DD	FLAT:??_R1A@?0A@EA@CCmdTarget@@8
	DD	FLAT:??_R1A@?0A@EA@CObject@@8
PUBLIC	??0CRect@@QAE@PBUtagRECT@@@Z			; CRect::CRect
PUBLIC	?DrawFrameControl@CDC@@QAEHPAUtagRECT@@II@Z	; CDC::DrawFrameControl
PUBLIC	??BCRect@@QAEPAUtagRECT@@XZ			; CRect::operator tagRECT *
PUBLIC	?GetButtonStyle@CButton@@QBEIXZ			; CButton::GetButtonStyle
PUBLIC	?SetButtonStyle@CButton@@QAEXIH@Z		; CButton::SetButtonStyle
PUBLIC	?PreSubclassWindow@CColorRadioButton@@UAEXXZ	; CColorRadioButton::PreSubclassWindow
PUBLIC	?DrawItem@CColorRadioButton@@UAEXPAUtagDRAWITEMSTRUCT@@@Z ; CColorRadioButton::DrawItem
PUBLIC	?CtlColor@CColorRadioButton@@IAEPAUHBRUSH__@@PAVCDC@@I@Z ; CColorRadioButton::CtlColor
PUBLIC	?GetThisMessageMap@CColorRadioButton@@KGPBUAFX_MSGMAP@@XZ ; CColorRadioButton::GetThisMessageMap
PUBLIC	?GetMessageMap@CColorRadioButton@@MBEPBUAFX_MSGMAP@@XZ ; CColorRadioButton::GetMessageMap
PUBLIC	??_GCColorRadioButton@@UAEPAXI@Z		; CColorRadioButton::`scalar deleting destructor'
PUBLIC	??0CColorRadioButton@@QAE@XZ			; CColorRadioButton::CColorRadioButton
PUBLIC	?SetTextColor@CColorRadioButton@@QAEXK@Z	; CColorRadioButton::SetTextColor
PUBLIC	?SetBkColor@CColorRadioButton@@QAEXK@Z		; CColorRadioButton::SetBkColor
PUBLIC	?SetCheck@CColorRadioButton@@QAEXI@Z		; CColorRadioButton::SetCheck
PUBLIC	?GetCheck@CColorRadioButton@@QAEIXZ		; CColorRadioButton::GetCheck
PUBLIC	??1CColorRadioButton@@UAE@XZ			; CColorRadioButton::~CColorRadioButton
EXTRN	??_ECColorRadioButton@@UAEPAXI@Z:PROC		; CColorRadioButton::`vector deleting destructor'
;	COMDAT xdata$x
xdata$x	SEGMENT
__unwindtable$??0CColorRadioButton@@QAE@XZ DD 0ffffffffH
	DD	FLAT:__unwindfunclet$??0CColorRadioButton@@QAE@XZ$0
	DD	00H
	DD	FLAT:__unwindfunclet$??0CColorRadioButton@@QAE@XZ$1
__ehfuncinfo$??0CColorRadioButton@@QAE@XZ DQ 00000000219930522r ; 4.45598e-314
	DD	FLAT:__unwindtable$??0CColorRadioButton@@QAE@XZ
	DQ	00000000000000000r		; 0
	DQ	00000000000000000r		; 0
	DQ	00000000100000000r		; 2.122e-314
xdata$x	ENDS
;	COMDAT xdata$x
xdata$x	SEGMENT
__unwindtable$?DrawItem@CColorRadioButton@@UAEXPAUtagDRAWITEMSTRUCT@@@Z DD 0ffffffffH
	DD	FLAT:__unwindfunclet$?DrawItem@CColorRadioButton@@UAEXPAUtagDRAWITEMSTRUCT@@@Z$0
__ehfuncinfo$?DrawItem@CColorRadioButton@@UAEXPAUtagDRAWITEMSTRUCT@@@Z DQ 00000000119930522r ; 2.33398e-314
	DD	FLAT:__unwindtable$?DrawItem@CColorRadioButton@@UAEXPAUtagDRAWITEMSTRUCT@@@Z
	DQ	00000000000000000r		; 0
	DQ	00000000000000000r		; 0
	DQ	00000000100000000r		; 2.122e-314
END
