; Listing generated by Microsoft (R) Optimizing Compiler Version 19.23.28106.4 

	TITLE	i:\projets\aes\aes\aes\colorstatic.cpp
	.686P
	.XMM
	include listing.inc
	.model	flat

INCLUDELIB OLDNAMES

PUBLIC	??_R2CColorStatic@@8				; CColorStatic::`RTTI Base Class Array'
PUBLIC	??_R1A@?0A@EA@CColorStatic@@8			; CColorStatic::`RTTI Base Class Descriptor at (0,-1,0,64)'
PUBLIC	??_R3CColorStatic@@8				; CColorStatic::`RTTI Class Hierarchy Descriptor'
PUBLIC	??_R0?AVCColorStatic@@@8			; CColorStatic `RTTI Type Descriptor'
PUBLIC	??_R4CColorStatic@@6B@				; CColorStatic::`RTTI Complete Object Locator'
PUBLIC	??_7CColorStatic@@6B@				; CColorStatic::`vftable'
PUBLIC	??_R0?AVCStatic@@@8				; CStatic `RTTI Type Descriptor'
PUBLIC	??_R1A@?0A@EA@CStatic@@8			; CStatic::`RTTI Base Class Descriptor at (0,-1,0,64)'
PUBLIC	??_R2CStatic@@8					; CStatic::`RTTI Base Class Array'
PUBLIC	??_R3CStatic@@8					; CStatic::`RTTI Class Hierarchy Descriptor'
PUBLIC	??_R4CStatic@@6B@				; CStatic::`RTTI Complete Object Locator'
PUBLIC	??_7CStatic@@6B@				; CStatic::`vftable'
EXTRN	??1CStatic@@UAE@XZ:PROC				; CStatic::~CStatic
EXTRN	?GetRuntimeClass@CStatic@@UBEPAUCRuntimeClass@@XZ:PROC ; CStatic::GetRuntimeClass
EXTRN	?OnChildNotify@CStatic@@MAEHIIJPAJ@Z:PROC	; CStatic::OnChildNotify
EXTRN	?Create@CStatic@@UAEHPB_WKABUtagRECT@@PAVCWnd@@I@Z:PROC ; CStatic::Create
EXTRN	?DrawItem@CStatic@@UAEXPAUtagDRAWITEMSTRUCT@@@Z:PROC ; CStatic::DrawItem
;	COMDAT ??_7CStatic@@6B@
CONST	SEGMENT
??_7CStatic@@6B@ DD FLAT:??_R4CStatic@@6B@		; CStatic::`vftable'
	DD	FLAT:?GetRuntimeClass@CStatic@@UBEPAUCRuntimeClass@@XZ
	DD	FLAT:??_ECStatic@@UAEPAXI@Z
	DD	FLAT:?Serialize@CObject@@UAEXAAVCArchive@@@Z
	DD	FLAT:?OnCmdMsg@CCmdTarget@@UAEHIHPAXPAUAFX_CMDHANDLERINFO@@@Z
	DD	FLAT:?OnFinalRelease@CWnd@@UAEXXZ
	DD	FLAT:?IsInvokeAllowed@CCmdTarget@@UAEHJ@Z
	DD	FLAT:?GetDispatchIID@CCmdTarget@@UAEHPAU_GUID@@@Z
	DD	FLAT:?GetTypeInfoCount@CCmdTarget@@UAEIXZ
	DD	FLAT:?GetTypeLibCache@CCmdTarget@@UAEPAVCTypeLibCache@@XZ
	DD	FLAT:?GetTypeLib@CCmdTarget@@UAEJKPAPAUITypeLib@@@Z
	DD	FLAT:?GetMessageMap@CWnd@@MBEPBUAFX_MSGMAP@@XZ
	DD	FLAT:?GetCommandMap@CCmdTarget@@MBEPBUAFX_OLECMDMAP@@XZ
	DD	FLAT:?GetDispatchMap@CCmdTarget@@MBEPBUAFX_DISPMAP@@XZ
	DD	FLAT:?GetConnectionMap@CCmdTarget@@MBEPBUAFX_CONNECTIONMAP@@XZ
	DD	FLAT:?GetInterfaceMap@CWnd@@MBEPBUAFX_INTERFACEMAP@@XZ
	DD	FLAT:?GetEventSinkMap@CCmdTarget@@MBEPBUAFX_EVENTSINKMAP@@XZ
	DD	FLAT:?OnCreateAggregates@CCmdTarget@@UAEHXZ
	DD	FLAT:?GetInterfaceHook@CCmdTarget@@UAEPAUIUnknown@@PBX@Z
	DD	FLAT:?GetExtraConnectionPoints@CCmdTarget@@MAEHPAVCPtrArray@@@Z
	DD	FLAT:?GetConnectionHook@CCmdTarget@@MAEPAUIConnectionPoint@@ABU_GUID@@@Z
	DD	FLAT:?PreSubclassWindow@CWnd@@UAEXXZ
	DD	FLAT:?Create@CWnd@@UAEHPB_W0KABUtagRECT@@PAV1@IPAUCCreateContext@@@Z
	DD	FLAT:?CreateEx@CWnd@@UAEHKPB_W0KABUtagRECT@@PAV1@IPAX@Z
	DD	FLAT:?CreateEx@CWnd@@UAEHKPB_W0KHHHHPAUHWND__@@PAUHMENU__@@PAX@Z
	DD	FLAT:?DestroyWindow@CWnd@@UAEHXZ
	DD	FLAT:?PreCreateWindow@CWnd@@UAEHAAUtagCREATESTRUCTW@@@Z
	DD	FLAT:?CalcWindowRect@CWnd@@UAEXPAUtagRECT@@I@Z
	DD	FLAT:?GetMenu@CWnd@@UBEPAVCMenu@@XZ
	DD	FLAT:?SetMenu@CWnd@@UAEHPAVCMenu@@@Z
	DD	FLAT:?OnToolHitTest@CWnd@@UBEHVCPoint@@PAUtagTOOLINFOW@@@Z
	DD	FLAT:?GetScrollBarCtrl@CWnd@@UBEPAVCScrollBar@@H@Z
	DD	FLAT:?WinHelpW@CWnd@@UAEXKI@Z
	DD	FLAT:?HtmlHelpW@CWnd@@UAEXKI@Z
	DD	FLAT:?WinHelpInternal@CWnd@@UAEXKI@Z
	DD	FLAT:?ContinueModal@CWnd@@UAEHXZ
	DD	FLAT:?EndModalLoop@CWnd@@UAEXH@Z
	DD	FLAT:?OnDrawIconicThumbnailOrLivePreview@CWnd@@UAEXAAVCDC@@VCRect@@VCSize@@HAAH@Z
	DD	FLAT:?EnsureStdObj@CWnd@@UAEJXZ
	DD	FLAT:?get_accParent@CWnd@@UAEJPAPAUIDispatch@@@Z
	DD	FLAT:?get_accChildCount@CWnd@@UAEJPAJ@Z
	DD	FLAT:?get_accChild@CWnd@@UAEJUtagVARIANT@@PAPAUIDispatch@@@Z
	DD	FLAT:?get_accName@CWnd@@UAEJUtagVARIANT@@PAPA_W@Z
	DD	FLAT:?get_accValue@CWnd@@UAEJUtagVARIANT@@PAPA_W@Z
	DD	FLAT:?get_accDescription@CWnd@@UAEJUtagVARIANT@@PAPA_W@Z
	DD	FLAT:?get_accRole@CWnd@@UAEJUtagVARIANT@@PAU2@@Z
	DD	FLAT:?get_accState@CWnd@@UAEJUtagVARIANT@@PAU2@@Z
	DD	FLAT:?get_accHelp@CWnd@@UAEJUtagVARIANT@@PAPA_W@Z
	DD	FLAT:?get_accHelpTopic@CWnd@@UAEJPAPA_WUtagVARIANT@@PAJ@Z
	DD	FLAT:?get_accKeyboardShortcut@CWnd@@UAEJUtagVARIANT@@PAPA_W@Z
	DD	FLAT:?get_accFocus@CWnd@@UAEJPAUtagVARIANT@@@Z
	DD	FLAT:?get_accSelection@CWnd@@UAEJPAUtagVARIANT@@@Z
	DD	FLAT:?get_accDefaultAction@CWnd@@UAEJUtagVARIANT@@PAPA_W@Z
	DD	FLAT:?accSelect@CWnd@@UAEJJUtagVARIANT@@@Z
	DD	FLAT:?accLocation@CWnd@@UAEJPAJ000UtagVARIANT@@@Z
	DD	FLAT:?accNavigate@CWnd@@UAEJJUtagVARIANT@@PAU2@@Z
	DD	FLAT:?accHitTest@CWnd@@UAEJJJPAUtagVARIANT@@@Z
	DD	FLAT:?accDoDefaultAction@CWnd@@UAEJUtagVARIANT@@@Z
	DD	FLAT:?put_accName@CWnd@@UAEJUtagVARIANT@@PA_W@Z
	DD	FLAT:?put_accValue@CWnd@@UAEJUtagVARIANT@@PA_W@Z
	DD	FLAT:?SetProxy@CWnd@@UAEJPAUIAccessibleProxy@@@Z
	DD	FLAT:?CreateAccessibleProxy@CWnd@@UAEJIJPAJ@Z
	DD	FLAT:?OnCommand@CWnd@@MAEHIJ@Z
	DD	FLAT:?OnNotify@CWnd@@MAEHIJPAJ@Z
	DD	FLAT:?GetSuperWndProcAddr@CWnd@@MAEPAP6GJPAUHWND__@@IIJ@ZXZ
	DD	FLAT:?DoDataExchange@CWnd@@MAEXPAVCDataExchange@@@Z
	DD	FLAT:?BeginModalState@CWnd@@UAEXXZ
	DD	FLAT:?EndModalState@CWnd@@UAEXXZ
	DD	FLAT:?PreTranslateMessage@CWnd@@UAEHPAUtagMSG@@@Z
	DD	FLAT:?OnAmbientProperty@CWnd@@UAEHPAVCOleControlSite@@JPAUtagVARIANT@@@Z
	DD	FLAT:?WindowProc@CWnd@@MAEJIIJ@Z
	DD	FLAT:?OnWndMsg@CWnd@@MAEHIIJPAJ@Z
	DD	FLAT:?DefWindowProcW@CWnd@@MAEJIIJ@Z
	DD	FLAT:?PostNcDestroy@CWnd@@MAEXXZ
	DD	FLAT:?OnChildNotify@CStatic@@MAEHIIJPAJ@Z
	DD	FLAT:?OnTouchInputs@CWnd@@MAEHIPAUtagTOUCHINPUT@@@Z
	DD	FLAT:?OnTouchInput@CWnd@@MAEHVCPoint@@HHPAUtagTOUCHINPUT@@@Z
	DD	FLAT:?GetGestureStatus@CWnd@@MAEKVCPoint@@@Z
	DD	FLAT:?OnGestureZoom@CWnd@@MAEHVCPoint@@J@Z
	DD	FLAT:?OnGesturePan@CWnd@@MAEHVCPoint@@0@Z
	DD	FLAT:?OnGestureRotate@CWnd@@MAEHVCPoint@@N@Z
	DD	FLAT:?OnGestureTwoFingerTap@CWnd@@MAEHVCPoint@@@Z
	DD	FLAT:?OnGesturePressAndTap@CWnd@@MAEHVCPoint@@J@Z
	DD	FLAT:?ResizeDynamicLayout@CWnd@@MAEXXZ
	DD	FLAT:?CheckAutoCenter@CWnd@@UAEHXZ
	DD	FLAT:?IsFrameWnd@CWnd@@UBEHXZ
	DD	FLAT:?CreateControlContainer@CWnd@@MAEHPAPAVCOleControlContainer@@@Z
	DD	FLAT:?CreateControlSite@CWnd@@MAEHPAVCOleControlContainer@@PAPAVCOleControlSite@@IABU_GUID@@@Z
	DD	FLAT:?SetOccDialogInfo@CWnd@@MAEHPAU_AFX_OCC_DIALOG_INFO@@@Z
	DD	FLAT:?GetOccDialogInfo@CWnd@@MAEPAU_AFX_OCC_DIALOG_INFO@@XZ
	DD	FLAT:?Create@CStatic@@UAEHPB_WKABUtagRECT@@PAVCWnd@@I@Z
	DD	FLAT:?DrawItem@CStatic@@UAEXPAUtagDRAWITEMSTRUCT@@@Z
CONST	ENDS
;	COMDAT ??_R4CStatic@@6B@
rdata$r	SEGMENT
??_R4CStatic@@6B@ DD 00H				; CStatic::`RTTI Complete Object Locator'
	DD	00H
	DD	00H
	DD	FLAT:??_R0?AVCStatic@@@8
	DD	FLAT:??_R3CStatic@@8
rdata$r	ENDS
;	COMDAT ??_R3CStatic@@8
rdata$r	SEGMENT
??_R3CStatic@@8 DD 00H					; CStatic::`RTTI Class Hierarchy Descriptor'
	DD	00H
	DD	04H
	DD	FLAT:??_R2CStatic@@8
rdata$r	ENDS
;	COMDAT ??_R2CStatic@@8
rdata$r	SEGMENT
??_R2CStatic@@8 DD FLAT:??_R1A@?0A@EA@CStatic@@8	; CStatic::`RTTI Base Class Array'
	DD	FLAT:??_R1A@?0A@EA@CWnd@@8
	DD	FLAT:??_R1A@?0A@EA@CCmdTarget@@8
	DD	FLAT:??_R1A@?0A@EA@CObject@@8
rdata$r	ENDS
;	COMDAT ??_R1A@?0A@EA@CStatic@@8
rdata$r	SEGMENT
??_R1A@?0A@EA@CStatic@@8 DD FLAT:??_R0?AVCStatic@@@8	; CStatic::`RTTI Base Class Descriptor at (0,-1,0,64)'
	DD	03H
	DD	00H
	DD	0ffffffffH
	DD	00H
	DD	040H
	DD	FLAT:??_R3CStatic@@8
rdata$r	ENDS
;	COMDAT ??_R0?AVCStatic@@@8
data$r	SEGMENT
??_R0?AVCStatic@@@8 DD FLAT:??_7type_info@@6B@		; CStatic `RTTI Type Descriptor'
	DD	00H
	DB	'.?AVCStatic@@', 00H
data$r	ENDS
;	COMDAT ??_7CColorStatic@@6B@
CONST	SEGMENT
??_7CColorStatic@@6B@ DD FLAT:??_R4CColorStatic@@6B@	; CColorStatic::`vftable'
	DD	FLAT:?GetRuntimeClass@CStatic@@UBEPAUCRuntimeClass@@XZ
	DD	FLAT:??_ECColorStatic@@UAEPAXI@Z
	DD	FLAT:?Serialize@CObject@@UAEXAAVCArchive@@@Z
	DD	FLAT:?OnCmdMsg@CCmdTarget@@UAEHIHPAXPAUAFX_CMDHANDLERINFO@@@Z
	DD	FLAT:?OnFinalRelease@CWnd@@UAEXXZ
	DD	FLAT:?IsInvokeAllowed@CCmdTarget@@UAEHJ@Z
	DD	FLAT:?GetDispatchIID@CCmdTarget@@UAEHPAU_GUID@@@Z
	DD	FLAT:?GetTypeInfoCount@CCmdTarget@@UAEIXZ
	DD	FLAT:?GetTypeLibCache@CCmdTarget@@UAEPAVCTypeLibCache@@XZ
	DD	FLAT:?GetTypeLib@CCmdTarget@@UAEJKPAPAUITypeLib@@@Z
	DD	FLAT:?GetMessageMap@CColorStatic@@MBEPBUAFX_MSGMAP@@XZ
	DD	FLAT:?GetCommandMap@CCmdTarget@@MBEPBUAFX_OLECMDMAP@@XZ
	DD	FLAT:?GetDispatchMap@CCmdTarget@@MBEPBUAFX_DISPMAP@@XZ
	DD	FLAT:?GetConnectionMap@CCmdTarget@@MBEPBUAFX_CONNECTIONMAP@@XZ
	DD	FLAT:?GetInterfaceMap@CWnd@@MBEPBUAFX_INTERFACEMAP@@XZ
	DD	FLAT:?GetEventSinkMap@CCmdTarget@@MBEPBUAFX_EVENTSINKMAP@@XZ
	DD	FLAT:?OnCreateAggregates@CCmdTarget@@UAEHXZ
	DD	FLAT:?GetInterfaceHook@CCmdTarget@@UAEPAUIUnknown@@PBX@Z
	DD	FLAT:?GetExtraConnectionPoints@CCmdTarget@@MAEHPAVCPtrArray@@@Z
	DD	FLAT:?GetConnectionHook@CCmdTarget@@MAEPAUIConnectionPoint@@ABU_GUID@@@Z
	DD	FLAT:?PreSubclassWindow@CWnd@@UAEXXZ
	DD	FLAT:?Create@CWnd@@UAEHPB_W0KABUtagRECT@@PAV1@IPAUCCreateContext@@@Z
	DD	FLAT:?CreateEx@CWnd@@UAEHKPB_W0KABUtagRECT@@PAV1@IPAX@Z
	DD	FLAT:?CreateEx@CWnd@@UAEHKPB_W0KHHHHPAUHWND__@@PAUHMENU__@@PAX@Z
	DD	FLAT:?DestroyWindow@CWnd@@UAEHXZ
	DD	FLAT:?PreCreateWindow@CWnd@@UAEHAAUtagCREATESTRUCTW@@@Z
	DD	FLAT:?CalcWindowRect@CWnd@@UAEXPAUtagRECT@@I@Z
	DD	FLAT:?GetMenu@CWnd@@UBEPAVCMenu@@XZ
	DD	FLAT:?SetMenu@CWnd@@UAEHPAVCMenu@@@Z
	DD	FLAT:?OnToolHitTest@CWnd@@UBEHVCPoint@@PAUtagTOOLINFOW@@@Z
	DD	FLAT:?GetScrollBarCtrl@CWnd@@UBEPAVCScrollBar@@H@Z
	DD	FLAT:?WinHelpW@CWnd@@UAEXKI@Z
	DD	FLAT:?HtmlHelpW@CWnd@@UAEXKI@Z
	DD	FLAT:?WinHelpInternal@CWnd@@UAEXKI@Z
	DD	FLAT:?ContinueModal@CWnd@@UAEHXZ
	DD	FLAT:?EndModalLoop@CWnd@@UAEXH@Z
	DD	FLAT:?OnDrawIconicThumbnailOrLivePreview@CWnd@@UAEXAAVCDC@@VCRect@@VCSize@@HAAH@Z
	DD	FLAT:?EnsureStdObj@CWnd@@UAEJXZ
	DD	FLAT:?get_accParent@CWnd@@UAEJPAPAUIDispatch@@@Z
	DD	FLAT:?get_accChildCount@CWnd@@UAEJPAJ@Z
	DD	FLAT:?get_accChild@CWnd@@UAEJUtagVARIANT@@PAPAUIDispatch@@@Z
	DD	FLAT:?get_accName@CWnd@@UAEJUtagVARIANT@@PAPA_W@Z
	DD	FLAT:?get_accValue@CWnd@@UAEJUtagVARIANT@@PAPA_W@Z
	DD	FLAT:?get_accDescription@CWnd@@UAEJUtagVARIANT@@PAPA_W@Z
	DD	FLAT:?get_accRole@CWnd@@UAEJUtagVARIANT@@PAU2@@Z
	DD	FLAT:?get_accState@CWnd@@UAEJUtagVARIANT@@PAU2@@Z
	DD	FLAT:?get_accHelp@CWnd@@UAEJUtagVARIANT@@PAPA_W@Z
	DD	FLAT:?get_accHelpTopic@CWnd@@UAEJPAPA_WUtagVARIANT@@PAJ@Z
	DD	FLAT:?get_accKeyboardShortcut@CWnd@@UAEJUtagVARIANT@@PAPA_W@Z
	DD	FLAT:?get_accFocus@CWnd@@UAEJPAUtagVARIANT@@@Z
	DD	FLAT:?get_accSelection@CWnd@@UAEJPAUtagVARIANT@@@Z
	DD	FLAT:?get_accDefaultAction@CWnd@@UAEJUtagVARIANT@@PAPA_W@Z
	DD	FLAT:?accSelect@CWnd@@UAEJJUtagVARIANT@@@Z
	DD	FLAT:?accLocation@CWnd@@UAEJPAJ000UtagVARIANT@@@Z
	DD	FLAT:?accNavigate@CWnd@@UAEJJUtagVARIANT@@PAU2@@Z
	DD	FLAT:?accHitTest@CWnd@@UAEJJJPAUtagVARIANT@@@Z
	DD	FLAT:?accDoDefaultAction@CWnd@@UAEJUtagVARIANT@@@Z
	DD	FLAT:?put_accName@CWnd@@UAEJUtagVARIANT@@PA_W@Z
	DD	FLAT:?put_accValue@CWnd@@UAEJUtagVARIANT@@PA_W@Z
	DD	FLAT:?SetProxy@CWnd@@UAEJPAUIAccessibleProxy@@@Z
	DD	FLAT:?CreateAccessibleProxy@CWnd@@UAEJIJPAJ@Z
	DD	FLAT:?OnCommand@CWnd@@MAEHIJ@Z
	DD	FLAT:?OnNotify@CWnd@@MAEHIJPAJ@Z
	DD	FLAT:?GetSuperWndProcAddr@CWnd@@MAEPAP6GJPAUHWND__@@IIJ@ZXZ
	DD	FLAT:?DoDataExchange@CWnd@@MAEXPAVCDataExchange@@@Z
	DD	FLAT:?BeginModalState@CWnd@@UAEXXZ
	DD	FLAT:?EndModalState@CWnd@@UAEXXZ
	DD	FLAT:?PreTranslateMessage@CWnd@@UAEHPAUtagMSG@@@Z
	DD	FLAT:?OnAmbientProperty@CWnd@@UAEHPAVCOleControlSite@@JPAUtagVARIANT@@@Z
	DD	FLAT:?WindowProc@CWnd@@MAEJIIJ@Z
	DD	FLAT:?OnWndMsg@CWnd@@MAEHIIJPAJ@Z
	DD	FLAT:?DefWindowProcW@CWnd@@MAEJIIJ@Z
	DD	FLAT:?PostNcDestroy@CWnd@@MAEXXZ
	DD	FLAT:?OnChildNotify@CStatic@@MAEHIIJPAJ@Z
	DD	FLAT:?OnTouchInputs@CWnd@@MAEHIPAUtagTOUCHINPUT@@@Z
	DD	FLAT:?OnTouchInput@CWnd@@MAEHVCPoint@@HHPAUtagTOUCHINPUT@@@Z
	DD	FLAT:?GetGestureStatus@CWnd@@MAEKVCPoint@@@Z
	DD	FLAT:?OnGestureZoom@CWnd@@MAEHVCPoint@@J@Z
	DD	FLAT:?OnGesturePan@CWnd@@MAEHVCPoint@@0@Z
	DD	FLAT:?OnGestureRotate@CWnd@@MAEHVCPoint@@N@Z
	DD	FLAT:?OnGestureTwoFingerTap@CWnd@@MAEHVCPoint@@@Z
	DD	FLAT:?OnGesturePressAndTap@CWnd@@MAEHVCPoint@@J@Z
	DD	FLAT:?ResizeDynamicLayout@CWnd@@MAEXXZ
	DD	FLAT:?CheckAutoCenter@CWnd@@UAEHXZ
	DD	FLAT:?IsFrameWnd@CWnd@@UBEHXZ
	DD	FLAT:?CreateControlContainer@CWnd@@MAEHPAPAVCOleControlContainer@@@Z
	DD	FLAT:?CreateControlSite@CWnd@@MAEHPAVCOleControlContainer@@PAPAVCOleControlSite@@IABU_GUID@@@Z
	DD	FLAT:?SetOccDialogInfo@CWnd@@MAEHPAU_AFX_OCC_DIALOG_INFO@@@Z
	DD	FLAT:?GetOccDialogInfo@CWnd@@MAEPAU_AFX_OCC_DIALOG_INFO@@XZ
	DD	FLAT:?Create@CStatic@@UAEHPB_WKABUtagRECT@@PAVCWnd@@I@Z
	DD	FLAT:?DrawItem@CStatic@@UAEXPAUtagDRAWITEMSTRUCT@@@Z
CONST	ENDS
;	COMDAT ?_messageEntries@?1??GetThisMessageMap@CColorStatic@@KGPBUAFX_MSGMAP@@XZ@4QBUAFX_MSGMAP_ENTRY@@B
CONST	SEGMENT
?_messageEntries@?1??GetThisMessageMap@CColorStatic@@KGPBUAFX_MSGMAP@@XZ@4QBUAFX_MSGMAP_ENTRY@@B DD 0bc19H ; `CColorStatic::GetThisMessageMap'::`2'::_messageEntries
	DD	00H
	DD	00H
	DD	00H
	DD	09H
	DD	FLAT:?CtlColor@CColorStatic@@IAEPAUHBRUSH__@@PAVCDC@@I@Z
	DD	00H
	DD	00H
	DD	00H
	DD	00H
	DD	00H
	DD	00H
CONST	ENDS
;	COMDAT ?messageMap@?1??GetThisMessageMap@CColorStatic@@KGPBUAFX_MSGMAP@@XZ@4U3@B
CONST	SEGMENT
?messageMap@?1??GetThisMessageMap@CColorStatic@@KGPBUAFX_MSGMAP@@XZ@4U3@B DD FLAT:?GetThisMessageMap@CWnd@@KGPBUAFX_MSGMAP@@XZ ; `CColorStatic::GetThisMessageMap'::`2'::messageMap
	DD	FLAT:?_messageEntries@?1??GetThisMessageMap@CColorStatic@@KGPBUAFX_MSGMAP@@XZ@4QBUAFX_MSGMAP_ENTRY@@B
CONST	ENDS
;	COMDAT ??_R4CColorStatic@@6B@
rdata$r	SEGMENT
??_R4CColorStatic@@6B@ DD 00H				; CColorStatic::`RTTI Complete Object Locator'
	DD	00H
	DD	00H
	DD	FLAT:??_R0?AVCColorStatic@@@8
	DD	FLAT:??_R3CColorStatic@@8
rdata$r	ENDS
;	COMDAT ??_R0?AVCColorStatic@@@8
data$r	SEGMENT
??_R0?AVCColorStatic@@@8 DD FLAT:??_7type_info@@6B@	; CColorStatic `RTTI Type Descriptor'
	DD	00H
	DB	'.?AVCColorStatic@@', 00H
data$r	ENDS
;	COMDAT ??_R3CColorStatic@@8
rdata$r	SEGMENT
??_R3CColorStatic@@8 DD 00H				; CColorStatic::`RTTI Class Hierarchy Descriptor'
	DD	00H
	DD	05H
	DD	FLAT:??_R2CColorStatic@@8
rdata$r	ENDS
;	COMDAT ??_R1A@?0A@EA@CColorStatic@@8
rdata$r	SEGMENT
??_R1A@?0A@EA@CColorStatic@@8 DD FLAT:??_R0?AVCColorStatic@@@8 ; CColorStatic::`RTTI Base Class Descriptor at (0,-1,0,64)'
	DD	04H
	DD	00H
	DD	0ffffffffH
	DD	00H
	DD	040H
	DD	FLAT:??_R3CColorStatic@@8
rdata$r	ENDS
;	COMDAT ??_R2CColorStatic@@8
rdata$r	SEGMENT
??_R2CColorStatic@@8 DD FLAT:??_R1A@?0A@EA@CColorStatic@@8 ; CColorStatic::`RTTI Base Class Array'
	DD	FLAT:??_R1A@?0A@EA@CStatic@@8
	DD	FLAT:??_R1A@?0A@EA@CWnd@@8
	DD	FLAT:??_R1A@?0A@EA@CCmdTarget@@8
	DD	FLAT:??_R1A@?0A@EA@CObject@@8
PUBLIC	??0CStatic@@QAE@XZ				; CStatic::CStatic
PUBLIC	??_GCStatic@@UAEPAXI@Z				; CStatic::`scalar deleting destructor'
PUBLIC	?CtlColor@CColorStatic@@IAEPAUHBRUSH__@@PAVCDC@@I@Z ; CColorStatic::CtlColor
PUBLIC	?GetThisMessageMap@CColorStatic@@KGPBUAFX_MSGMAP@@XZ ; CColorStatic::GetThisMessageMap
PUBLIC	?GetMessageMap@CColorStatic@@MBEPBUAFX_MSGMAP@@XZ ; CColorStatic::GetMessageMap
PUBLIC	??_GCColorStatic@@UAEPAXI@Z			; CColorStatic::`scalar deleting destructor'
PUBLIC	??0CColorStatic@@QAE@XZ				; CColorStatic::CColorStatic
PUBLIC	?SetTextColor@CColorStatic@@QAEXK@Z		; CColorStatic::SetTextColor
PUBLIC	??1CColorStatic@@UAE@XZ				; CColorStatic::~CColorStatic
EXTRN	??_ECStatic@@UAEPAXI@Z:PROC			; CStatic::`vector deleting destructor'
EXTRN	??_ECColorStatic@@UAEPAXI@Z:PROC		; CColorStatic::`vector deleting destructor'
;	COMDAT xdata$x
xdata$x	SEGMENT
__unwindtable$??0CColorStatic@@QAE@XZ DD 0ffffffffH
	DD	FLAT:__unwindfunclet$??0CColorStatic@@QAE@XZ$0
	DD	00H
	DD	FLAT:__unwindfunclet$??0CColorStatic@@QAE@XZ$1
__ehfuncinfo$??0CColorStatic@@QAE@XZ DD 019930522H
	DD	02H
	DD	FLAT:__unwindtable$??0CColorStatic@@QAE@XZ
	DD	2 DUP(00H)
	DD	2 DUP(00H)
	DD	00H
	DD	01H
; Function compile flags: /Ogtp
; File I:\Projets\AES\AES\AES\ColorStatic.cpp
; File C:\Program Files (x86)\Microsoft Visual Studio\2019\Enterprise\VC\Tools\MSVC\14.23.28105\atlmfc\include\afxwin1.inl
; File I:\Projets\AES\AES\AES\ColorStatic.cpp
;	COMDAT ??1CColorStatic@@UAE@XZ
_TEXT	SEGMENT
??1CColorStatic@@UAE@XZ PROC				; CColorStatic::~CColorStatic, COMDAT
; _this$ = ecx

; 46   : {

	push	esi
	mov	esi, ecx

; 47   : }

	lea	ecx, DWORD PTR [esi+128]
	mov	DWORD PTR [esi], OFFSET ??_7CColorStatic@@6B@
; File C:\Program Files (x86)\Microsoft Visual Studio\2019\Enterprise\VC\Tools\MSVC\14.23.28105\atlmfc\include\afxwin1.inl

; 130  : 	{ }

	mov	DWORD PTR [ecx], OFFSET ??_7CBrush@@6B@
	call	??1CGdiObject@@UAE@XZ			; CGdiObject::~CGdiObject
; File I:\Projets\AES\AES\AES\ColorStatic.cpp

; 47   : }

	mov	ecx, esi
	pop	esi
	jmp	??1CStatic@@UAE@XZ			; CStatic::~CStatic
??1CColorStatic@@UAE@XZ ENDP				; CColorStatic::~CColorStatic
_TEXT	ENDS
; Function compile flags: /Ogtp
; File I:\Projets\AES\AES\AES\ColorStatic.cpp
; File C:\Program Files (x86)\Microsoft Visual Studio\2019\Enterprise\VC\Tools\MSVC\14.23.28105\atlmfc\include\afxwin2.inl
; File I:\Projets\AES\AES\AES\ColorStatic.cpp
; File C:\Program Files (x86)\Microsoft Visual Studio\2019\Enterprise\VC\Tools\MSVC\14.23.28105\atlmfc\include\afxwin2.inl
; File I:\Projets\AES\AES\AES\ColorStatic.cpp
;	COMDAT ?SetTextColor@CColorStatic@@QAEXK@Z
_TEXT	SEGMENT
_crColor$ = 8						; size = 4
?SetTextColor@CColorStatic@@QAEXK@Z PROC		; CColorStatic::SetTextColor, COMDAT
; _this$ = ecx

; 81   : {

	push	ebp
	mov	ebp, esp

; 82   : 	m_crTextColor = crColor; // Passing the value passed by the dialog to the member varaible for Text Color

	mov	eax, DWORD PTR _crColor$[ebp]
; File C:\Program Files (x86)\Microsoft Visual Studio\2019\Enterprise\VC\Tools\MSVC\14.23.28105\atlmfc\include\afxwin2.inl

; 142  : 	{ ASSERT(::IsWindow(m_hWnd)); return ::RedrawWindow(m_hWnd, lpRectUpdate, (HRGN)prgnUpdate->GetSafeHandle(), flags); }

	push	261					; 00000105H
	push	0
	push	0
	push	DWORD PTR [ecx+32]
; File I:\Projets\AES\AES\AES\ColorStatic.cpp

; 82   : 	m_crTextColor = crColor; // Passing the value passed by the dialog to the member varaible for Text Color

	mov	DWORD PTR [ecx+140], eax
; File C:\Program Files (x86)\Microsoft Visual Studio\2019\Enterprise\VC\Tools\MSVC\14.23.28105\atlmfc\include\afxwin2.inl

; 142  : 	{ ASSERT(::IsWindow(m_hWnd)); return ::RedrawWindow(m_hWnd, lpRectUpdate, (HRGN)prgnUpdate->GetSafeHandle(), flags); }

	call	DWORD PTR __imp__RedrawWindow@16
; File I:\Projets\AES\AES\AES\ColorStatic.cpp

; 84   : }

	pop	ebp
	ret	4
?SetTextColor@CColorStatic@@QAEXK@Z ENDP		; CColorStatic::SetTextColor
_TEXT	ENDS
; Function compile flags: /Ogtp
; File I:\Projets\AES\AES\AES\ColorStatic.cpp
; File C:\Program Files (x86)\Microsoft Visual Studio\2019\Enterprise\VC\Tools\MSVC\14.23.28105\atlmfc\include\afxwin2.inl
; File I:\Projets\AES\AES\AES\ColorStatic.cpp
; File C:\Program Files (x86)\Microsoft Visual Studio\2019\Enterprise\VC\Tools\MSVC\14.23.28105\atlmfc\include\afxwin1.inl
; File I:\Projets\AES\AES\AES\ColorStatic.cpp
; File C:\Program Files (x86)\Microsoft Visual Studio\2019\Enterprise\VC\Tools\MSVC\14.23.28105\atlmfc\include\afxwin1.inl
; File I:\Projets\AES\AES\AES\ColorStatic.cpp
; File C:\Program Files (x86)\Microsoft Visual Studio\2019\Enterprise\VC\Tools\MSVC\14.23.28105\atlmfc\include\afxwin1.inl
; File I:\Projets\AES\AES\AES\ColorStatic.cpp
;	COMDAT ??0CColorStatic@@QAE@XZ
_TEXT	SEGMENT
_this$ = -16						; size = 4
__$EHRec$ = -12						; size = 12
??0CColorStatic@@QAE@XZ PROC				; CColorStatic::CColorStatic, COMDAT
; _this$ = ecx

; 39   : {

	push	ebp
	mov	ebp, esp
	push	-1
	push	__ehhandler$??0CColorStatic@@QAE@XZ
	mov	eax, DWORD PTR fs:0
	push	eax
	push	ecx
	push	esi
	push	edi
	mov	eax, DWORD PTR ___security_cookie
	xor	eax, ebp
	push	eax
	lea	eax, DWORD PTR __$EHRec$[ebp]
	mov	DWORD PTR fs:0, eax
	mov	edi, ecx
	mov	DWORD PTR _this$[ebp], edi
; File C:\Program Files (x86)\Microsoft Visual Studio\2019\Enterprise\VC\Tools\MSVC\14.23.28105\atlmfc\include\afxwin2.inl

; 603  : 	{ }

	call	??0CWnd@@QAE@XZ				; CWnd::CWnd
; File I:\Projets\AES\AES\AES\ColorStatic.cpp

; 39   : {

	mov	DWORD PTR __$EHRec$[ebp+8], 0
	mov	DWORD PTR [edi], OFFSET ??_7CColorStatic@@6B@
; File C:\Program Files (x86)\Microsoft Visual Studio\2019\Enterprise\VC\Tools\MSVC\14.23.28105\atlmfc\include\afxwin1.inl

; 70   : 	{ m_hObject = NULL; }

	mov	DWORD PTR [edi+132], 0

; 128  : 	{ }

	mov	DWORD PTR [edi+128], OFFSET ??_7CBrush@@6B@
; File I:\Projets\AES\AES\AES\ColorStatic.cpp

; 40   : 	m_crBkColor = ::GetSysColor(COLOR_3DFACE); // Initializing the Background Color to the system face color.

	push	15					; 0000000fH
	mov	BYTE PTR __$EHRec$[ebp+8], 1
	call	DWORD PTR __imp__GetSysColor@4
; File C:\Program Files (x86)\Microsoft Visual Studio\2019\Enterprise\VC\Tools\MSVC\14.23.28105\atlmfc\include\afxwin1.inl

; 132  : 	{ return Attach(::CreateSolidBrush(crColor)); }

	push	eax
; File I:\Projets\AES\AES\AES\ColorStatic.cpp

; 40   : 	m_crBkColor = ::GetSysColor(COLOR_3DFACE); // Initializing the Background Color to the system face color.

	mov	DWORD PTR [edi+136], eax

; 41   : 	m_crTextColor = BLACK; // Initializing the text to Black

	mov	DWORD PTR [edi+140], 0
; File C:\Program Files (x86)\Microsoft Visual Studio\2019\Enterprise\VC\Tools\MSVC\14.23.28105\atlmfc\include\afxwin1.inl

; 132  : 	{ return Attach(::CreateSolidBrush(crColor)); }

	call	DWORD PTR __imp__CreateSolidBrush@4
	push	eax
	lea	ecx, DWORD PTR [edi+128]
	call	?Attach@CGdiObject@@QAEHPAX@Z		; CGdiObject::Attach
; File I:\Projets\AES\AES\AES\ColorStatic.cpp

; 43   : }

	mov	eax, edi
	mov	ecx, DWORD PTR __$EHRec$[ebp]
	mov	DWORD PTR fs:0, ecx
	pop	ecx
	pop	edi
	pop	esi
	mov	esp, ebp
	pop	ebp
	ret	0
_TEXT	ENDS
;	COMDAT text$x
text$x	SEGMENT
__unwindfunclet$??0CColorStatic@@QAE@XZ$0:
	mov	ecx, DWORD PTR _this$[ebp]
	jmp	??1CStatic@@UAE@XZ			; CStatic::~CStatic
__unwindfunclet$??0CColorStatic@@QAE@XZ$1:
	mov	ecx, DWORD PTR _this$[ebp]
	add	ecx, 128				; 00000080H
	jmp	??1CBrush@@UAE@XZ			; CBrush::~CBrush
__ehhandler$??0CColorStatic@@QAE@XZ:
	mov	edx, DWORD PTR [esp+8]
	lea	eax, DWORD PTR [edx+12]
	mov	ecx, DWORD PTR [edx-16]
	xor	ecx, eax
	call	@__security_check_cookie@4
	mov	eax, OFFSET __ehfuncinfo$??0CColorStatic@@QAE@XZ
	jmp	___CxxFrameHandler3
text$x	ENDS
??0CColorStatic@@QAE@XZ ENDP				; CColorStatic::CColorStatic
; Function compile flags: /Ogtp
; File I:\Projets\AES\AES\AES\ColorStatic.cpp
; File C:\Program Files (x86)\Microsoft Visual Studio\2019\Enterprise\VC\Tools\MSVC\14.23.28105\atlmfc\include\afxwin1.inl
; File I:\Projets\AES\AES\AES\ColorStatic.cpp
; File C:\Program Files (x86)\Microsoft Visual Studio\2019\Enterprise\VC\Tools\MSVC\14.23.28105\atlmfc\include\afx.inl
;	COMDAT ??_GCColorStatic@@UAEPAXI@Z
_TEXT	SEGMENT
___flags$ = 8						; size = 4
??_GCColorStatic@@UAEPAXI@Z PROC			; CColorStatic::`scalar deleting destructor', COMDAT
; _this$ = ecx
	push	ebp
	mov	ebp, esp
; File I:\Projets\AES\AES\AES\ColorStatic.cpp

; 46   : {

	push	esi
	mov	esi, ecx

; 47   : }

	lea	ecx, DWORD PTR [esi+128]
	mov	DWORD PTR [esi], OFFSET ??_7CColorStatic@@6B@
; File C:\Program Files (x86)\Microsoft Visual Studio\2019\Enterprise\VC\Tools\MSVC\14.23.28105\atlmfc\include\afxwin1.inl

; 130  : 	{ }

	mov	DWORD PTR [ecx], OFFSET ??_7CBrush@@6B@
	call	??1CGdiObject@@UAE@XZ			; CGdiObject::~CGdiObject
; File I:\Projets\AES\AES\AES\ColorStatic.cpp

; 47   : }

	mov	ecx, esi
	call	??1CStatic@@UAE@XZ			; CStatic::~CStatic
	mov	eax, DWORD PTR ___flags$[ebp]
	test	al, 1
	je	SHORT $LN15@scalar
	test	al, 4
	jne	SHORT $LN3@scalar
; File C:\Program Files (x86)\Microsoft Visual Studio\2019\Enterprise\VC\Tools\MSVC\14.23.28105\atlmfc\include\afx.inl

; 102  : 	{ ::operator delete(p); }

	push	esi
	call	??3@YAXPAX@Z				; operator delete
	add	esp, 4
	mov	eax, esi
	pop	esi
	pop	ebp
	ret	4
$LN3@scalar:
	push	144					; 00000090H
	push	esi
	call	?__global_delete@@YAXPAXI@Z		; __global_delete
	add	esp, 8
$LN15@scalar:
	mov	eax, esi
	pop	esi
	pop	ebp
	ret	4
??_GCColorStatic@@UAEPAXI@Z ENDP			; CColorStatic::`scalar deleting destructor'
_TEXT	ENDS
; Function compile flags: /Ogtp
; File I:\Projets\AES\AES\AES\ColorStatic.cpp
;	COMDAT ?GetMessageMap@CColorStatic@@MBEPBUAFX_MSGMAP@@XZ
_TEXT	SEGMENT
?GetMessageMap@CColorStatic@@MBEPBUAFX_MSGMAP@@XZ PROC	; CColorStatic::GetMessageMap, COMDAT
; _this$ = ecx

; 50   : BEGIN_MESSAGE_MAP(CColorStatic, CStatic)

	mov	eax, OFFSET ?messageMap@?1??GetThisMessageMap@CColorStatic@@KGPBUAFX_MSGMAP@@XZ@4U3@B
	ret	0
?GetMessageMap@CColorStatic@@MBEPBUAFX_MSGMAP@@XZ ENDP	; CColorStatic::GetMessageMap
_TEXT	ENDS
; Function compile flags: /Ogtp
; File I:\Projets\AES\AES\AES\ColorStatic.cpp
;	COMDAT ?GetThisMessageMap@CColorStatic@@KGPBUAFX_MSGMAP@@XZ
_TEXT	SEGMENT
?GetThisMessageMap@CColorStatic@@KGPBUAFX_MSGMAP@@XZ PROC ; CColorStatic::GetThisMessageMap, COMDAT

; 51   : 	//{{AFX_MSG_MAP(CColorStatic)
; 52   : 	ON_WM_CTLCOLOR_REFLECT()
; 53   : 	//}}AFX_MSG_MAP
; 54   : END_MESSAGE_MAP()

	mov	eax, OFFSET ?messageMap@?1??GetThisMessageMap@CColorStatic@@KGPBUAFX_MSGMAP@@XZ@4U3@B
	ret	0
?GetThisMessageMap@CColorStatic@@KGPBUAFX_MSGMAP@@XZ ENDP ; CColorStatic::GetThisMessageMap
_TEXT	ENDS
; Function compile flags: /Ogtp
; File I:\Projets\AES\AES\AES\ColorStatic.cpp
; File C:\Program Files (x86)\Microsoft Visual Studio\2019\Enterprise\VC\Tools\MSVC\14.23.28105\atlmfc\include\afxwin1.inl
; File I:\Projets\AES\AES\AES\ColorStatic.cpp
;	COMDAT ?CtlColor@CColorStatic@@IAEPAUHBRUSH__@@PAVCDC@@I@Z
_TEXT	SEGMENT
_pDC$ = 8						; size = 4
_nCtlColor$ = 12					; size = 4
?CtlColor@CColorStatic@@IAEPAUHBRUSH__@@PAVCDC@@I@Z PROC ; CColorStatic::CtlColor, COMDAT
; _this$ = ecx

; 60   : {

	push	ebp
	mov	ebp, esp
	push	ebx
	push	esi
	push	edi
	mov	edi, ecx

; 61   : 	HBRUSH hbr;
; 62   : 	hbr = (HBRUSH)m_brBkgnd; // Passing a Handle to the Brush

	lea	eax, DWORD PTR [edi+128]
; File C:\Program Files (x86)\Microsoft Visual Studio\2019\Enterprise\VC\Tools\MSVC\14.23.28105\atlmfc\include\afxwin1.inl

; 124  : 	{ return (HBRUSH)(this == NULL ? NULL : m_hObject); }

	test	eax, eax
	jne	SHORT $LN6@CtlColor
	xor	ebx, ebx
	jmp	SHORT $LN7@CtlColor
$LN6@CtlColor:
	mov	ebx, DWORD PTR [eax+4]
$LN7@CtlColor:
; File I:\Projets\AES\AES\AES\ColorStatic.cpp

; 63   : 	pDC->SetBkColor(m_crBkColor); // Setting the Color of the Text Background to the one passed by the Dialog

	mov	esi, DWORD PTR _pDC$[ebp]
	mov	ecx, esi
	push	DWORD PTR [edi+136]
	mov	edx, DWORD PTR [esi]
	call	DWORD PTR [edx+44]

; 64   : 	pDC->SetTextColor(m_crTextColor); // Setting the Text Color to the one Passed by the Dialog

	mov	edx, DWORD PTR [esi]
	mov	ecx, esi
	push	DWORD PTR [edi+140]
	call	DWORD PTR [edx+48]

; 65   : 
; 66   : 	if (nCtlColor)  nCtlColor += 0;
; 67   : 
; 68   : 	return hbr;

	pop	edi
	pop	esi
	mov	eax, ebx
	pop	ebx

; 69   : 	
; 70   : }

	pop	ebp
	ret	8
?CtlColor@CColorStatic@@IAEPAUHBRUSH__@@PAVCDC@@I@Z ENDP ; CColorStatic::CtlColor
_TEXT	ENDS
; Function compile flags: /Ogtp
; File C:\Program Files (x86)\Microsoft Visual Studio\2019\Enterprise\VC\Tools\MSVC\14.23.28105\atlmfc\include\afx.inl
;	COMDAT ??_GCStatic@@UAEPAXI@Z
_TEXT	SEGMENT
___flags$ = 8						; size = 4
??_GCStatic@@UAEPAXI@Z PROC				; CStatic::`scalar deleting destructor', COMDAT
; _this$ = ecx
	push	ebp
	mov	ebp, esp
	push	esi
	mov	esi, ecx
	call	??1CStatic@@UAE@XZ			; CStatic::~CStatic
	mov	eax, DWORD PTR ___flags$[ebp]
	test	al, 1
	je	SHORT $LN9@scalar
	test	al, 4
	jne	SHORT $LN3@scalar

; 102  : 	{ ::operator delete(p); }

	push	esi
	call	??3@YAXPAX@Z				; operator delete
	add	esp, 4
	mov	eax, esi
	pop	esi
	pop	ebp
	ret	4
$LN3@scalar:
	push	128					; 00000080H
	push	esi
	call	?__global_delete@@YAXPAXI@Z		; __global_delete
	add	esp, 8
$LN9@scalar:
	mov	eax, esi
	pop	esi
	pop	ebp
	ret	4
??_GCStatic@@UAEPAXI@Z ENDP				; CStatic::`scalar deleting destructor'
_TEXT	ENDS
; Function compile flags: /Ogtp
; File C:\Program Files (x86)\Microsoft Visual Studio\2019\Enterprise\VC\Tools\MSVC\14.23.28105\atlmfc\include\afxwin2.inl
;	COMDAT ??0CStatic@@QAE@XZ
_TEXT	SEGMENT
_this$ = -4						; size = 4
??0CStatic@@QAE@XZ PROC					; CStatic::CStatic, COMDAT
; _this$ = ecx

; 603  : 	{ }

	push	ebp
	mov	ebp, esp
	push	ecx
	push	esi
	mov	esi, ecx
	mov	DWORD PTR _this$[ebp], esi
	call	??0CWnd@@QAE@XZ				; CWnd::CWnd
	mov	DWORD PTR [esi], OFFSET ??_7CStatic@@6B@
	mov	eax, esi
	pop	esi
	mov	esp, ebp
	pop	ebp
	ret	0
??0CStatic@@QAE@XZ ENDP					; CStatic::CStatic
_TEXT	ENDS
END
