; Listing generated by Microsoft (R) Optimizing Compiler Version 19.29.30133.0 

	TITLE	j:\work\aes\aes\aes\release\manipulation_fichier.obj
	.686P
	.XMM
	include listing.inc
	.model	flat

INCLUDELIB OLDNAMES

PUBLIC	??_C@_01LFCBOECM@?4@				; `string'
EXTRN	__wcslwr_s:PROC
EXTRN	?ConvertStringToBSTR@_com_util@@YGPA_WPBD@Z:PROC ; _com_util::ConvertStringToBSTR
EXTRN	__imp__SysAllocString@4:PROC
EXTRN	__imp__SysStringLen@4:PROC
EXTRN	__imp__SysAllocStringByteLen@8:PROC
EXTRN	?_com_issue_error@@YGXJ@Z:PROC			; _com_issue_error
EXTRN	__imp__SysFreeString@4:PROC
EXTRN	?GetFileTitle@CFile@@UBE?AV?$CStringT@_WV?$StrTraitMFC@_WV?$ChTraitsCRT@_W@ATL@@@@@ATL@@XZ:PROC ; CFile::GetFileTitle
EXTRN	??0CFile@@QAE@PB_WI@Z:PROC			; CFile::CFile
EXTRN	?GetFileName@CFile@@UBE?AV?$CStringT@_WV?$StrTraitMFC@_WV?$ChTraitsCRT@_W@ATL@@@@@ATL@@XZ:PROC ; CFile::GetFileName
EXTRN	__imp__PathFileExistsW@4:PROC
;	COMDAT ??_C@_01LFCBOECM@?4@
CONST	SEGMENT
??_C@_01LFCBOECM@?4@ DB '.', 00H			; `string'
PUBLIC	??8ATL@@YA_NABV?$CStringT@_WV?$StrTraitMFC@_WV?$ChTraitsCRT@_W@ATL@@@@@0@0@Z ; ATL::operator==
PUBLIC	??HATL@@YA?AV?$CStringT@_WV?$StrTraitMFC@_WV?$ChTraitsCRT@_W@ATL@@@@@0@PB_WABV10@@Z ; ATL::operator+
PUBLIC	??B_bstr_t@@QBEPB_WXZ				; _bstr_t::operator wchar_t const *
PUBLIC	?GetWString@Data_t@_bstr_t@@QAEAAPA_WXZ		; _bstr_t::Data_t::GetWString
PUBLIC	??H@YA?AV_bstr_t@@PB_WABV0@@Z			; operator+
PUBLIC	??1_bstr_t@@QAE@XZ				; _bstr_t::~_bstr_t
PUBLIC	?_Free@_bstr_t@@AAEXXZ				; _bstr_t::_Free
PUBLIC	?Release@Data_t@_bstr_t@@QAEKXZ			; _bstr_t::Data_t::Release
PUBLIC	??_GData_t@_bstr_t@@AAEPAXI@Z			; _bstr_t::Data_t::`scalar deleting destructor'
PUBLIC	??1Data_t@_bstr_t@@AAE@XZ			; _bstr_t::Data_t::~Data_t
PUBLIC	?_Free@Data_t@_bstr_t@@AAEXXZ			; _bstr_t::Data_t::_Free
PUBLIC	??0_bstr_t@@QAE@ABV0@@Z				; _bstr_t::_bstr_t
PUBLIC	?_AddRef@_bstr_t@@AAEXXZ			; _bstr_t::_AddRef
PUBLIC	?AddRef@Data_t@_bstr_t@@QAEKXZ			; _bstr_t::Data_t::AddRef
PUBLIC	??Y_bstr_t@@QAEAAV0@ABV0@@Z			; _bstr_t::operator+=
PUBLIC	??0Data_t@_bstr_t@@QAE@ABV1@0@Z			; _bstr_t::Data_t::Data_t
PUBLIC	?length@_bstr_t@@QBEIXZ				; _bstr_t::length
PUBLIC	?Length@Data_t@_bstr_t@@QBEIXZ			; _bstr_t::Data_t::Length
PUBLIC	?__autoclassinit2@Data_t@_bstr_t@@QAEXI@Z	; _bstr_t::Data_t::__autoclassinit2
PUBLIC	??2Data_t@_bstr_t@@SAPAXI@Z			; _bstr_t::Data_t::operator new
PUBLIC	??0_bstr_t@@QAE@PB_W@Z				; _bstr_t::_bstr_t
PUBLIC	??0Data_t@_bstr_t@@QAE@PB_W@Z			; _bstr_t::Data_t::Data_t
PUBLIC	?__autoclassinit2@_bstr_t@@QAEXI@Z		; _bstr_t::__autoclassinit2
PUBLIC	??0_bstr_t@@QAE@PBD@Z				; _bstr_t::_bstr_t
PUBLIC	??0Data_t@_bstr_t@@QAE@PBD@Z			; _bstr_t::Data_t::Data_t
PUBLIC	?StringLowercase@?$ChTraitsCRT@_W@ATL@@SAPA_WPA_WI@Z ; ATL::ChTraitsCRT<wchar_t>::StringLowercase
PUBLIC	?MakeLower@?$CStringT@_WV?$StrTraitMFC@_WV?$ChTraitsCRT@_W@ATL@@@@@ATL@@QAEAAV12@XZ ; ATL::CStringT<wchar_t,StrTraitMFC<wchar_t,ATL::ChTraitsCRT<wchar_t> > >::MakeLower
PUBLIC	?Extraction_Extension@Manipulation_Fichier@@AAE?AV?$CStringT@_WV?$StrTraitMFC@_WV?$ChTraitsCRT@_W@ATL@@@@@ATL@@V23@@Z ; Manipulation_Fichier::Extraction_Extension
PUBLIC	??0Manipulation_Fichier@@QAE@XZ			; Manipulation_Fichier::Manipulation_Fichier
PUBLIC	??1Manipulation_Fichier@@QAE@XZ			; Manipulation_Fichier::~Manipulation_Fichier
PUBLIC	?Test_Extention@Manipulation_Fichier@@QAEHV?$CStringT@_WV?$StrTraitMFC@_WV?$ChTraitsCRT@_W@ATL@@@@@ATL@@0@Z ; Manipulation_Fichier::Test_Extention
PUBLIC	?Ajoute_Extension@Manipulation_Fichier@@QAE?AV?$CStringT@_WV?$StrTraitMFC@_WV?$ChTraitsCRT@_W@ATL@@@@@ATL@@V23@0@Z ; Manipulation_Fichier::Ajoute_Extension
PUBLIC	?Supprime_Extension@Manipulation_Fichier@@QAE?AV?$CStringT@_WV?$StrTraitMFC@_WV?$ChTraitsCRT@_W@ATL@@@@@ATL@@V23@@Z ; Manipulation_Fichier::Supprime_Extension
;	COMDAT xdata$x
xdata$x	SEGMENT
__unwindtable$?Supprime_Extension@Manipulation_Fichier@@QAE?AV?$CStringT@_WV?$StrTraitMFC@_WV?$ChTraitsCRT@_W@ATL@@@@@ATL@@V23@@Z DD 0ffffffffH
	DD	FLAT:__unwindfunclet$?Supprime_Extension@Manipulation_Fichier@@QAE?AV?$CStringT@_WV?$StrTraitMFC@_WV?$ChTraitsCRT@_W@ATL@@@@@ATL@@V23@@Z$0
__ehfuncinfo$?Supprime_Extension@Manipulation_Fichier@@QAE?AV?$CStringT@_WV?$StrTraitMFC@_WV?$ChTraitsCRT@_W@ATL@@@@@ATL@@V23@@Z DQ 00000000119930522r ; 2.33398e-314
	DD	FLAT:__unwindtable$?Supprime_Extension@Manipulation_Fichier@@QAE?AV?$CStringT@_WV?$StrTraitMFC@_WV?$ChTraitsCRT@_W@ATL@@@@@ATL@@V23@@Z
	DQ	00000000000000000r		; 0
	DQ	00000000000000000r		; 0
	DQ	00000000100000000r		; 2.122e-314
xdata$x	ENDS
;	COMDAT xdata$x
xdata$x	SEGMENT
__ehfuncinfo$?Ajoute_Extension@Manipulation_Fichier@@QAE?AV?$CStringT@_WV?$StrTraitMFC@_WV?$ChTraitsCRT@_W@ATL@@@@@ATL@@V23@0@Z DQ 00000000619930522r ; 1.2944e-313
	DD	FLAT:__unwindtable$?Ajoute_Extension@Manipulation_Fichier@@QAE?AV?$CStringT@_WV?$StrTraitMFC@_WV?$ChTraitsCRT@_W@ATL@@@@@ATL@@V23@0@Z
	DQ	00000000000000000r		; 0
	DQ	00000000000000000r		; 0
	DQ	00000000100000000r		; 2.122e-314
__unwindtable$?Ajoute_Extension@Manipulation_Fichier@@QAE?AV?$CStringT@_WV?$StrTraitMFC@_WV?$ChTraitsCRT@_W@ATL@@@@@ATL@@V23@0@Z DD 0ffffffffH
	DD	FLAT:__unwindfunclet$?Ajoute_Extension@Manipulation_Fichier@@QAE?AV?$CStringT@_WV?$StrTraitMFC@_WV?$ChTraitsCRT@_W@ATL@@@@@ATL@@V23@0@Z$0
	DD	00H
	DD	FLAT:__unwindfunclet$?Ajoute_Extension@Manipulation_Fichier@@QAE?AV?$CStringT@_WV?$StrTraitMFC@_WV?$ChTraitsCRT@_W@ATL@@@@@ATL@@V23@0@Z$1
	DD	01H
	DD	FLAT:__unwindfunclet$?Ajoute_Extension@Manipulation_Fichier@@QAE?AV?$CStringT@_WV?$StrTraitMFC@_WV?$ChTraitsCRT@_W@ATL@@@@@ATL@@V23@0@Z$5
	DD	01H
	DD	FLAT:__unwindfunclet$?Ajoute_Extension@Manipulation_Fichier@@QAE?AV?$CStringT@_WV?$StrTraitMFC@_WV?$ChTraitsCRT@_W@ATL@@@@@ATL@@V23@0@Z$2
	DD	03H
	DD	FLAT:__unwindfunclet$?Ajoute_Extension@Manipulation_Fichier@@QAE?AV?$CStringT@_WV?$StrTraitMFC@_WV?$ChTraitsCRT@_W@ATL@@@@@ATL@@V23@0@Z$6
	DD	04H
	DD	FLAT:__unwindfunclet$?Ajoute_Extension@Manipulation_Fichier@@QAE?AV?$CStringT@_WV?$StrTraitMFC@_WV?$ChTraitsCRT@_W@ATL@@@@@ATL@@V23@0@Z$7
xdata$x	ENDS
;	COMDAT xdata$x
xdata$x	SEGMENT
__ehfuncinfo$?Test_Extention@Manipulation_Fichier@@QAEHV?$CStringT@_WV?$StrTraitMFC@_WV?$ChTraitsCRT@_W@ATL@@@@@ATL@@0@Z DQ 00000000619930522r ; 1.2944e-313
	DD	FLAT:__unwindtable$?Test_Extention@Manipulation_Fichier@@QAEHV?$CStringT@_WV?$StrTraitMFC@_WV?$ChTraitsCRT@_W@ATL@@@@@ATL@@0@Z
	DQ	00000000000000000r		; 0
	DQ	00000000000000000r		; 0
	DQ	00000000100000000r		; 2.122e-314
__unwindtable$?Test_Extention@Manipulation_Fichier@@QAEHV?$CStringT@_WV?$StrTraitMFC@_WV?$ChTraitsCRT@_W@ATL@@@@@ATL@@0@Z DD 0ffffffffH
	DD	FLAT:__unwindfunclet$?Test_Extention@Manipulation_Fichier@@QAEHV?$CStringT@_WV?$StrTraitMFC@_WV?$ChTraitsCRT@_W@ATL@@@@@ATL@@0@Z$0
	DD	00H
	DD	FLAT:__unwindfunclet$?Test_Extention@Manipulation_Fichier@@QAEHV?$CStringT@_WV?$StrTraitMFC@_WV?$ChTraitsCRT@_W@ATL@@@@@ATL@@0@Z$1
	DD	01H
	DD	FLAT:__unwindfunclet$?Test_Extention@Manipulation_Fichier@@QAEHV?$CStringT@_WV?$StrTraitMFC@_WV?$ChTraitsCRT@_W@ATL@@@@@ATL@@0@Z$2
	DD	02H
	DD	FLAT:__unwindfunclet$?Test_Extention@Manipulation_Fichier@@QAEHV?$CStringT@_WV?$StrTraitMFC@_WV?$ChTraitsCRT@_W@ATL@@@@@ATL@@0@Z$7
	DD	03H
	DD	FLAT:__unwindfunclet$?Test_Extention@Manipulation_Fichier@@QAEHV?$CStringT@_WV?$StrTraitMFC@_WV?$ChTraitsCRT@_W@ATL@@@@@ATL@@0@Z$6
	DD	04H
	DD	FLAT:__unwindfunclet$?Test_Extention@Manipulation_Fichier@@QAEHV?$CStringT@_WV?$StrTraitMFC@_WV?$ChTraitsCRT@_W@ATL@@@@@ATL@@0@Z$8
xdata$x	ENDS
;	COMDAT xdata$x
xdata$x	SEGMENT
__unwindtable$?Extraction_Extension@Manipulation_Fichier@@AAE?AV?$CStringT@_WV?$StrTraitMFC@_WV?$ChTraitsCRT@_W@ATL@@@@@ATL@@V23@@Z DD 0ffffffffH
	DD	FLAT:__unwindfunclet$?Extraction_Extension@Manipulation_Fichier@@AAE?AV?$CStringT@_WV?$StrTraitMFC@_WV?$ChTraitsCRT@_W@ATL@@@@@ATL@@V23@@Z$1
	DD	00H
	DD	FLAT:__unwindfunclet$?Extraction_Extension@Manipulation_Fichier@@AAE?AV?$CStringT@_WV?$StrTraitMFC@_WV?$ChTraitsCRT@_W@ATL@@@@@ATL@@V23@@Z$0
	DD	01H
	DD	FLAT:__unwindfunclet$?Extraction_Extension@Manipulation_Fichier@@AAE?AV?$CStringT@_WV?$StrTraitMFC@_WV?$ChTraitsCRT@_W@ATL@@@@@ATL@@V23@@Z$2
__ehfuncinfo$?Extraction_Extension@Manipulation_Fichier@@AAE?AV?$CStringT@_WV?$StrTraitMFC@_WV?$ChTraitsCRT@_W@ATL@@@@@ATL@@V23@@Z DQ 00000000319930522r ; 6.57797e-314
	DD	FLAT:__unwindtable$?Extraction_Extension@Manipulation_Fichier@@AAE?AV?$CStringT@_WV?$StrTraitMFC@_WV?$ChTraitsCRT@_W@ATL@@@@@ATL@@V23@@Z
	DQ	00000000000000000r		; 0
	DQ	00000000000000000r		; 0
	DQ	00000000100000000r		; 2.122e-314
xdata$x	ENDS
;	COMDAT xdata$x
xdata$x	SEGMENT
__unwindtable$??0_bstr_t@@QAE@PBD@Z DD 0ffffffffH
	DD	FLAT:__unwindfunclet$??0_bstr_t@@QAE@PBD@Z$0
__ehfuncinfo$??0_bstr_t@@QAE@PBD@Z DQ 00000000119930522r ; 2.33398e-314
	DD	FLAT:__unwindtable$??0_bstr_t@@QAE@PBD@Z
	DQ	00000000000000000r		; 0
	DQ	00000000000000000r		; 0
	DQ	00000000100000000r		; 2.122e-314
xdata$x	ENDS
;	COMDAT xdata$x
xdata$x	SEGMENT
__unwindtable$??0_bstr_t@@QAE@PB_W@Z DD 0ffffffffH
	DD	FLAT:__unwindfunclet$??0_bstr_t@@QAE@PB_W@Z$0
__ehfuncinfo$??0_bstr_t@@QAE@PB_W@Z DQ 00000000119930522r ; 2.33398e-314
	DD	FLAT:__unwindtable$??0_bstr_t@@QAE@PB_W@Z
	DQ	00000000000000000r		; 0
	DQ	00000000000000000r		; 0
	DQ	00000000100000000r		; 2.122e-314
xdata$x	ENDS
;	COMDAT xdata$x
xdata$x	SEGMENT
__unwindtable$??Y_bstr_t@@QAEAAV0@ABV0@@Z DD 0ffffffffH
	DD	FLAT:__unwindfunclet$??Y_bstr_t@@QAEAAV0@ABV0@@Z$0
__ehfuncinfo$??Y_bstr_t@@QAEAAV0@ABV0@@Z DQ 00000000119930522r ; 2.33398e-314
	DD	FLAT:__unwindtable$??Y_bstr_t@@QAEAAV0@ABV0@@Z
	DQ	00000000000000000r		; 0
	DQ	00000000000000000r		; 0
	DQ	00000000100000000r		; 2.122e-314
xdata$x	ENDS
;	COMDAT xdata$x
xdata$x	SEGMENT
__unwindtable$??H@YA?AV_bstr_t@@PB_WABV0@@Z DD 0ffffffffH
	DD	FLAT:__unwindfunclet$??H@YA?AV_bstr_t@@PB_WABV0@@Z$0
	DD	00H
	DD	FLAT:__unwindfunclet$??H@YA?AV_bstr_t@@PB_WABV0@@Z$1
__ehfuncinfo$??H@YA?AV_bstr_t@@PB_WABV0@@Z DQ 00000000219930522r ; 4.45598e-314
	DD	FLAT:__unwindtable$??H@YA?AV_bstr_t@@PB_WABV0@@Z
	DQ	00000000000000000r		; 0
	DQ	00000000000000000r		; 0
	DQ	00000000100000000r		; 2.122e-314
xdata$x	ENDS
;	COMDAT xdata$x
xdata$x	SEGMENT
__unwindtable$??HATL@@YA?AV?$CStringT@_WV?$StrTraitMFC@_WV?$ChTraitsCRT@_W@ATL@@@@@0@PB_WABV10@@Z DD 0ffffffffH
	DD	FLAT:__unwindfunclet$??HATL@@YA?AV?$CStringT@_WV?$StrTraitMFC@_WV?$ChTraitsCRT@_W@ATL@@@@@0@PB_WABV10@@Z$0
__ehfuncinfo$??HATL@@YA?AV?$CStringT@_WV?$StrTraitMFC@_WV?$ChTraitsCRT@_W@ATL@@@@@0@PB_WABV10@@Z DQ 00000000119930522r ; 2.33398e-314
	DD	FLAT:__unwindtable$??HATL@@YA?AV?$CStringT@_WV?$StrTraitMFC@_WV?$ChTraitsCRT@_W@ATL@@@@@0@PB_WABV10@@Z
	DQ	00000000000000000r		; 0
	DQ	00000000000000000r		; 0
	DQ	00000000100000000r		; 2.122e-314
END
