; Listing generated by Microsoft (R) Optimizing Compiler Version 19.23.28106.4 

	TITLE	i:\projets\aes\aes\aes\mybutton.cpp
	.686P
	.XMM
	include listing.inc
	.model	flat

INCLUDELIB OLDNAMES

PUBLIC	??_R2CMyButton@@8				; CMyButton::`RTTI Base Class Array'
PUBLIC	??_R1A@?0A@EA@CMyButton@@8			; CMyButton::`RTTI Base Class Descriptor at (0,-1,0,64)'
PUBLIC	??_R3CMyButton@@8				; CMyButton::`RTTI Class Hierarchy Descriptor'
PUBLIC	??_R0?AVCMyButton@@@8				; CMyButton `RTTI Type Descriptor'
PUBLIC	??_R4CMyButton@@6B@				; CMyButton::`RTTI Complete Object Locator'
PUBLIC	??_7CMyButton@@6B@				; CMyButton::`vftable'
EXTRN	__imp__DrawStateW@40:PROC
EXTRN	?SetBkMode@CDC@@QAEHH@Z:PROC			; CDC::SetBkMode
EXTRN	__imp__GetTextExtentPoint32W@16:PROC
EXTRN	__imp__InflateRect@12:PROC
;	COMDAT ??_7CMyButton@@6B@
CONST	SEGMENT
??_7CMyButton@@6B@ DD FLAT:??_R4CMyButton@@6B@		; CMyButton::`vftable'
	DD	FLAT:?GetRuntimeClass@CButton@@UBEPAUCRuntimeClass@@XZ
	DD	FLAT:??_ECMyButton@@UAEPAXI@Z
	DD	FLAT:?Serialize@CObject@@UAEXAAVCArchive@@@Z
	DD	FLAT:?OnCmdMsg@CCmdTarget@@UAEHIHPAXPAUAFX_CMDHANDLERINFO@@@Z
	DD	FLAT:?OnFinalRelease@CWnd@@UAEXXZ
	DD	FLAT:?IsInvokeAllowed@CCmdTarget@@UAEHJ@Z
	DD	FLAT:?GetDispatchIID@CCmdTarget@@UAEHPAU_GUID@@@Z
	DD	FLAT:?GetTypeInfoCount@CCmdTarget@@UAEIXZ
	DD	FLAT:?GetTypeLibCache@CCmdTarget@@UAEPAVCTypeLibCache@@XZ
	DD	FLAT:?GetTypeLib@CCmdTarget@@UAEJKPAPAUITypeLib@@@Z
	DD	FLAT:?GetMessageMap@CWnd@@MBEPBUAFX_MSGMAP@@XZ
	DD	FLAT:?GetCommandMap@CCmdTarget@@MBEPBUAFX_OLECMDMAP@@XZ
	DD	FLAT:?GetDispatchMap@CCmdTarget@@MBEPBUAFX_DISPMAP@@XZ
	DD	FLAT:?GetConnectionMap@CCmdTarget@@MBEPBUAFX_CONNECTIONMAP@@XZ
	DD	FLAT:?GetInterfaceMap@CWnd@@MBEPBUAFX_INTERFACEMAP@@XZ
	DD	FLAT:?GetEventSinkMap@CCmdTarget@@MBEPBUAFX_EVENTSINKMAP@@XZ
	DD	FLAT:?OnCreateAggregates@CCmdTarget@@UAEHXZ
	DD	FLAT:?GetInterfaceHook@CCmdTarget@@UAEPAUIUnknown@@PBX@Z
	DD	FLAT:?GetExtraConnectionPoints@CCmdTarget@@MAEHPAVCPtrArray@@@Z
	DD	FLAT:?GetConnectionHook@CCmdTarget@@MAEPAUIConnectionPoint@@ABU_GUID@@@Z
	DD	FLAT:?PreSubclassWindow@CMyButton@@EAEXXZ
	DD	FLAT:?Create@CWnd@@UAEHPB_W0KABUtagRECT@@PAV1@IPAUCCreateContext@@@Z
	DD	FLAT:?CreateEx@CWnd@@UAEHKPB_W0KABUtagRECT@@PAV1@IPAX@Z
	DD	FLAT:?CreateEx@CWnd@@UAEHKPB_W0KHHHHPAUHWND__@@PAUHMENU__@@PAX@Z
	DD	FLAT:?DestroyWindow@CWnd@@UAEHXZ
	DD	FLAT:?PreCreateWindow@CWnd@@UAEHAAUtagCREATESTRUCTW@@@Z
	DD	FLAT:?CalcWindowRect@CWnd@@UAEXPAUtagRECT@@I@Z
	DD	FLAT:?GetMenu@CWnd@@UBEPAVCMenu@@XZ
	DD	FLAT:?SetMenu@CWnd@@UAEHPAVCMenu@@@Z
	DD	FLAT:?OnToolHitTest@CWnd@@UBEHVCPoint@@PAUtagTOOLINFOW@@@Z
	DD	FLAT:?GetScrollBarCtrl@CWnd@@UBEPAVCScrollBar@@H@Z
	DD	FLAT:?WinHelpW@CWnd@@UAEXKI@Z
	DD	FLAT:?HtmlHelpW@CWnd@@UAEXKI@Z
	DD	FLAT:?WinHelpInternal@CWnd@@UAEXKI@Z
	DD	FLAT:?ContinueModal@CWnd@@UAEHXZ
	DD	FLAT:?EndModalLoop@CWnd@@UAEXH@Z
	DD	FLAT:?OnDrawIconicThumbnailOrLivePreview@CWnd@@UAEXAAVCDC@@VCRect@@VCSize@@HAAH@Z
	DD	FLAT:?EnsureStdObj@CWnd@@UAEJXZ
	DD	FLAT:?get_accParent@CWnd@@UAEJPAPAUIDispatch@@@Z
	DD	FLAT:?get_accChildCount@CWnd@@UAEJPAJ@Z
	DD	FLAT:?get_accChild@CWnd@@UAEJUtagVARIANT@@PAPAUIDispatch@@@Z
	DD	FLAT:?get_accName@CWnd@@UAEJUtagVARIANT@@PAPA_W@Z
	DD	FLAT:?get_accValue@CWnd@@UAEJUtagVARIANT@@PAPA_W@Z
	DD	FLAT:?get_accDescription@CWnd@@UAEJUtagVARIANT@@PAPA_W@Z
	DD	FLAT:?get_accRole@CWnd@@UAEJUtagVARIANT@@PAU2@@Z
	DD	FLAT:?get_accState@CWnd@@UAEJUtagVARIANT@@PAU2@@Z
	DD	FLAT:?get_accHelp@CWnd@@UAEJUtagVARIANT@@PAPA_W@Z
	DD	FLAT:?get_accHelpTopic@CWnd@@UAEJPAPA_WUtagVARIANT@@PAJ@Z
	DD	FLAT:?get_accKeyboardShortcut@CWnd@@UAEJUtagVARIANT@@PAPA_W@Z
	DD	FLAT:?get_accFocus@CWnd@@UAEJPAUtagVARIANT@@@Z
	DD	FLAT:?get_accSelection@CWnd@@UAEJPAUtagVARIANT@@@Z
	DD	FLAT:?get_accDefaultAction@CWnd@@UAEJUtagVARIANT@@PAPA_W@Z
	DD	FLAT:?accSelect@CWnd@@UAEJJUtagVARIANT@@@Z
	DD	FLAT:?accLocation@CWnd@@UAEJPAJ000UtagVARIANT@@@Z
	DD	FLAT:?accNavigate@CWnd@@UAEJJUtagVARIANT@@PAU2@@Z
	DD	FLAT:?accHitTest@CWnd@@UAEJJJPAUtagVARIANT@@@Z
	DD	FLAT:?accDoDefaultAction@CWnd@@UAEJUtagVARIANT@@@Z
	DD	FLAT:?put_accName@CWnd@@UAEJUtagVARIANT@@PA_W@Z
	DD	FLAT:?put_accValue@CWnd@@UAEJUtagVARIANT@@PA_W@Z
	DD	FLAT:?SetProxy@CWnd@@UAEJPAUIAccessibleProxy@@@Z
	DD	FLAT:?CreateAccessibleProxy@CWnd@@UAEJIJPAJ@Z
	DD	FLAT:?OnCommand@CWnd@@MAEHIJ@Z
	DD	FLAT:?OnNotify@CWnd@@MAEHIJPAJ@Z
	DD	FLAT:?GetSuperWndProcAddr@CWnd@@MAEPAP6GJPAUHWND__@@IIJ@ZXZ
	DD	FLAT:?DoDataExchange@CWnd@@MAEXPAVCDataExchange@@@Z
	DD	FLAT:?BeginModalState@CWnd@@UAEXXZ
	DD	FLAT:?EndModalState@CWnd@@UAEXXZ
	DD	FLAT:?PreTranslateMessage@CWnd@@UAEHPAUtagMSG@@@Z
	DD	FLAT:?OnAmbientProperty@CWnd@@UAEHPAVCOleControlSite@@JPAUtagVARIANT@@@Z
	DD	FLAT:?WindowProc@CWnd@@MAEJIIJ@Z
	DD	FLAT:?OnWndMsg@CWnd@@MAEHIIJPAJ@Z
	DD	FLAT:?DefWindowProcW@CWnd@@MAEJIIJ@Z
	DD	FLAT:?PostNcDestroy@CWnd@@MAEXXZ
	DD	FLAT:?OnChildNotify@CButton@@MAEHIIJPAJ@Z
	DD	FLAT:?OnTouchInputs@CWnd@@MAEHIPAUtagTOUCHINPUT@@@Z
	DD	FLAT:?OnTouchInput@CWnd@@MAEHVCPoint@@HHPAUtagTOUCHINPUT@@@Z
	DD	FLAT:?GetGestureStatus@CWnd@@MAEKVCPoint@@@Z
	DD	FLAT:?OnGestureZoom@CWnd@@MAEHVCPoint@@J@Z
	DD	FLAT:?OnGesturePan@CWnd@@MAEHVCPoint@@0@Z
	DD	FLAT:?OnGestureRotate@CWnd@@MAEHVCPoint@@N@Z
	DD	FLAT:?OnGestureTwoFingerTap@CWnd@@MAEHVCPoint@@@Z
	DD	FLAT:?OnGesturePressAndTap@CWnd@@MAEHVCPoint@@J@Z
	DD	FLAT:?ResizeDynamicLayout@CWnd@@MAEXXZ
	DD	FLAT:?CheckAutoCenter@CWnd@@UAEHXZ
	DD	FLAT:?IsFrameWnd@CWnd@@UBEHXZ
	DD	FLAT:?CreateControlContainer@CWnd@@MAEHPAPAVCOleControlContainer@@@Z
	DD	FLAT:?CreateControlSite@CWnd@@MAEHPAVCOleControlContainer@@PAPAVCOleControlSite@@IABU_GUID@@@Z
	DD	FLAT:?SetOccDialogInfo@CWnd@@MAEHPAU_AFX_OCC_DIALOG_INFO@@@Z
	DD	FLAT:?GetOccDialogInfo@CWnd@@MAEPAU_AFX_OCC_DIALOG_INFO@@XZ
	DD	FLAT:?Create@CButton@@UAEHPB_WKABUtagRECT@@PAVCWnd@@I@Z
	DD	FLAT:?DrawItem@CMyButton@@UAEXPAUtagDRAWITEMSTRUCT@@@Z
CONST	ENDS
;	COMDAT ??_R4CMyButton@@6B@
rdata$r	SEGMENT
??_R4CMyButton@@6B@ DD 00H				; CMyButton::`RTTI Complete Object Locator'
	DD	00H
	DD	00H
	DD	FLAT:??_R0?AVCMyButton@@@8
	DD	FLAT:??_R3CMyButton@@8
rdata$r	ENDS
;	COMDAT ??_R0?AVCMyButton@@@8
data$r	SEGMENT
??_R0?AVCMyButton@@@8 DD FLAT:??_7type_info@@6B@	; CMyButton `RTTI Type Descriptor'
	DD	00H
	DB	'.?AVCMyButton@@', 00H
data$r	ENDS
;	COMDAT ??_R3CMyButton@@8
rdata$r	SEGMENT
??_R3CMyButton@@8 DD 00H				; CMyButton::`RTTI Class Hierarchy Descriptor'
	DD	00H
	DD	05H
	DD	FLAT:??_R2CMyButton@@8
rdata$r	ENDS
;	COMDAT ??_R1A@?0A@EA@CMyButton@@8
rdata$r	SEGMENT
??_R1A@?0A@EA@CMyButton@@8 DD FLAT:??_R0?AVCMyButton@@@8 ; CMyButton::`RTTI Base Class Descriptor at (0,-1,0,64)'
	DD	04H
	DD	00H
	DD	0ffffffffH
	DD	00H
	DD	040H
	DD	FLAT:??_R3CMyButton@@8
rdata$r	ENDS
;	COMDAT ??_R2CMyButton@@8
rdata$r	SEGMENT
??_R2CMyButton@@8 DD FLAT:??_R1A@?0A@EA@CMyButton@@8	; CMyButton::`RTTI Base Class Array'
	DD	FLAT:??_R1A@?0A@EA@CButton@@8
	DD	FLAT:??_R1A@?0A@EA@CWnd@@8
	DD	FLAT:??_R1A@?0A@EA@CCmdTarget@@8
	DD	FLAT:??_R1A@?0A@EA@CObject@@8
PUBLIC	??0CRect@@QAE@ABUtagRECT@@@Z			; CRect::CRect
PUBLIC	?DeflateRect@CRect@@QAEXUtagSIZE@@@Z		; CRect::DeflateRect
PUBLIC	??0CSize@@QAE@HH@Z				; CSize::CSize
PUBLIC	?IsEmpty@?$CSimpleStringT@_W$0A@@ATL@@QBE_NXZ	; ATL::CSimpleStringT<wchar_t,0>::IsEmpty
PUBLIC	?GetTextExtent@CDC@@QBE?AVCSize@@ABV?$CStringT@_WV?$StrTraitMFC@_WV?$ChTraitsCRT@_W@ATL@@@@@ATL@@@Z ; CDC::GetTextExtent
PUBLIC	??0CSize@@QAE@UtagSIZE@@@Z			; CSize::CSize
PUBLIC	??0CPoint@@QAE@HH@Z				; CPoint::CPoint
PUBLIC	?CenterPoint@CRect@@QBE?AVCPoint@@XZ		; CRect::CenterPoint
PUBLIC	?Offset@CPoint@@QAEXHH@Z			; CPoint::Offset
PUBLIC	?DrawState@CDC@@QAEHVCPoint@@VCSize@@PB_WIHHPAUHBRUSH__@@@Z ; CDC::DrawState
PUBLIC	?DrawState@@YGHPAUHDC__@@PAUHBRUSH__@@P6GH0JIHH@ZJIHHHHI@Z ; DrawState
PUBLIC	?TextOutW@CDC@@QAEHHHABV?$CStringT@_WV?$StrTraitMFC@_WV?$ChTraitsCRT@_W@ATL@@@@@ATL@@@Z ; CDC::TextOutW
PUBLIC	?DrawItem@CMyButton@@UAEXPAUtagDRAWITEMSTRUCT@@@Z ; CMyButton::DrawItem
PUBLIC	?PreSubclassWindow@CMyButton@@EAEXXZ		; CMyButton::PreSubclassWindow
PUBLIC	??_GCMyButton@@UAEPAXI@Z			; CMyButton::`scalar deleting destructor'
PUBLIC	??0CMyButton@@QAE@XZ				; CMyButton::CMyButton
PUBLIC	?MySetColor@CMyButton@@QAEXK@Z			; CMyButton::MySetColor
PUBLIC	??1CMyButton@@UAE@XZ				; CMyButton::~CMyButton
EXTRN	??_ECMyButton@@UAEPAXI@Z:PROC			; CMyButton::`vector deleting destructor'
;	COMDAT xdata$x
xdata$x	SEGMENT
__unwindtable$?DrawItem@CMyButton@@UAEXPAUtagDRAWITEMSTRUCT@@@Z DD 0ffffffffH
	DD	FLAT:__unwindfunclet$?DrawItem@CMyButton@@UAEXPAUtagDRAWITEMSTRUCT@@@Z$0
__ehfuncinfo$?DrawItem@CMyButton@@UAEXPAUtagDRAWITEMSTRUCT@@@Z DD 019930522H
	DD	01H
	DD	FLAT:__unwindtable$?DrawItem@CMyButton@@UAEXPAUtagDRAWITEMSTRUCT@@@Z
	DD	2 DUP(00H)
	DD	2 DUP(00H)
	DD	00H
	DD	01H
; Function compile flags: /Ogtp
; File I:\Projets\AES\AES\AES\MyButton.cpp
;	COMDAT ??1CMyButton@@UAE@XZ
_TEXT	SEGMENT
??1CMyButton@@UAE@XZ PROC				; CMyButton::~CMyButton, COMDAT
; _this$ = ecx

; 12   : {

	mov	DWORD PTR [ecx], OFFSET ??_7CMyButton@@6B@

; 13   : }

	jmp	??1CButton@@UAE@XZ			; CButton::~CButton
??1CMyButton@@UAE@XZ ENDP				; CMyButton::~CMyButton
_TEXT	ENDS
; Function compile flags: /Ogtp
; File I:\Projets\AES\AES\AES\MyButton.cpp
;	COMDAT ?MySetColor@CMyButton@@QAEXK@Z
_TEXT	SEGMENT
_valeur$ = 8						; size = 4
?MySetColor@CMyButton@@QAEXK@Z PROC			; CMyButton::MySetColor, COMDAT
; _this$ = ecx

; 16   : {

	push	ebp
	mov	ebp, esp

; 17   : 
; 18   : 	m_color = valeur;

	mov	eax, DWORD PTR _valeur$[ebp]
	mov	DWORD PTR [ecx+128], eax

; 19   : }

	pop	ebp
	ret	4
?MySetColor@CMyButton@@QAEXK@Z ENDP			; CMyButton::MySetColor
_TEXT	ENDS
; Function compile flags: /Ogtp
; File I:\Projets\AES\AES\AES\MyButton.cpp
; File C:\Program Files (x86)\Microsoft Visual Studio\2019\Enterprise\VC\Tools\MSVC\14.23.28105\atlmfc\include\afxwin2.inl
; File I:\Projets\AES\AES\AES\MyButton.cpp
;	COMDAT ??0CMyButton@@QAE@XZ
_TEXT	SEGMENT
_this$ = -4						; size = 4
??0CMyButton@@QAE@XZ PROC				; CMyButton::CMyButton, COMDAT
; _this$ = ecx

; 6    : {

	push	ebp
	mov	ebp, esp
	push	ecx
	push	esi
	mov	esi, ecx
	mov	DWORD PTR _this$[ebp], esi
; File C:\Program Files (x86)\Microsoft Visual Studio\2019\Enterprise\VC\Tools\MSVC\14.23.28105\atlmfc\include\afxwin2.inl

; 622  : 	{ }

	call	??0CWnd@@QAE@XZ				; CWnd::CWnd
; File I:\Projets\AES\AES\AES\MyButton.cpp

; 6    : {

	mov	DWORD PTR [esi], OFFSET ??_7CMyButton@@6B@

; 7    : 
; 8    : }

	mov	eax, esi
	mov	DWORD PTR [esi+128], 0
	mov	DWORD PTR [esi+132], 0
	mov	BYTE PTR [esi+136], 0
	pop	esi
	mov	esp, ebp
	pop	ebp
	ret	0
??0CMyButton@@QAE@XZ ENDP				; CMyButton::CMyButton
_TEXT	ENDS
; Function compile flags: /Ogtp
; File I:\Projets\AES\AES\AES\MyButton.cpp
; File C:\Program Files (x86)\Microsoft Visual Studio\2019\Enterprise\VC\Tools\MSVC\14.23.28105\atlmfc\include\afx.inl
;	COMDAT ??_GCMyButton@@UAEPAXI@Z
_TEXT	SEGMENT
___flags$ = 8						; size = 4
??_GCMyButton@@UAEPAXI@Z PROC				; CMyButton::`scalar deleting destructor', COMDAT
; _this$ = ecx
	push	ebp
	mov	ebp, esp
; File I:\Projets\AES\AES\AES\MyButton.cpp

; 12   : {

	push	esi
	mov	esi, ecx
	mov	DWORD PTR [esi], OFFSET ??_7CMyButton@@6B@

; 13   : }

	call	??1CButton@@UAE@XZ			; CButton::~CButton
	mov	eax, DWORD PTR ___flags$[ebp]
	test	al, 1
	je	SHORT $LN12@scalar
	test	al, 4
	jne	SHORT $LN3@scalar
; File C:\Program Files (x86)\Microsoft Visual Studio\2019\Enterprise\VC\Tools\MSVC\14.23.28105\atlmfc\include\afx.inl

; 102  : 	{ ::operator delete(p); }

	push	esi
	call	??3@YAXPAX@Z				; operator delete
	add	esp, 4
	mov	eax, esi
	pop	esi
	pop	ebp
	ret	4
$LN3@scalar:
	push	144					; 00000090H
	push	esi
	call	?__global_delete@@YAXPAXI@Z		; __global_delete
	add	esp, 8
$LN12@scalar:
	mov	eax, esi
	pop	esi
	pop	ebp
	ret	4
??_GCMyButton@@UAEPAXI@Z ENDP				; CMyButton::`scalar deleting destructor'
_TEXT	ENDS
; Function compile flags: /Ogtp
; File I:\Projets\AES\AES\AES\MyButton.cpp
;	COMDAT ?PreSubclassWindow@CMyButton@@EAEXXZ
_TEXT	SEGMENT
?PreSubclassWindow@CMyButton@@EAEXXZ PROC		; CMyButton::PreSubclassWindow, COMDAT
; _this$ = ecx

; 22   : {

	push	esi
	mov	esi, ecx

; 23   : 	CButton::PreSubclassWindow();

	call	?PreSubclassWindow@CWnd@@UAEXXZ		; CWnd::PreSubclassWindow

; 24   : 
; 25   : 	ModifyStyle(0, BS_OWNERDRAW);	// make the button owner drawn

	push	0
	push	11					; 0000000bH
	push	0
	mov	ecx, esi
	call	?ModifyStyle@CWnd@@QAEHKKI@Z		; CWnd::ModifyStyle
	pop	esi

; 26   : }

	ret	0
?PreSubclassWindow@CMyButton@@EAEXXZ ENDP		; CMyButton::PreSubclassWindow
_TEXT	ENDS
; Function compile flags: /Ogtp
; File I:\Projets\AES\AES\AES\MyButton.cpp
; File C:\Program Files (x86)\Microsoft Visual Studio\2019\Enterprise\VC\Tools\MSVC\14.23.28105\atlmfc\include\atltypes.h
; File I:\Projets\AES\AES\AES\MyButton.cpp
; File C:\Program Files (x86)\Microsoft Visual Studio\2019\Enterprise\VC\Tools\MSVC\14.23.28105\atlmfc\include\afxstr.h
; File C:\Program Files (x86)\Microsoft Visual Studio\2019\Enterprise\VC\Tools\MSVC\14.23.28105\atlmfc\include\atlsimpstr.h
; File I:\Projets\AES\AES\AES\MyButton.cpp
; File C:\Program Files (x86)\Microsoft Visual Studio\2019\Enterprise\VC\Tools\MSVC\14.23.28105\atlmfc\include\afxwin1.inl
; File I:\Projets\AES\AES\AES\MyButton.cpp
; File C:\Program Files (x86)\Microsoft Visual Studio\2019\Enterprise\VC\Tools\MSVC\14.23.28105\atlmfc\include\afxwin1.inl
; File I:\Projets\AES\AES\AES\MyButton.cpp
; File C:\Program Files (x86)\Microsoft Visual Studio\2019\Enterprise\VC\Tools\MSVC\14.23.28105\atlmfc\include\atltypes.h
; File I:\Projets\AES\AES\AES\MyButton.cpp
; File C:\Program Files (x86)\Microsoft Visual Studio\2019\Enterprise\VC\Tools\MSVC\14.23.28105\atlmfc\include\atlsimpstr.h
; File I:\Projets\AES\AES\AES\MyButton.cpp
; File C:\Program Files (x86)\Microsoft Visual Studio\2019\Enterprise\VC\Tools\MSVC\14.23.28105\atlmfc\include\afxwin1.inl
; File C:\Program Files (x86)\Microsoft Visual Studio\2019\Enterprise\VC\Tools\MSVC\14.23.28105\atlmfc\include\atltypes.h
; File I:\Projets\AES\AES\AES\MyButton.cpp
; File C:\Program Files (x86)\Microsoft Visual Studio\2019\Enterprise\VC\Tools\MSVC\14.23.28105\atlmfc\include\atltypes.h
; File I:\Projets\AES\AES\AES\MyButton.cpp
; File C:\Program Files (x86)\Microsoft Visual Studio\2019\Enterprise\VC\Tools\MSVC\14.23.28105\atlmfc\include\atltypes.h
; File I:\Projets\AES\AES\AES\MyButton.cpp
; File C:\Program Files (x86)\Microsoft Visual Studio\2019\Enterprise\VC\Tools\MSVC\14.23.28105\atlmfc\include\atltypes.h
; File I:\Projets\AES\AES\AES\MyButton.cpp
; File C:\Program Files (x86)\Microsoft Visual Studio\2019\Enterprise\VC\Tools\MSVC\14.23.28105\atlmfc\include\afxv_w32.h
; File I:\Projets\AES\AES\AES\MyButton.cpp
; File C:\Program Files (x86)\Microsoft Visual Studio\2019\Enterprise\VC\Tools\MSVC\14.23.28105\atlmfc\include\atlsimpstr.h
; File C:\Program Files (x86)\Microsoft Visual Studio\2019\Enterprise\VC\Tools\MSVC\14.23.28105\atlmfc\include\afxwin1.inl
; File I:\Projets\AES\AES\AES\MyButton.cpp
; File C:\Program Files (x86)\Microsoft Visual Studio\2019\Enterprise\VC\Tools\MSVC\14.23.28105\atlmfc\include\atlsimpstr.h
; File I:\Projets\AES\AES\AES\MyButton.cpp
; File C:\Program Files (x86)\Microsoft Visual Studio\2019\Enterprise\VC\Tools\MSVC\14.23.28105\atlmfc\include\atlsimpstr.h
; File I:\Projets\AES\AES\AES\MyButton.cpp
; File C:\Program Files (x86)\Microsoft Visual Studio\2019\Enterprise\VC\Tools\MSVC\14.23.28105\atlmfc\include\atlsimpstr.h
; File I:\Projets\AES\AES\AES\MyButton.cpp
;	COMDAT ?DrawItem@CMyButton@@UAEXPAUtagDRAWITEMSTRUCT@@@Z
_TEXT	SEGMENT
_nMode$1$ = -60						; size = 4
_state$1$ = -56						; size = 4
tv679 = -52						; size = 4
_this$GSCopy$1$ = -52					; size = 4
tv684 = -48						; size = 4
tv681 = -48						; size = 4
_rect$ = -44						; size = 16
_size$13 = -28						; size = 8
_strText$ = -20						; size = 4
__$ArrayPad$ = -16					; size = 4
__$EHRec$ = -12						; size = 12
_lpDrawItemStruct$ = 8					; size = 4
?DrawItem@CMyButton@@UAEXPAUtagDRAWITEMSTRUCT@@@Z PROC	; CMyButton::DrawItem, COMDAT
; _this$ = ecx

; 35   : {

	push	ebp
	mov	ebp, esp
	push	-1
	push	__ehhandler$?DrawItem@CMyButton@@UAEXPAUtagDRAWITEMSTRUCT@@@Z
	mov	eax, DWORD PTR fs:0
	push	eax
	sub	esp, 48					; 00000030H
	mov	eax, DWORD PTR ___security_cookie
	xor	eax, ebp
	mov	DWORD PTR __$ArrayPad$[ebp], eax
	push	ebx
	push	esi
	push	edi
	push	eax
	lea	eax, DWORD PTR __$EHRec$[ebp]
	mov	DWORD PTR fs:0, eax
	mov	edi, ecx
	mov	DWORD PTR _this$GSCopy$1$[ebp], edi
	mov	esi, DWORD PTR _lpDrawItemStruct$[ebp]

; 36   : 
; 37   : 	// TODO:  Ajoutez votre code pour dessiner l'élément spécifié
; 38   : 	CDC* pDC =   CDC::FromHandle(lpDrawItemStruct->hDC);

	push	DWORD PTR [esi+24]
	call	?FromHandle@CDC@@SGPAV1@PAUHDC__@@@Z	; CDC::FromHandle

; 39   : 	CRect rect = lpDrawItemStruct->rcItem;

	lea	edx, DWORD PTR [esi+28]
	mov	ebx, eax
; File C:\Program Files (x86)\Microsoft Visual Studio\2019\Enterprise\VC\Tools\MSVC\14.23.28105\atlmfc\include\atltypes.h

; 548  : 	::CopyRect(this, &srcRect);

	push	edx
	lea	eax, DWORD PTR _rect$[ebp]
	push	eax
	call	DWORD PTR __imp__CopyRect@8
; File I:\Projets\AES\AES\AES\MyButton.cpp

; 40   : 	UINT state = lpDrawItemStruct->itemState;

	mov	eax, DWORD PTR [esi+16]
	mov	DWORD PTR _state$1$[ebp], eax
	mov	DWORD PTR _strText$[ebp], 0
; File C:\Program Files (x86)\Microsoft Visual Studio\2019\Enterprise\VC\Tools\MSVC\14.23.28105\atlmfc\include\afxstr.h

; 52   : 		return( AfxGetStringManager() );

	call	?AfxGetStringManager@@YGPAUIAtlStringMgr@ATL@@XZ ; AfxGetStringManager
	mov	ecx, eax
; File C:\Program Files (x86)\Microsoft Visual Studio\2019\Enterprise\VC\Tools\MSVC\14.23.28105\atlmfc\include\atlsimpstr.h

; 205  : 		ATLENSURE( pStringMgr != NULL );

	test	ecx, ecx
	je	$LN97@DrawItem

; 206  : 		CStringData* pData = pStringMgr->GetNilString();

	mov	eax, DWORD PTR [ecx]
	call	DWORD PTR [eax+12]

; 59   : 		return (this+1);

	add	eax, 16					; 00000010H

; 780  : 		m_pszData = static_cast< PXSTR >( pData->data() );

	mov	DWORD PTR _strText$[ebp], eax
; File I:\Projets\AES\AES\AES\MyButton.cpp

; 43   : 	GetWindowText(strText);

	lea	eax, DWORD PTR _strText$[ebp]
	mov	DWORD PTR __$EHRec$[ebp+8], 0
	push	eax
	mov	ecx, edi
	call	?GetWindowTextW@CWnd@@QBEXAAV?$CStringT@_WV?$StrTraitMFC@_WV?$ChTraitsCRT@_W@ATL@@@@@ATL@@@Z ; CWnd::GetWindowTextW

; 44   : 
; 45   : 	// draw the control edges (DrawFrameControl is handy!)
; 46   : 	if (state & ODS_SELECTED)

	mov	eax, DWORD PTR _state$1$[ebp]
	lea	ecx, DWORD PTR _rect$[ebp]
	and	eax, 1
	mov	DWORD PTR tv684[ebp], eax
	mov	eax, DWORD PTR [ebx+4]
	je	SHORT $LN2@DrawItem
; File C:\Program Files (x86)\Microsoft Visual Studio\2019\Enterprise\VC\Tools\MSVC\14.23.28105\atlmfc\include\afxwin1.inl

; 512  : 	{ ASSERT(m_hDC != NULL); return ::DrawFrameControl(m_hDC, lpRect, nType, nState); }

	push	528					; 00000210H
; File I:\Projets\AES\AES\AES\MyButton.cpp

; 47   : 		pDC->DrawFrameControl(rect, DFC_BUTTON, DFCS_BUTTONPUSH | DFCS_PUSHED);

	jmp	SHORT $LN95@DrawItem
$LN2@DrawItem:
; File C:\Program Files (x86)\Microsoft Visual Studio\2019\Enterprise\VC\Tools\MSVC\14.23.28105\atlmfc\include\afxwin1.inl

; 512  : 	{ ASSERT(m_hDC != NULL); return ::DrawFrameControl(m_hDC, lpRect, nType, nState); }

	push	16					; 00000010H
$LN95@DrawItem:
; File I:\Projets\AES\AES\AES\MyButton.cpp

; 52   : 	rect.DeflateRect(CSize(GetSystemMetrics(SM_CXEDGE), GetSystemMetrics(SM_CYEDGE)));

	push	4
	push	ecx
	push	eax
	call	DWORD PTR __imp__DrawFrameControl@16
	mov	esi, DWORD PTR __imp__GetSystemMetrics@4
	push	46					; 0000002eH
	call	esi
	push	45					; 0000002dH
	mov	edi, eax
	call	esi
; File C:\Program Files (x86)\Microsoft Visual Studio\2019\Enterprise\VC\Tools\MSVC\14.23.28105\atlmfc\include\atltypes.h

; 703  : 	::InflateRect(this, -size.cx, -size.cy);

	neg	edi
	neg	eax
	push	edi
	push	eax
	lea	eax, DWORD PTR _rect$[ebp]
	push	eax
	call	DWORD PTR __imp__InflateRect@12
; File I:\Projets\AES\AES\AES\MyButton.cpp

; 55   : 	if (m_bOverControl) pDC->FillSolidRect(rect, m_color); // yellow

	mov	edi, DWORD PTR _this$GSCopy$1$[ebp]
	cmp	BYTE PTR [edi+136], 0
	je	SHORT $LN4@DrawItem
	push	DWORD PTR [edi+128]
	lea	eax, DWORD PTR _rect$[ebp]
	mov	ecx, ebx
	push	eax
	call	?FillSolidRect@CDC@@QAEXPBUtagRECT@@K@Z	; CDC::FillSolidRect
$LN4@DrawItem:
; File C:\Program Files (x86)\Microsoft Visual Studio\2019\Enterprise\VC\Tools\MSVC\14.23.28105\atlmfc\include\atlsimpstr.h

; 519  : 		return( GetData()->nDataLength );

	mov	eax, DWORD PTR _strText$[ebp]
	mov	ecx, DWORD PTR [eax-12]

; 533  : 		return( GetLength() == 0 );

	test	ecx, ecx
; File I:\Projets\AES\AES\AES\MyButton.cpp

; 58   : 	if (!strText.IsEmpty())

	je	$LN5@DrawItem
; File C:\Program Files (x86)\Microsoft Visual Studio\2019\Enterprise\VC\Tools\MSVC\14.23.28105\atlmfc\include\afxwin1.inl

; 639  : 		VERIFY(::GetTextExtentPoint32(m_hAttribDC, str, (int)str.GetLength(), &size));

	lea	edx, DWORD PTR _size$13[ebp]
	push	edx
	push	ecx
	push	eax
	push	DWORD PTR [ebx+8]
	call	DWORD PTR __imp__GetTextExtentPoint32W@16
; File C:\Program Files (x86)\Microsoft Visual Studio\2019\Enterprise\VC\Tools\MSVC\14.23.28105\atlmfc\include\atltypes.h

; 611  : 	return CPoint((left+right)/2, (top+bottom)/2);

	mov	eax, DWORD PTR _rect$[ebp+4]
	add	eax, DWORD PTR _rect$[ebp+12]
	cdq
	sub	eax, edx
	mov	esi, eax
; File I:\Projets\AES\AES\AES\MyButton.cpp

; 61   : 		CPoint pt(rect.CenterPoint().x - Extent.cx / 2, rect.CenterPoint().y - Extent.cy / 2);

	mov	eax, DWORD PTR _size$13[ebp+4]
	cdq
	sub	eax, edx
; File C:\Program Files (x86)\Microsoft Visual Studio\2019\Enterprise\VC\Tools\MSVC\14.23.28105\atlmfc\include\atltypes.h

; 611  : 	return CPoint((left+right)/2, (top+bottom)/2);

	sar	esi, 1
; File I:\Projets\AES\AES\AES\MyButton.cpp

; 61   : 		CPoint pt(rect.CenterPoint().x - Extent.cx / 2, rect.CenterPoint().y - Extent.cy / 2);

	sar	eax, 1
	sub	esi, eax
; File C:\Program Files (x86)\Microsoft Visual Studio\2019\Enterprise\VC\Tools\MSVC\14.23.28105\atlmfc\include\atltypes.h

; 611  : 	return CPoint((left+right)/2, (top+bottom)/2);

	mov	eax, DWORD PTR _rect$[ebp+8]
	add	eax, DWORD PTR _rect$[ebp]
	cdq
	sub	eax, edx
	mov	ecx, eax
; File I:\Projets\AES\AES\AES\MyButton.cpp

; 61   : 		CPoint pt(rect.CenterPoint().x - Extent.cx / 2, rect.CenterPoint().y - Extent.cy / 2);

	mov	eax, DWORD PTR _size$13[ebp]
	cdq
	sub	eax, edx
; File C:\Program Files (x86)\Microsoft Visual Studio\2019\Enterprise\VC\Tools\MSVC\14.23.28105\atlmfc\include\atltypes.h

; 611  : 	return CPoint((left+right)/2, (top+bottom)/2);

	sar	ecx, 1
; File I:\Projets\AES\AES\AES\MyButton.cpp

; 61   : 		CPoint pt(rect.CenterPoint().x - Extent.cx / 2, rect.CenterPoint().y - Extent.cy / 2);

	sar	eax, 1
	sub	ecx, eax

; 62   : 
; 63   : 		if (state & ODS_SELECTED) pt.Offset(1, 1);
; 64   : 
; 65   : 		int nMode = pDC->SetBkMode(TRANSPARENT);

	mov	eax, DWORD PTR tv684[ebp]
	test	eax, eax
	push	1
	lea	edx, DWORD PTR [ecx+1]
	cmove	edx, ecx
	lea	ecx, DWORD PTR [esi+1]
	cmove	ecx, esi
	mov	DWORD PTR tv681[ebp], edx
	mov	DWORD PTR tv679[ebp], ecx
	mov	ecx, ebx
	call	?SetBkMode@CDC@@QAEHH@Z			; CDC::SetBkMode

; 66   : 
; 67   : 		if (state & ODS_DISABLED)

	test	BYTE PTR _state$1$[ebp], 4
	mov	DWORD PTR _nMode$1$[ebp], eax
	je	SHORT $LN7@DrawItem
; File C:\Program Files (x86)\Microsoft Visual Studio\2019\Enterprise\VC\Tools\MSVC\14.23.28105\atlmfc\include\afxv_w32.h

; 236  : 	{ return ::DrawStateW(hdc, hbr, lpOutputFunc, lData, wData, x, y, cx, cy,

	mov	edi, DWORD PTR tv679[ebp]
	mov	esi, DWORD PTR tv681[ebp]
	push	34					; 00000022H
	push	DWORD PTR _size$13[ebp+4]
	push	DWORD PTR _size$13[ebp]
	push	edi
	push	esi
	push	0
	push	DWORD PTR _strText$[ebp]
	push	0
	push	0
	push	DWORD PTR [ebx+4]
	call	DWORD PTR __imp__DrawStateW@40
; File I:\Projets\AES\AES\AES\MyButton.cpp

; 68   : 			pDC->DrawState(pt, Extent, strText, DSS_DISABLED, TRUE, 0, (HBRUSH)NULL);

	jmp	SHORT $LN8@DrawItem
$LN7@DrawItem:

; 69   : 		else
; 70   : 			pDC->SetTextColor(m_color);

	mov	eax, DWORD PTR [ebx]
	mov	ecx, ebx
	push	DWORD PTR [edi+128]
	call	DWORD PTR [eax+48]
	mov	esi, DWORD PTR tv681[ebp]
	mov	edi, DWORD PTR tv679[ebp]
$LN8@DrawItem:
; File C:\Program Files (x86)\Microsoft Visual Studio\2019\Enterprise\VC\Tools\MSVC\14.23.28105\atlmfc\include\atlsimpstr.h

; 519  : 		return( GetData()->nDataLength );

	mov	eax, DWORD PTR _strText$[ebp]
; File C:\Program Files (x86)\Microsoft Visual Studio\2019\Enterprise\VC\Tools\MSVC\14.23.28105\atlmfc\include\afxwin1.inl

; 574  : 	{ ASSERT(m_hDC != NULL); return TextOut(x, y, (LPCTSTR)str, (int)str.GetLength()); } // call virtual

	mov	ecx, ebx
	mov	edx, DWORD PTR [ebx]
	push	DWORD PTR [eax-12]
	push	eax
	push	edi
	push	esi
	call	DWORD PTR [edx+92]
; File I:\Projets\AES\AES\AES\MyButton.cpp

; 73   : 		pDC->SetBkMode(nMode);

	push	DWORD PTR _nMode$1$[ebp]
	mov	ecx, ebx
	call	?SetBkMode@CDC@@QAEHH@Z			; CDC::SetBkMode
	mov	eax, DWORD PTR _strText$[ebp]
$LN5@DrawItem:
; File C:\Program Files (x86)\Microsoft Visual Studio\2019\Enterprise\VC\Tools\MSVC\14.23.28105\atlmfc\include\atlsimpstr.h

; 800  : 		return( reinterpret_cast< CStringData* >( m_pszData )-1 );

	lea	edx, DWORD PTR [eax-16]
; File I:\Projets\AES\AES\AES\MyButton.cpp

; 76   : }

	mov	DWORD PTR __$EHRec$[ebp+8], -1
; File C:\Program Files (x86)\Microsoft Visual Studio\2019\Enterprise\VC\Tools\MSVC\14.23.28105\atlmfc\include\atlsimpstr.h

; 88   : 		if( _InterlockedDecrement( &nRefs ) <= 0 )

	or	eax, -1
	lock	 xadd	 DWORD PTR [edx+12], eax
	dec	eax
	test	eax, eax
	jg	SHORT $LN91@DrawItem

; 89   : 		{
; 90   : 			pStringMgr->Free( this );

	mov	ecx, DWORD PTR [edx]
	push	edx
	mov	eax, DWORD PTR [ecx]
	call	DWORD PTR [eax+4]
$LN91@DrawItem:
; File I:\Projets\AES\AES\AES\MyButton.cpp

; 76   : }

	mov	ecx, DWORD PTR __$EHRec$[ebp]
	mov	DWORD PTR fs:0, ecx
	pop	ecx
	pop	edi
	pop	esi
	pop	ebx
	mov	ecx, DWORD PTR __$ArrayPad$[ebp]
	xor	ecx, ebp
	call	@__security_check_cookie@4
	mov	esp, ebp
	pop	ebp
	ret	4
$LN97@DrawItem:
; File C:\Program Files (x86)\Microsoft Visual Studio\2019\Enterprise\VC\Tools\MSVC\14.23.28105\atlmfc\include\atlsimpstr.h

; 205  : 		ATLENSURE( pStringMgr != NULL );

	push	-2147467259				; 80004005H
	call	?AtlThrowImpl@ATL@@YGXJ@Z		; ATL::AtlThrowImpl
$LN94@DrawItem:
	int	3
_TEXT	ENDS
;	COMDAT text$x
text$x	SEGMENT
__unwindfunclet$?DrawItem@CMyButton@@UAEXPAUtagDRAWITEMSTRUCT@@@Z$0:
	lea	ecx, DWORD PTR _strText$[ebp]
	jmp	??1?$CStringT@_WV?$StrTraitMFC@_WV?$ChTraitsCRT@_W@ATL@@@@@ATL@@QAE@XZ ; ATL::CStringT<wchar_t,StrTraitMFC<wchar_t,ATL::ChTraitsCRT<wchar_t> > >::~CStringT<wchar_t,StrTraitMFC<wchar_t,ATL::ChTraitsCRT<wchar_t> > >
__ehhandler$?DrawItem@CMyButton@@UAEXPAUtagDRAWITEMSTRUCT@@@Z:
	mov	edx, DWORD PTR [esp+8]
	lea	eax, DWORD PTR [edx+12]
	mov	ecx, DWORD PTR [edx-64]
	xor	ecx, eax
	call	@__security_check_cookie@4
	mov	ecx, DWORD PTR [edx-4]
	xor	ecx, eax
	call	@__security_check_cookie@4
	mov	eax, OFFSET __ehfuncinfo$?DrawItem@CMyButton@@UAEXPAUtagDRAWITEMSTRUCT@@@Z
	jmp	___CxxFrameHandler3
text$x	ENDS
?DrawItem@CMyButton@@UAEXPAUtagDRAWITEMSTRUCT@@@Z ENDP	; CMyButton::DrawItem
; Function compile flags: /Ogtp
; File C:\Program Files (x86)\Microsoft Visual Studio\2019\Enterprise\VC\Tools\MSVC\14.23.28105\atlmfc\include\afxwin1.inl
; File C:\Program Files (x86)\Microsoft Visual Studio\2019\Enterprise\VC\Tools\MSVC\14.23.28105\atlmfc\include\atlsimpstr.h
; File C:\Program Files (x86)\Microsoft Visual Studio\2019\Enterprise\VC\Tools\MSVC\14.23.28105\atlmfc\include\afxwin1.inl
; File C:\Program Files (x86)\Microsoft Visual Studio\2019\Enterprise\VC\Tools\MSVC\14.23.28105\atlmfc\include\atlsimpstr.h
; File C:\Program Files (x86)\Microsoft Visual Studio\2019\Enterprise\VC\Tools\MSVC\14.23.28105\atlmfc\include\afxwin1.inl
;	COMDAT ?TextOutW@CDC@@QAEHHHABV?$CStringT@_WV?$StrTraitMFC@_WV?$ChTraitsCRT@_W@ATL@@@@@ATL@@@Z
_TEXT	SEGMENT
_x$ = 8							; size = 4
_y$ = 12						; size = 4
_str$ = 16						; size = 4
?TextOutW@CDC@@QAEHHHABV?$CStringT@_WV?$StrTraitMFC@_WV?$ChTraitsCRT@_W@ATL@@@@@ATL@@@Z PROC ; CDC::TextOutW, COMDAT
; _this$ = ecx

; 574  : 	{ ASSERT(m_hDC != NULL); return TextOut(x, y, (LPCTSTR)str, (int)str.GetLength()); } // call virtual

	push	ebp
	mov	ebp, esp
; File C:\Program Files (x86)\Microsoft Visual Studio\2019\Enterprise\VC\Tools\MSVC\14.23.28105\atlmfc\include\atlsimpstr.h

; 519  : 		return( GetData()->nDataLength );

	mov	eax, DWORD PTR _str$[ebp]
; File C:\Program Files (x86)\Microsoft Visual Studio\2019\Enterprise\VC\Tools\MSVC\14.23.28105\atlmfc\include\afxwin1.inl

; 574  : 	{ ASSERT(m_hDC != NULL); return TextOut(x, y, (LPCTSTR)str, (int)str.GetLength()); } // call virtual

	mov	edx, DWORD PTR [ecx]
; File C:\Program Files (x86)\Microsoft Visual Studio\2019\Enterprise\VC\Tools\MSVC\14.23.28105\atlmfc\include\atlsimpstr.h

; 519  : 		return( GetData()->nDataLength );

	mov	eax, DWORD PTR [eax]
; File C:\Program Files (x86)\Microsoft Visual Studio\2019\Enterprise\VC\Tools\MSVC\14.23.28105\atlmfc\include\afxwin1.inl

; 574  : 	{ ASSERT(m_hDC != NULL); return TextOut(x, y, (LPCTSTR)str, (int)str.GetLength()); } // call virtual

	push	DWORD PTR [eax-12]
	push	eax
	push	DWORD PTR _y$[ebp]
	push	DWORD PTR _x$[ebp]
	call	DWORD PTR [edx+92]
	pop	ebp
	ret	12					; 0000000cH
?TextOutW@CDC@@QAEHHHABV?$CStringT@_WV?$StrTraitMFC@_WV?$ChTraitsCRT@_W@ATL@@@@@ATL@@@Z ENDP ; CDC::TextOutW
_TEXT	ENDS
; Function compile flags: /Ogtp
; File C:\Program Files (x86)\Microsoft Visual Studio\2019\Enterprise\VC\Tools\MSVC\14.23.28105\atlmfc\include\afxv_w32.h
;	COMDAT ?DrawState@@YGHPAUHDC__@@PAUHBRUSH__@@P6GH0JIHH@ZJIHHHHI@Z
_TEXT	SEGMENT
_hdc$ = 8						; size = 4
_hbr$ = 12						; size = 4
_lpOutputFunc$ = 16					; size = 4
_lData$ = 20						; size = 4
_wData$ = 24						; size = 4
_x$ = 28						; size = 4
_y$ = 32						; size = 4
_cx$ = 36						; size = 4
_cy$ = 40						; size = 4
_fuFlags$ = 44						; size = 4
?DrawState@@YGHPAUHDC__@@PAUHBRUSH__@@P6GH0JIHH@ZJIHHHHI@Z PROC ; DrawState, COMDAT

; 236  : 	{ return ::DrawStateW(hdc, hbr, lpOutputFunc, lData, wData, x, y, cx, cy,

	push	ebp
	mov	ebp, esp

; 237  : 		fuFlags); }

	pop	ebp

; 236  : 	{ return ::DrawStateW(hdc, hbr, lpOutputFunc, lData, wData, x, y, cx, cy,

	jmp	DWORD PTR __imp__DrawStateW@40
?DrawState@@YGHPAUHDC__@@PAUHBRUSH__@@P6GH0JIHH@ZJIHHHHI@Z ENDP ; DrawState
_TEXT	ENDS
; Function compile flags: /Ogtp
; File C:\Program Files (x86)\Microsoft Visual Studio\2019\Enterprise\VC\Tools\MSVC\14.23.28105\atlmfc\include\afxwin1.inl
; File C:\Program Files (x86)\Microsoft Visual Studio\2019\Enterprise\VC\Tools\MSVC\14.23.28105\atlmfc\include\afxv_w32.h
; File C:\Program Files (x86)\Microsoft Visual Studio\2019\Enterprise\VC\Tools\MSVC\14.23.28105\atlmfc\include\afxwin1.inl
;	COMDAT ?DrawState@CDC@@QAEHVCPoint@@VCSize@@PB_WIHHPAUHBRUSH__@@@Z
_TEXT	SEGMENT
_pt$ = 8						; size = 8
_size$ = 16						; size = 8
_lpszText$ = 24						; size = 4
_nFlags$dead$ = 28					; size = 4
_bPrefixText$dead$ = 32					; size = 4
_nTextLen$dead$ = 36					; size = 4
_hBrush$dead$ = 40					; size = 4
?DrawState@CDC@@QAEHVCPoint@@VCSize@@PB_WIHHPAUHBRUSH__@@@Z PROC ; CDC::DrawState, COMDAT
; _this$ = ecx

; 498  : 	{ ASSERT(m_hDC != NULL); return ::DrawState(m_hDC, hBrush,

	push	ebp
	mov	ebp, esp
; File C:\Program Files (x86)\Microsoft Visual Studio\2019\Enterprise\VC\Tools\MSVC\14.23.28105\atlmfc\include\afxv_w32.h

; 236  : 	{ return ::DrawStateW(hdc, hbr, lpOutputFunc, lData, wData, x, y, cx, cy,

	push	34					; 00000022H
	push	DWORD PTR _size$[ebp+4]
	push	DWORD PTR _size$[ebp]
	push	DWORD PTR _pt$[ebp+4]
	push	DWORD PTR _pt$[ebp]
	push	0
	push	DWORD PTR _lpszText$[ebp]
	push	0
	push	0
	push	DWORD PTR [ecx+4]
	call	DWORD PTR __imp__DrawStateW@40
; File C:\Program Files (x86)\Microsoft Visual Studio\2019\Enterprise\VC\Tools\MSVC\14.23.28105\atlmfc\include\afxwin1.inl

; 499  : 		NULL, (LPARAM)lpszText, (WPARAM)nTextLen, pt.x, pt.y, size.cx, size.cy, nFlags|(bPrefixText ? DST_PREFIXTEXT : DST_TEXT)); }

	pop	ebp
	ret	36					; 00000024H
?DrawState@CDC@@QAEHVCPoint@@VCSize@@PB_WIHHPAUHBRUSH__@@@Z ENDP ; CDC::DrawState
_TEXT	ENDS
; Function compile flags: /Ogtp
; File C:\Program Files (x86)\Microsoft Visual Studio\2019\Enterprise\VC\Tools\MSVC\14.23.28105\atlmfc\include\atltypes.h
;	COMDAT ?Offset@CPoint@@QAEXHH@Z
_TEXT	SEGMENT
_xOffset$ = 8						; size = 4
_yOffset$ = 12						; size = 4
?Offset@CPoint@@QAEXHH@Z PROC				; CPoint::Offset, COMDAT
; _this$ = ecx

; 431  : {

	push	ebp
	mov	ebp, esp

; 432  : 	x += xOffset;

	mov	eax, DWORD PTR _xOffset$[ebp]
	add	DWORD PTR [ecx], eax

; 433  : 	y += yOffset;

	mov	eax, DWORD PTR _yOffset$[ebp]
	add	DWORD PTR [ecx+4], eax

; 434  : }

	pop	ebp
	ret	8
?Offset@CPoint@@QAEXHH@Z ENDP				; CPoint::Offset
_TEXT	ENDS
; Function compile flags: /Ogtp
; File C:\Program Files (x86)\Microsoft Visual Studio\2019\Enterprise\VC\Tools\MSVC\14.23.28105\atlmfc\include\atltypes.h
;	COMDAT ?CenterPoint@CRect@@QBE?AVCPoint@@XZ
_TEXT	SEGMENT
___$ReturnUdt$ = 8					; size = 4
?CenterPoint@CRect@@QBE?AVCPoint@@XZ PROC		; CRect::CenterPoint, COMDAT
; _this$ = ecx

; 610  : {

	push	ebp
	mov	ebp, esp

; 611  : 	return CPoint((left+right)/2, (top+bottom)/2);

	mov	eax, DWORD PTR [ecx+8]
	add	eax, DWORD PTR [ecx]
	cdq
	sub	eax, edx
	sar	eax, 1
	push	esi

; 408  : 	x = initX;

	mov	esi, DWORD PTR ___$ReturnUdt$[ebp]
	mov	DWORD PTR [esi], eax

; 611  : 	return CPoint((left+right)/2, (top+bottom)/2);

	mov	eax, DWORD PTR [ecx+12]
	add	eax, DWORD PTR [ecx+4]
	cdq
	sub	eax, edx
	sar	eax, 1

; 409  : 	y = initY;

	mov	DWORD PTR [esi+4], eax

; 611  : 	return CPoint((left+right)/2, (top+bottom)/2);

	mov	eax, esi
	pop	esi

; 612  : }

	pop	ebp
	ret	4
?CenterPoint@CRect@@QBE?AVCPoint@@XZ ENDP		; CRect::CenterPoint
_TEXT	ENDS
; Function compile flags: /Ogtp
; File C:\Program Files (x86)\Microsoft Visual Studio\2019\Enterprise\VC\Tools\MSVC\14.23.28105\atlmfc\include\atltypes.h
;	COMDAT ??0CPoint@@QAE@HH@Z
_TEXT	SEGMENT
_initX$ = 8						; size = 4
_initY$ = 12						; size = 4
??0CPoint@@QAE@HH@Z PROC				; CPoint::CPoint, COMDAT
; _this$ = ecx

; 407  : {

	push	ebp
	mov	ebp, esp

; 408  : 	x = initX;

	mov	eax, DWORD PTR _initX$[ebp]
	mov	DWORD PTR [ecx], eax

; 409  : 	y = initY;

	mov	eax, DWORD PTR _initY$[ebp]
	mov	DWORD PTR [ecx+4], eax

; 410  : }

	mov	eax, ecx
	pop	ebp
	ret	8
??0CPoint@@QAE@HH@Z ENDP				; CPoint::CPoint
_TEXT	ENDS
; Function compile flags: /Ogtp
; File C:\Program Files (x86)\Microsoft Visual Studio\2019\Enterprise\VC\Tools\MSVC\14.23.28105\atlmfc\include\atltypes.h
;	COMDAT ??0CSize@@QAE@UtagSIZE@@@Z
_TEXT	SEGMENT
_initSize$ = 8						; size = 8
??0CSize@@QAE@UtagSIZE@@@Z PROC				; CSize::CSize, COMDAT
; _this$ = ecx

; 317  : {

	push	ebp
	mov	ebp, esp

; 318  : 	*(SIZE*)this = initSize;

	mov	eax, DWORD PTR _initSize$[ebp]
	mov	DWORD PTR [ecx], eax
	mov	eax, DWORD PTR _initSize$[ebp+4]
	mov	DWORD PTR [ecx+4], eax

; 319  : }

	mov	eax, ecx
	pop	ebp
	ret	8
??0CSize@@QAE@UtagSIZE@@@Z ENDP				; CSize::CSize
_TEXT	ENDS
; Function compile flags: /Ogtp
; File C:\Program Files (x86)\Microsoft Visual Studio\2019\Enterprise\VC\Tools\MSVC\14.23.28105\atlmfc\include\afxwin1.inl
; File C:\Program Files (x86)\Microsoft Visual Studio\2019\Enterprise\VC\Tools\MSVC\14.23.28105\atlmfc\include\atlsimpstr.h
; File C:\Program Files (x86)\Microsoft Visual Studio\2019\Enterprise\VC\Tools\MSVC\14.23.28105\atlmfc\include\afxwin1.inl
; File C:\Program Files (x86)\Microsoft Visual Studio\2019\Enterprise\VC\Tools\MSVC\14.23.28105\atlmfc\include\atltypes.h
; File C:\Program Files (x86)\Microsoft Visual Studio\2019\Enterprise\VC\Tools\MSVC\14.23.28105\atlmfc\include\afxwin1.inl
; File C:\Program Files (x86)\Microsoft Visual Studio\2019\Enterprise\VC\Tools\MSVC\14.23.28105\atlmfc\include\atltypes.h
; File C:\Program Files (x86)\Microsoft Visual Studio\2019\Enterprise\VC\Tools\MSVC\14.23.28105\atlmfc\include\afxwin1.inl
;	COMDAT ?GetTextExtent@CDC@@QBE?AVCSize@@ABV?$CStringT@_WV?$StrTraitMFC@_WV?$ChTraitsCRT@_W@ATL@@@@@ATL@@@Z
_TEXT	SEGMENT
_size$ = -12						; size = 8
__$ArrayPad$ = -4					; size = 4
___$ReturnUdt$ = 8					; size = 4
_str$ = 12						; size = 4
?GetTextExtent@CDC@@QBE?AVCSize@@ABV?$CStringT@_WV?$StrTraitMFC@_WV?$ChTraitsCRT@_W@ATL@@@@@ATL@@@Z PROC ; CDC::GetTextExtent, COMDAT
; _this$ = ecx

; 636  : 	{

	push	ebp
	mov	ebp, esp
	sub	esp, 12					; 0000000cH
	mov	eax, DWORD PTR ___security_cookie
	xor	eax, ebp
	mov	DWORD PTR __$ArrayPad$[ebp], eax
	mov	eax, DWORD PTR _str$[ebp]
	push	esi
	mov	esi, DWORD PTR ___$ReturnUdt$[ebp]
; File C:\Program Files (x86)\Microsoft Visual Studio\2019\Enterprise\VC\Tools\MSVC\14.23.28105\atlmfc\include\atlsimpstr.h

; 519  : 		return( GetData()->nDataLength );

	mov	edx, DWORD PTR [eax]
; File C:\Program Files (x86)\Microsoft Visual Studio\2019\Enterprise\VC\Tools\MSVC\14.23.28105\atlmfc\include\afxwin1.inl

; 639  : 		VERIFY(::GetTextExtentPoint32(m_hAttribDC, str, (int)str.GetLength(), &size));

	lea	eax, DWORD PTR _size$[ebp]
	push	eax
	push	DWORD PTR [edx-12]
	push	edx
	push	DWORD PTR [ecx+8]
	call	DWORD PTR __imp__GetTextExtentPoint32W@16
; File C:\Program Files (x86)\Microsoft Visual Studio\2019\Enterprise\VC\Tools\MSVC\14.23.28105\atlmfc\include\atltypes.h

; 318  : 	*(SIZE*)this = initSize;

	mov	ecx, DWORD PTR _size$[ebp]
; File C:\Program Files (x86)\Microsoft Visual Studio\2019\Enterprise\VC\Tools\MSVC\14.23.28105\atlmfc\include\afxwin1.inl

; 640  : 		return size;

	mov	eax, esi
; File C:\Program Files (x86)\Microsoft Visual Studio\2019\Enterprise\VC\Tools\MSVC\14.23.28105\atlmfc\include\atltypes.h

; 318  : 	*(SIZE*)this = initSize;

	mov	DWORD PTR [esi], ecx
	mov	ecx, DWORD PTR _size$[ebp+4]
	mov	DWORD PTR [esi+4], ecx
; File C:\Program Files (x86)\Microsoft Visual Studio\2019\Enterprise\VC\Tools\MSVC\14.23.28105\atlmfc\include\afxwin1.inl

; 641  : 	}

	mov	ecx, DWORD PTR __$ArrayPad$[ebp]
	xor	ecx, ebp
	pop	esi
	call	@__security_check_cookie@4
	mov	esp, ebp
	pop	ebp
	ret	8
?GetTextExtent@CDC@@QBE?AVCSize@@ABV?$CStringT@_WV?$StrTraitMFC@_WV?$ChTraitsCRT@_W@ATL@@@@@ATL@@@Z ENDP ; CDC::GetTextExtent
_TEXT	ENDS
; Function compile flags: /Ogtp
; File C:\Program Files (x86)\Microsoft Visual Studio\2019\Enterprise\VC\Tools\MSVC\14.23.28105\atlmfc\include\atlsimpstr.h
;	COMDAT ?IsEmpty@?$CSimpleStringT@_W$0A@@ATL@@QBE_NXZ
_TEXT	SEGMENT
?IsEmpty@?$CSimpleStringT@_W$0A@@ATL@@QBE_NXZ PROC	; ATL::CSimpleStringT<wchar_t,0>::IsEmpty, COMDAT
; _this$ = ecx

; 533  : 		return( GetLength() == 0 );

	mov	eax, DWORD PTR [ecx]
	cmp	DWORD PTR [eax-12], 0
	sete	al

; 534  : 	}

	ret	0
?IsEmpty@?$CSimpleStringT@_W$0A@@ATL@@QBE_NXZ ENDP	; ATL::CSimpleStringT<wchar_t,0>::IsEmpty
_TEXT	ENDS
; Function compile flags: /Ogtp
; File C:\Program Files (x86)\Microsoft Visual Studio\2019\Enterprise\VC\Tools\MSVC\14.23.28105\atlmfc\include\atltypes.h
;	COMDAT ??0CSize@@QAE@HH@Z
_TEXT	SEGMENT
_initCX$ = 8						; size = 4
_initCY$ = 12						; size = 4
??0CSize@@QAE@HH@Z PROC					; CSize::CSize, COMDAT
; _this$ = ecx

; 311  : {

	push	ebp
	mov	ebp, esp

; 312  : 	cx = initCX;

	mov	eax, DWORD PTR _initCX$[ebp]
	mov	DWORD PTR [ecx], eax

; 313  : 	cy = initCY;

	mov	eax, DWORD PTR _initCY$[ebp]
	mov	DWORD PTR [ecx+4], eax

; 314  : }

	mov	eax, ecx
	pop	ebp
	ret	8
??0CSize@@QAE@HH@Z ENDP					; CSize::CSize
_TEXT	ENDS
; Function compile flags: /Ogtp
; File C:\Program Files (x86)\Microsoft Visual Studio\2019\Enterprise\VC\Tools\MSVC\14.23.28105\atlmfc\include\atltypes.h
;	COMDAT ?DeflateRect@CRect@@QAEXUtagSIZE@@@Z
_TEXT	SEGMENT
_size$ = 8						; size = 8
?DeflateRect@CRect@@QAEXUtagSIZE@@@Z PROC		; CRect::DeflateRect, COMDAT
; _this$ = ecx

; 702  : {

	push	ebp
	mov	ebp, esp

; 703  : 	::InflateRect(this, -size.cx, -size.cy);

	mov	eax, DWORD PTR _size$[ebp+4]
	neg	eax
	push	eax
	mov	eax, DWORD PTR _size$[ebp]
	neg	eax
	push	eax
	push	ecx
	call	DWORD PTR __imp__InflateRect@12

; 704  : }

	pop	ebp
	ret	8
?DeflateRect@CRect@@QAEXUtagSIZE@@@Z ENDP		; CRect::DeflateRect
_TEXT	ENDS
; Function compile flags: /Ogtp
; File C:\Program Files (x86)\Microsoft Visual Studio\2019\Enterprise\VC\Tools\MSVC\14.23.28105\atlmfc\include\atltypes.h
;	COMDAT ??0CRect@@QAE@ABUtagRECT@@@Z
_TEXT	SEGMENT
_srcRect$ = 8						; size = 4
??0CRect@@QAE@ABUtagRECT@@@Z PROC			; CRect::CRect, COMDAT
; _this$ = ecx

; 547  : {

	push	ebp
	mov	ebp, esp
	push	esi

; 548  : 	::CopyRect(this, &srcRect);

	push	DWORD PTR _srcRect$[ebp]
	mov	esi, ecx
	push	esi
	call	DWORD PTR __imp__CopyRect@8

; 549  : }

	mov	eax, esi
	pop	esi
	pop	ebp
	ret	4
??0CRect@@QAE@ABUtagRECT@@@Z ENDP			; CRect::CRect
_TEXT	ENDS
END
