; Listing generated by Microsoft (R) Optimizing Compiler Version 19.29.30133.0 

	TITLE	j:\work\aes\aes\aes\release\sendto.obj
	.686P
	.XMM
	include listing.inc
	.model	flat

INCLUDELIB OLDNAMES

PUBLIC	??_C@_19BEHMAPDG@?$AA?4?$AAl?$AAn?$AAk@		; `string'
PUBLIC	??_C@_13NEIAEHFG@?$AA?$CC@			; `string'
PUBLIC	??_C@_1DA@NHEKNJFM@?$AAE?$AAr?$AAr?$AAe?$AAu?$AAr?$AA?5?$AAC?$AAo?$AAC?$AAr?$AAe?$AAa?$AAt?$AAe@ ; `string'
PUBLIC	??_C@_1CK@GBEOBGND@?$AAE?$AAr?$AAr?$AAe?$AAu?$AAr?$AA?5?$AAd?$AAe?$AA?5?$AAp?$AAa?$AAr?$AAa?$AAm@ ; `string'
PUBLIC	??_C@_1CG@DBGEAPLH@?$AAE?$AAr?$AAr?$AAe?$AAu?$AAr?$AA?5?$AAd?$AAe?$AA?5?$AAc?$AAr?$PP?i?$AAa?$AAt@ ; `string'
PUBLIC	??_C@_13FPGAJAPJ@?$AA?2@			; `string'
EXTRN	_IID_IPersistFile:BYTE
EXTRN	_CLSID_ShellLink:BYTE
EXTRN	_IID_IShellLinkW:BYTE
EXTRN	__imp__CoCreateInstance@20:PROC
EXTRN	__imp__CoInitialize@4:PROC
EXTRN	__imp__SHGetFolderPathW@20:PROC
;	COMDAT ??_C@_13FPGAJAPJ@?$AA?2@
CONST	SEGMENT
??_C@_13FPGAJAPJ@?$AA?2@ DB '\', 00H, 00H, 00H		; `string'
CONST	ENDS
;	COMDAT ??_C@_1CG@DBGEAPLH@?$AAE?$AAr?$AAr?$AAe?$AAu?$AAr?$AA?5?$AAd?$AAe?$AA?5?$AAc?$AAr?$PP?i?$AAa?$AAt@
CONST	SEGMENT
??_C@_1CG@DBGEAPLH@?$AAE?$AAr?$AAr?$AAe?$AAu?$AAr?$AA?5?$AAd?$AAe?$AA?5?$AAc?$AAr?$PP?i?$AAa?$AAt@ DB 'E'
	DB	00H, 'r', 00H, 'r', 00H, 'e', 00H, 'u', 00H, 'r', 00H, ' ', 00H
	DB	'd', 00H, 'e', 00H, ' ', 00H, 'c', 00H, 'r', 00H, 0e9H, 00H, 'a'
	DB	00H, 't', 00H, 'i', 00H, 'o', 00H, 'n', 00H, 00H, 00H ; `string'
CONST	ENDS
;	COMDAT ??_C@_1CK@GBEOBGND@?$AAE?$AAr?$AAr?$AAe?$AAu?$AAr?$AA?5?$AAd?$AAe?$AA?5?$AAp?$AAa?$AAr?$AAa?$AAm@
CONST	SEGMENT
??_C@_1CK@GBEOBGND@?$AAE?$AAr?$AAr?$AAe?$AAu?$AAr?$AA?5?$AAd?$AAe?$AA?5?$AAp?$AAa?$AAr?$AAa?$AAm@ DB 'E'
	DB	00H, 'r', 00H, 'r', 00H, 'e', 00H, 'u', 00H, 'r', 00H, ' ', 00H
	DB	'd', 00H, 'e', 00H, ' ', 00H, 'p', 00H, 'a', 00H, 'r', 00H, 'a'
	DB	00H, 'm', 00H, 'e', 00H, 't', 00H, 'r', 00H, 'e', 00H, 's', 00H
	DB	00H, 00H					; `string'
CONST	ENDS
;	COMDAT ??_C@_1DA@NHEKNJFM@?$AAE?$AAr?$AAr?$AAe?$AAu?$AAr?$AA?5?$AAC?$AAo?$AAC?$AAr?$AAe?$AAa?$AAt?$AAe@
CONST	SEGMENT
??_C@_1DA@NHEKNJFM@?$AAE?$AAr?$AAr?$AAe?$AAu?$AAr?$AA?5?$AAC?$AAo?$AAC?$AAr?$AAe?$AAa?$AAt?$AAe@ DB 'E'
	DB	00H, 'r', 00H, 'r', 00H, 'e', 00H, 'u', 00H, 'r', 00H, ' ', 00H
	DB	'C', 00H, 'o', 00H, 'C', 00H, 'r', 00H, 'e', 00H, 'a', 00H, 't'
	DB	00H, 'e', 00H, 'I', 00H, 'n', 00H, 's', 00H, 't', 00H, 'a', 00H
	DB	'n', 00H, 'c', 00H, 'e', 00H, 00H, 00H	; `string'
CONST	ENDS
;	COMDAT ??_C@_13NEIAEHFG@?$AA?$CC@
CONST	SEGMENT
??_C@_13NEIAEHFG@?$AA?$CC@ DB '"', 00H, 00H, 00H	; `string'
CONST	ENDS
;	COMDAT ??_C@_19BEHMAPDG@?$AA?4?$AAl?$AAn?$AAk@
CONST	SEGMENT
??_C@_19BEHMAPDG@?$AA?4?$AAl?$AAn?$AAk@ DB '.', 00H, 'l', 00H, 'n', 00H, 'k'
	DB	00H, 00H, 00H				; `string'
PUBLIC	?AfxGetAppName@@YGPB_WXZ			; AfxGetAppName
PUBLIC	?CreateShortCut@SendTo@@AAEJV?$CStringT@_WV?$StrTraitMFC@_WV?$ChTraitsCRT@_W@ATL@@@@@ATL@@0000@Z ; SendTo::CreateShortCut
PUBLIC	?Current_Dir@SendTo@@AAE?AV?$CStringT@_WV?$StrTraitMFC@_WV?$ChTraitsCRT@_W@ATL@@@@@ATL@@XZ ; SendTo::Current_Dir
PUBLIC	?Sepcial_Folder@SendTo@@AAE?AV?$CStringT@_WV?$StrTraitMFC@_WV?$ChTraitsCRT@_W@ATL@@@@@ATL@@H@Z ; SendTo::Sepcial_Folder
PUBLIC	?Charge_Constante@SendTo@@AAEXXZ		; SendTo::Charge_Constante
PUBLIC	??0SendTo@@QAE@XZ				; SendTo::SendTo
PUBLIC	??1SendTo@@QAE@XZ				; SendTo::~SendTo
;	COMDAT xdata$x
xdata$x	SEGMENT
__ehfuncinfo$??1SendTo@@QAE@XZ DQ 00000000019930522r ; 2.11987e-315
	DQ	00000000000000000r		; 0
	DQ	00000000000000000r		; 0
	DQ	00000000000000000r		; 0
	DD	05H
xdata$x	ENDS
;	COMDAT xdata$x
xdata$x	SEGMENT
__ehfuncinfo$??0SendTo@@QAE@XZ DQ 00000001c19930522r ; 5.96279e-313
	DD	FLAT:__unwindtable$??0SendTo@@QAE@XZ
	DQ	00000000000000000r		; 0
	DQ	00000000000000000r		; 0
	DQ	00000000100000000r		; 2.122e-314
__unwindtable$??0SendTo@@QAE@XZ DD 0ffffffffH
	DD	FLAT:__unwindfunclet$??0SendTo@@QAE@XZ$0
	DD	00H
	DD	FLAT:__unwindfunclet$??0SendTo@@QAE@XZ$1
	DD	01H
	DD	FLAT:__unwindfunclet$??0SendTo@@QAE@XZ$2
	DD	02H
	DD	FLAT:__unwindfunclet$??0SendTo@@QAE@XZ$3
	DD	03H
	DD	FLAT:__unwindfunclet$??0SendTo@@QAE@XZ$4
	DD	04H
	DD	FLAT:__unwindfunclet$??0SendTo@@QAE@XZ$5
	DD	05H
	DD	FLAT:__unwindfunclet$??0SendTo@@QAE@XZ$6
	DD	06H
	DD	FLAT:__unwindfunclet$??0SendTo@@QAE@XZ$7
	DD	07H
	DD	FLAT:__unwindfunclet$??0SendTo@@QAE@XZ$8
	DD	08H
	DD	FLAT:__unwindfunclet$??0SendTo@@QAE@XZ$9
	DD	09H
	DD	FLAT:__unwindfunclet$??0SendTo@@QAE@XZ$26
	DD	0aH
	DD	FLAT:__unwindfunclet$??0SendTo@@QAE@XZ$11
	DD	09H
	DD	FLAT:__unwindfunclet$??0SendTo@@QAE@XZ$12
	DD	0cH
	DD	FLAT:__unwindfunclet$??0SendTo@@QAE@XZ$13
	DD	0dH
	DD	FLAT:__unwindfunclet$??0SendTo@@QAE@XZ$14
	DD	0eH
	DD	FLAT:__unwindfunclet$??0SendTo@@QAE@XZ$15
	DD	0fH
	DD	FLAT:__unwindfunclet$??0SendTo@@QAE@XZ$16
	DD	010H
	DD	FLAT:__unwindfunclet$??0SendTo@@QAE@XZ$17
	DD	09H
	DD	FLAT:__unwindfunclet$??0SendTo@@QAE@XZ$18
	DD	012H
	DD	FLAT:__unwindfunclet$??0SendTo@@QAE@XZ$19
	DD	013H
	DD	FLAT:__unwindfunclet$??0SendTo@@QAE@XZ$20
	DD	014H
	DD	FLAT:__unwindfunclet$??0SendTo@@QAE@XZ$21
	DD	015H
	DD	FLAT:__unwindfunclet$??0SendTo@@QAE@XZ$22
	DD	016H
	DD	FLAT:__unwindfunclet$??0SendTo@@QAE@XZ$23
	DD	017H
	DD	FLAT:__unwindfunclet$??0SendTo@@QAE@XZ$24
	DD	09H
	DD	FLAT:__unwindfunclet$??0SendTo@@QAE@XZ$20
	DD	019H
	DD	FLAT:__unwindfunclet$??0SendTo@@QAE@XZ$21
	DD	01aH
	DD	FLAT:__unwindfunclet$??0SendTo@@QAE@XZ$22
xdata$x	ENDS
;	COMDAT xdata$x
xdata$x	SEGMENT
__unwindtable$?Sepcial_Folder@SendTo@@AAE?AV?$CStringT@_WV?$StrTraitMFC@_WV?$ChTraitsCRT@_W@ATL@@@@@ATL@@H@Z DD 0ffffffffH
	DD	FLAT:__unwindfunclet$?Sepcial_Folder@SendTo@@AAE?AV?$CStringT@_WV?$StrTraitMFC@_WV?$ChTraitsCRT@_W@ATL@@@@@ATL@@H@Z$1
__ehfuncinfo$?Sepcial_Folder@SendTo@@AAE?AV?$CStringT@_WV?$StrTraitMFC@_WV?$ChTraitsCRT@_W@ATL@@@@@ATL@@H@Z DQ 00000000119930522r ; 2.33398e-314
	DD	FLAT:__unwindtable$?Sepcial_Folder@SendTo@@AAE?AV?$CStringT@_WV?$StrTraitMFC@_WV?$ChTraitsCRT@_W@ATL@@@@@ATL@@H@Z
	DQ	00000000000000000r		; 0
	DQ	00000000000000000r		; 0
	DQ	00000000100000000r		; 2.122e-314
xdata$x	ENDS
;	COMDAT xdata$x
xdata$x	SEGMENT
__unwindtable$?Current_Dir@SendTo@@AAE?AV?$CStringT@_WV?$StrTraitMFC@_WV?$ChTraitsCRT@_W@ATL@@@@@ATL@@XZ DD 0ffffffffH
	DD	FLAT:__unwindfunclet$?Current_Dir@SendTo@@AAE?AV?$CStringT@_WV?$StrTraitMFC@_WV?$ChTraitsCRT@_W@ATL@@@@@ATL@@XZ$0
__ehfuncinfo$?Current_Dir@SendTo@@AAE?AV?$CStringT@_WV?$StrTraitMFC@_WV?$ChTraitsCRT@_W@ATL@@@@@ATL@@XZ DQ 00000000119930522r ; 2.33398e-314
	DD	FLAT:__unwindtable$?Current_Dir@SendTo@@AAE?AV?$CStringT@_WV?$StrTraitMFC@_WV?$ChTraitsCRT@_W@ATL@@@@@ATL@@XZ
	DQ	00000000000000000r		; 0
	DQ	00000000000000000r		; 0
	DQ	00000000100000000r		; 2.122e-314
xdata$x	ENDS
;	COMDAT xdata$x
xdata$x	SEGMENT
__ehfuncinfo$?CreateShortCut@SendTo@@AAEJV?$CStringT@_WV?$StrTraitMFC@_WV?$ChTraitsCRT@_W@ATL@@@@@ATL@@0000@Z DQ 00000000519930522r ; 1.0822e-313
	DD	FLAT:__unwindtable$?CreateShortCut@SendTo@@AAEJV?$CStringT@_WV?$StrTraitMFC@_WV?$ChTraitsCRT@_W@ATL@@@@@ATL@@0000@Z
	DQ	00000000000000000r		; 0
	DQ	00000000000000000r		; 0
	DQ	00000000100000000r		; 2.122e-314
__unwindtable$?CreateShortCut@SendTo@@AAEJV?$CStringT@_WV?$StrTraitMFC@_WV?$ChTraitsCRT@_W@ATL@@@@@ATL@@0000@Z DD 0ffffffffH
	DD	FLAT:__unwindfunclet$?CreateShortCut@SendTo@@AAEJV?$CStringT@_WV?$StrTraitMFC@_WV?$ChTraitsCRT@_W@ATL@@@@@ATL@@0000@Z$0
	DD	00H
	DD	FLAT:__unwindfunclet$?CreateShortCut@SendTo@@AAEJV?$CStringT@_WV?$StrTraitMFC@_WV?$ChTraitsCRT@_W@ATL@@@@@ATL@@0000@Z$1
	DD	01H
	DD	FLAT:__unwindfunclet$?CreateShortCut@SendTo@@AAEJV?$CStringT@_WV?$StrTraitMFC@_WV?$ChTraitsCRT@_W@ATL@@@@@ATL@@0000@Z$2
	DD	02H
	DD	FLAT:__unwindfunclet$?CreateShortCut@SendTo@@AAEJV?$CStringT@_WV?$StrTraitMFC@_WV?$ChTraitsCRT@_W@ATL@@@@@ATL@@0000@Z$3
	DD	03H
	DD	FLAT:__unwindfunclet$?CreateShortCut@SendTo@@AAEJV?$CStringT@_WV?$StrTraitMFC@_WV?$ChTraitsCRT@_W@ATL@@@@@ATL@@0000@Z$4
END
