; Listing generated by Microsoft (R) Optimizing Compiler Version 19.23.28106.4 

	TITLE	i:\projets\aes\aes\aes\sendto.cpp
	.686P
	.XMM
	include listing.inc
	.model	flat

INCLUDELIB OLDNAMES

PUBLIC	??_C@_19BEHMAPDG@?$AA?4?$AAl?$AAn?$AAk@		; `string'
PUBLIC	??_C@_13NEIAEHFG@?$AA?$CC@			; `string'
PUBLIC	??_C@_1DA@NHEKNJFM@?$AAE?$AAr?$AAr?$AAe?$AAu?$AAr?$AA?5?$AAC?$AAo?$AAC?$AAr?$AAe?$AAa?$AAt?$AAe@ ; `string'
PUBLIC	??_C@_1CK@GBEOBGND@?$AAE?$AAr?$AAr?$AAe?$AAu?$AAr?$AA?5?$AAd?$AAe?$AA?5?$AAp?$AAa?$AAr?$AAa?$AAm@ ; `string'
PUBLIC	??_C@_1CG@DBGEAPLH@?$AAE?$AAr?$AAr?$AAe?$AAu?$AAr?$AA?5?$AAd?$AAe?$AA?5?$AAc?$AAr?$PP?i?$AAa?$AAt@ ; `string'
PUBLIC	??_C@_13FPGAJAPJ@?$AA?2@			; `string'
EXTRN	_IID_IPersistFile:BYTE
EXTRN	_CLSID_ShellLink:BYTE
EXTRN	_IID_IShellLinkW:BYTE
EXTRN	__imp__CoCreateInstance@20:PROC
EXTRN	__imp__CoInitialize@4:PROC
EXTRN	__imp__SHGetFolderPathW@20:PROC
;	COMDAT ??_C@_13FPGAJAPJ@?$AA?2@
CONST	SEGMENT
??_C@_13FPGAJAPJ@?$AA?2@ DB '\', 00H, 00H, 00H		; `string'
CONST	ENDS
;	COMDAT ??_C@_1CG@DBGEAPLH@?$AAE?$AAr?$AAr?$AAe?$AAu?$AAr?$AA?5?$AAd?$AAe?$AA?5?$AAc?$AAr?$PP?i?$AAa?$AAt@
CONST	SEGMENT
??_C@_1CG@DBGEAPLH@?$AAE?$AAr?$AAr?$AAe?$AAu?$AAr?$AA?5?$AAd?$AAe?$AA?5?$AAc?$AAr?$PP?i?$AAa?$AAt@ DB 'E'
	DB	00H, 'r', 00H, 'r', 00H, 'e', 00H, 'u', 00H, 'r', 00H, ' ', 00H
	DB	'd', 00H, 'e', 00H, ' ', 00H, 'c', 00H, 'r', 00H, 0e9H, 00H, 'a'
	DB	00H, 't', 00H, 'i', 00H, 'o', 00H, 'n', 00H, 00H, 00H ; `string'
CONST	ENDS
;	COMDAT ??_C@_1CK@GBEOBGND@?$AAE?$AAr?$AAr?$AAe?$AAu?$AAr?$AA?5?$AAd?$AAe?$AA?5?$AAp?$AAa?$AAr?$AAa?$AAm@
CONST	SEGMENT
??_C@_1CK@GBEOBGND@?$AAE?$AAr?$AAr?$AAe?$AAu?$AAr?$AA?5?$AAd?$AAe?$AA?5?$AAp?$AAa?$AAr?$AAa?$AAm@ DB 'E'
	DB	00H, 'r', 00H, 'r', 00H, 'e', 00H, 'u', 00H, 'r', 00H, ' ', 00H
	DB	'd', 00H, 'e', 00H, ' ', 00H, 'p', 00H, 'a', 00H, 'r', 00H, 'a'
	DB	00H, 'm', 00H, 'e', 00H, 't', 00H, 'r', 00H, 'e', 00H, 's', 00H
	DB	00H, 00H					; `string'
CONST	ENDS
;	COMDAT ??_C@_1DA@NHEKNJFM@?$AAE?$AAr?$AAr?$AAe?$AAu?$AAr?$AA?5?$AAC?$AAo?$AAC?$AAr?$AAe?$AAa?$AAt?$AAe@
CONST	SEGMENT
??_C@_1DA@NHEKNJFM@?$AAE?$AAr?$AAr?$AAe?$AAu?$AAr?$AA?5?$AAC?$AAo?$AAC?$AAr?$AAe?$AAa?$AAt?$AAe@ DB 'E'
	DB	00H, 'r', 00H, 'r', 00H, 'e', 00H, 'u', 00H, 'r', 00H, ' ', 00H
	DB	'C', 00H, 'o', 00H, 'C', 00H, 'r', 00H, 'e', 00H, 'a', 00H, 't'
	DB	00H, 'e', 00H, 'I', 00H, 'n', 00H, 's', 00H, 't', 00H, 'a', 00H
	DB	'n', 00H, 'c', 00H, 'e', 00H, 00H, 00H	; `string'
CONST	ENDS
;	COMDAT ??_C@_13NEIAEHFG@?$AA?$CC@
CONST	SEGMENT
??_C@_13NEIAEHFG@?$AA?$CC@ DB '"', 00H, 00H, 00H	; `string'
CONST	ENDS
;	COMDAT ??_C@_19BEHMAPDG@?$AA?4?$AAl?$AAn?$AAk@
CONST	SEGMENT
??_C@_19BEHMAPDG@?$AA?4?$AAl?$AAn?$AAk@ DB '.', 00H, 'l', 00H, 'n', 00H, 'k'
	DB	00H, 00H, 00H				; `string'
PUBLIC	?AfxGetAppName@@YGPB_WXZ			; AfxGetAppName
PUBLIC	?CreateShortCut@SendTo@@AAEJV?$CStringT@_WV?$StrTraitMFC@_WV?$ChTraitsCRT@_W@ATL@@@@@ATL@@0000@Z ; SendTo::CreateShortCut
PUBLIC	?Current_Dir@SendTo@@AAE?AV?$CStringT@_WV?$StrTraitMFC@_WV?$ChTraitsCRT@_W@ATL@@@@@ATL@@XZ ; SendTo::Current_Dir
PUBLIC	?Sepcial_Folder@SendTo@@AAE?AV?$CStringT@_WV?$StrTraitMFC@_WV?$ChTraitsCRT@_W@ATL@@@@@ATL@@H@Z ; SendTo::Sepcial_Folder
PUBLIC	?Charge_Constante@SendTo@@AAEXXZ		; SendTo::Charge_Constante
PUBLIC	??0SendTo@@QAE@XZ				; SendTo::SendTo
PUBLIC	??1SendTo@@QAE@XZ				; SendTo::~SendTo
;	COMDAT xdata$x
xdata$x	SEGMENT
__ehfuncinfo$??1SendTo@@QAE@XZ DD 019930522H
	DD	00H
	DD	00H
	DD	2 DUP(00H)
	DD	2 DUP(00H)
	DD	00H
	DD	05H
xdata$x	ENDS
;	COMDAT xdata$x
xdata$x	SEGMENT
__ehfuncinfo$??0SendTo@@QAE@XZ DD 019930522H
	DD	01cH
	DD	FLAT:__unwindtable$??0SendTo@@QAE@XZ
	DD	2 DUP(00H)
	DD	2 DUP(00H)
	DD	00H
	DD	01H
__unwindtable$??0SendTo@@QAE@XZ DD 0ffffffffH
	DD	FLAT:__unwindfunclet$??0SendTo@@QAE@XZ$0
	DD	00H
	DD	FLAT:__unwindfunclet$??0SendTo@@QAE@XZ$1
	DD	01H
	DD	FLAT:__unwindfunclet$??0SendTo@@QAE@XZ$2
	DD	02H
	DD	FLAT:__unwindfunclet$??0SendTo@@QAE@XZ$3
	DD	03H
	DD	FLAT:__unwindfunclet$??0SendTo@@QAE@XZ$4
	DD	04H
	DD	FLAT:__unwindfunclet$??0SendTo@@QAE@XZ$5
	DD	05H
	DD	FLAT:__unwindfunclet$??0SendTo@@QAE@XZ$6
	DD	06H
	DD	FLAT:__unwindfunclet$??0SendTo@@QAE@XZ$7
	DD	07H
	DD	FLAT:__unwindfunclet$??0SendTo@@QAE@XZ$8
	DD	08H
	DD	FLAT:__unwindfunclet$??0SendTo@@QAE@XZ$9
	DD	09H
	DD	FLAT:__unwindfunclet$??0SendTo@@QAE@XZ$26
	DD	0aH
	DD	FLAT:__unwindfunclet$??0SendTo@@QAE@XZ$11
	DD	09H
	DD	FLAT:__unwindfunclet$??0SendTo@@QAE@XZ$12
	DD	0cH
	DD	FLAT:__unwindfunclet$??0SendTo@@QAE@XZ$13
	DD	0dH
	DD	FLAT:__unwindfunclet$??0SendTo@@QAE@XZ$14
	DD	0eH
	DD	FLAT:__unwindfunclet$??0SendTo@@QAE@XZ$15
	DD	0fH
	DD	FLAT:__unwindfunclet$??0SendTo@@QAE@XZ$16
	DD	010H
	DD	FLAT:__unwindfunclet$??0SendTo@@QAE@XZ$17
	DD	09H
	DD	FLAT:__unwindfunclet$??0SendTo@@QAE@XZ$18
	DD	012H
	DD	FLAT:__unwindfunclet$??0SendTo@@QAE@XZ$19
	DD	013H
	DD	FLAT:__unwindfunclet$??0SendTo@@QAE@XZ$20
	DD	014H
	DD	FLAT:__unwindfunclet$??0SendTo@@QAE@XZ$21
	DD	015H
	DD	FLAT:__unwindfunclet$??0SendTo@@QAE@XZ$22
	DD	016H
	DD	FLAT:__unwindfunclet$??0SendTo@@QAE@XZ$23
	DD	017H
	DD	FLAT:__unwindfunclet$??0SendTo@@QAE@XZ$24
	DD	09H
	DD	FLAT:__unwindfunclet$??0SendTo@@QAE@XZ$20
	DD	019H
	DD	FLAT:__unwindfunclet$??0SendTo@@QAE@XZ$21
	DD	01aH
	DD	FLAT:__unwindfunclet$??0SendTo@@QAE@XZ$22
xdata$x	ENDS
;	COMDAT xdata$x
xdata$x	SEGMENT
__unwindtable$?Sepcial_Folder@SendTo@@AAE?AV?$CStringT@_WV?$StrTraitMFC@_WV?$ChTraitsCRT@_W@ATL@@@@@ATL@@H@Z DD 0ffffffffH
	DD	FLAT:__unwindfunclet$?Sepcial_Folder@SendTo@@AAE?AV?$CStringT@_WV?$StrTraitMFC@_WV?$ChTraitsCRT@_W@ATL@@@@@ATL@@H@Z$1
__ehfuncinfo$?Sepcial_Folder@SendTo@@AAE?AV?$CStringT@_WV?$StrTraitMFC@_WV?$ChTraitsCRT@_W@ATL@@@@@ATL@@H@Z DD 019930522H
	DD	01H
	DD	FLAT:__unwindtable$?Sepcial_Folder@SendTo@@AAE?AV?$CStringT@_WV?$StrTraitMFC@_WV?$ChTraitsCRT@_W@ATL@@@@@ATL@@H@Z
	DD	2 DUP(00H)
	DD	2 DUP(00H)
	DD	00H
	DD	01H
xdata$x	ENDS
;	COMDAT xdata$x
xdata$x	SEGMENT
__unwindtable$?Current_Dir@SendTo@@AAE?AV?$CStringT@_WV?$StrTraitMFC@_WV?$ChTraitsCRT@_W@ATL@@@@@ATL@@XZ DD 0ffffffffH
	DD	FLAT:__unwindfunclet$?Current_Dir@SendTo@@AAE?AV?$CStringT@_WV?$StrTraitMFC@_WV?$ChTraitsCRT@_W@ATL@@@@@ATL@@XZ$0
__ehfuncinfo$?Current_Dir@SendTo@@AAE?AV?$CStringT@_WV?$StrTraitMFC@_WV?$ChTraitsCRT@_W@ATL@@@@@ATL@@XZ DD 019930522H
	DD	01H
	DD	FLAT:__unwindtable$?Current_Dir@SendTo@@AAE?AV?$CStringT@_WV?$StrTraitMFC@_WV?$ChTraitsCRT@_W@ATL@@@@@ATL@@XZ
	DD	2 DUP(00H)
	DD	2 DUP(00H)
	DD	00H
	DD	01H
xdata$x	ENDS
;	COMDAT xdata$x
xdata$x	SEGMENT
__ehfuncinfo$?CreateShortCut@SendTo@@AAEJV?$CStringT@_WV?$StrTraitMFC@_WV?$ChTraitsCRT@_W@ATL@@@@@ATL@@0000@Z DD 019930522H
	DD	05H
	DD	FLAT:__unwindtable$?CreateShortCut@SendTo@@AAEJV?$CStringT@_WV?$StrTraitMFC@_WV?$ChTraitsCRT@_W@ATL@@@@@ATL@@0000@Z
	DD	2 DUP(00H)
	DD	2 DUP(00H)
	DD	00H
	DD	01H
__unwindtable$?CreateShortCut@SendTo@@AAEJV?$CStringT@_WV?$StrTraitMFC@_WV?$ChTraitsCRT@_W@ATL@@@@@ATL@@0000@Z DD 0ffffffffH
	DD	FLAT:__unwindfunclet$?CreateShortCut@SendTo@@AAEJV?$CStringT@_WV?$StrTraitMFC@_WV?$ChTraitsCRT@_W@ATL@@@@@ATL@@0000@Z$0
	DD	00H
	DD	FLAT:__unwindfunclet$?CreateShortCut@SendTo@@AAEJV?$CStringT@_WV?$StrTraitMFC@_WV?$ChTraitsCRT@_W@ATL@@@@@ATL@@0000@Z$1
	DD	01H
	DD	FLAT:__unwindfunclet$?CreateShortCut@SendTo@@AAEJV?$CStringT@_WV?$StrTraitMFC@_WV?$ChTraitsCRT@_W@ATL@@@@@ATL@@0000@Z$2
	DD	02H
	DD	FLAT:__unwindfunclet$?CreateShortCut@SendTo@@AAEJV?$CStringT@_WV?$StrTraitMFC@_WV?$ChTraitsCRT@_W@ATL@@@@@ATL@@0000@Z$3
	DD	03H
	DD	FLAT:__unwindfunclet$?CreateShortCut@SendTo@@AAEJV?$CStringT@_WV?$StrTraitMFC@_WV?$ChTraitsCRT@_W@ATL@@@@@ATL@@0000@Z$4
; Function compile flags: /Ogtp
; File I:\Projets\AES\AES\AES\SendTo.cpp
; File C:\Program Files (x86)\Microsoft Visual Studio\2019\Enterprise\VC\Tools\MSVC\14.23.28105\atlmfc\include\atlsimpstr.h
; File I:\Projets\AES\AES\AES\SendTo.cpp
;	COMDAT ??1SendTo@@QAE@XZ
_TEXT	SEGMENT
__$EHRec$ = -12						; size = 12
??1SendTo@@QAE@XZ PROC					; SendTo::~SendTo, COMDAT
; _this$ = ecx

; 35   : {

	push	ebp
	mov	ebp, esp
	push	-1
	push	__ehhandler$??1SendTo@@QAE@XZ
	mov	eax, DWORD PTR fs:0
	push	eax
	push	esi
	push	edi
	mov	eax, DWORD PTR ___security_cookie
	xor	eax, ebp
	push	eax
	lea	eax, DWORD PTR __$EHRec$[ebp]
	mov	DWORD PTR fs:0, eax
	mov	edi, ecx
; File C:\Program Files (x86)\Microsoft Visual Studio\2019\Enterprise\VC\Tools\MSVC\14.23.28105\atlmfc\include\atlsimpstr.h

; 800  : 		return( reinterpret_cast< CStringData* >( m_pszData )-1 );

	mov	edx, DWORD PTR [edi+28]

; 88   : 		if( _InterlockedDecrement( &nRefs ) <= 0 )

	or	esi, -1

; 800  : 		return( reinterpret_cast< CStringData* >( m_pszData )-1 );

	sub	edx, 16					; 00000010H

; 88   : 		if( _InterlockedDecrement( &nRefs ) <= 0 )

	mov	eax, esi
	lock	 xadd	 DWORD PTR [edx+12], eax
	dec	eax
	test	eax, eax
	jg	SHORT $LN10@SendTo

; 89   : 		{
; 90   : 			pStringMgr->Free( this );

	mov	ecx, DWORD PTR [edx]
	push	edx
	mov	eax, DWORD PTR [ecx]
	call	DWORD PTR [eax+4]
$LN10@SendTo:

; 800  : 		return( reinterpret_cast< CStringData* >( m_pszData )-1 );

	mov	edx, DWORD PTR [edi+24]

; 88   : 		if( _InterlockedDecrement( &nRefs ) <= 0 )

	mov	eax, esi

; 800  : 		return( reinterpret_cast< CStringData* >( m_pszData )-1 );

	sub	edx, 16					; 00000010H

; 88   : 		if( _InterlockedDecrement( &nRefs ) <= 0 )

	lock	 xadd	 DWORD PTR [edx+12], eax
	dec	eax
	test	eax, eax
	jg	SHORT $LN19@SendTo

; 89   : 		{
; 90   : 			pStringMgr->Free( this );

	mov	ecx, DWORD PTR [edx]
	push	edx
	mov	eax, DWORD PTR [ecx]
	call	DWORD PTR [eax+4]
$LN19@SendTo:

; 800  : 		return( reinterpret_cast< CStringData* >( m_pszData )-1 );

	mov	edx, DWORD PTR [edi+20]

; 88   : 		if( _InterlockedDecrement( &nRefs ) <= 0 )

	mov	eax, esi

; 800  : 		return( reinterpret_cast< CStringData* >( m_pszData )-1 );

	sub	edx, 16					; 00000010H

; 88   : 		if( _InterlockedDecrement( &nRefs ) <= 0 )

	lock	 xadd	 DWORD PTR [edx+12], eax
	dec	eax
	test	eax, eax
	jg	SHORT $LN28@SendTo

; 89   : 		{
; 90   : 			pStringMgr->Free( this );

	mov	ecx, DWORD PTR [edx]
	push	edx
	mov	eax, DWORD PTR [ecx]
	call	DWORD PTR [eax+4]
$LN28@SendTo:

; 800  : 		return( reinterpret_cast< CStringData* >( m_pszData )-1 );

	mov	edx, DWORD PTR [edi+16]

; 88   : 		if( _InterlockedDecrement( &nRefs ) <= 0 )

	mov	eax, esi

; 800  : 		return( reinterpret_cast< CStringData* >( m_pszData )-1 );

	sub	edx, 16					; 00000010H

; 88   : 		if( _InterlockedDecrement( &nRefs ) <= 0 )

	lock	 xadd	 DWORD PTR [edx+12], eax
	dec	eax
	test	eax, eax
	jg	SHORT $LN37@SendTo

; 89   : 		{
; 90   : 			pStringMgr->Free( this );

	mov	ecx, DWORD PTR [edx]
	push	edx
	mov	eax, DWORD PTR [ecx]
	call	DWORD PTR [eax+4]
$LN37@SendTo:

; 800  : 		return( reinterpret_cast< CStringData* >( m_pszData )-1 );

	mov	edx, DWORD PTR [edi+12]

; 88   : 		if( _InterlockedDecrement( &nRefs ) <= 0 )

	mov	eax, esi

; 800  : 		return( reinterpret_cast< CStringData* >( m_pszData )-1 );

	sub	edx, 16					; 00000010H

; 88   : 		if( _InterlockedDecrement( &nRefs ) <= 0 )

	lock	 xadd	 DWORD PTR [edx+12], eax
	dec	eax
	test	eax, eax
	jg	SHORT $LN46@SendTo

; 89   : 		{
; 90   : 			pStringMgr->Free( this );

	mov	ecx, DWORD PTR [edx]
	push	edx
	mov	eax, DWORD PTR [ecx]
	call	DWORD PTR [eax+4]
$LN46@SendTo:

; 800  : 		return( reinterpret_cast< CStringData* >( m_pszData )-1 );

	mov	edx, DWORD PTR [edi+8]

; 88   : 		if( _InterlockedDecrement( &nRefs ) <= 0 )

	mov	eax, esi

; 800  : 		return( reinterpret_cast< CStringData* >( m_pszData )-1 );

	sub	edx, 16					; 00000010H

; 88   : 		if( _InterlockedDecrement( &nRefs ) <= 0 )

	lock	 xadd	 DWORD PTR [edx+12], eax
	dec	eax
	test	eax, eax
	jg	SHORT $LN55@SendTo

; 89   : 		{
; 90   : 			pStringMgr->Free( this );

	mov	ecx, DWORD PTR [edx]
	push	edx
	mov	eax, DWORD PTR [ecx]
	call	DWORD PTR [eax+4]
$LN55@SendTo:

; 800  : 		return( reinterpret_cast< CStringData* >( m_pszData )-1 );

	mov	edx, DWORD PTR [edi+4]

; 88   : 		if( _InterlockedDecrement( &nRefs ) <= 0 )

	mov	eax, esi

; 800  : 		return( reinterpret_cast< CStringData* >( m_pszData )-1 );

	sub	edx, 16					; 00000010H

; 88   : 		if( _InterlockedDecrement( &nRefs ) <= 0 )

	lock	 xadd	 DWORD PTR [edx+12], eax
	dec	eax
	test	eax, eax
	jg	SHORT $LN64@SendTo

; 89   : 		{
; 90   : 			pStringMgr->Free( this );

	mov	ecx, DWORD PTR [edx]
	push	edx
	mov	eax, DWORD PTR [ecx]
	call	DWORD PTR [eax+4]
$LN64@SendTo:

; 800  : 		return( reinterpret_cast< CStringData* >( m_pszData )-1 );

	mov	edx, DWORD PTR [edi]
	sub	edx, 16					; 00000010H

; 88   : 		if( _InterlockedDecrement( &nRefs ) <= 0 )

	lock	 xadd	 DWORD PTR [edx+12], esi
	dec	esi
	test	esi, esi
	jg	SHORT $LN73@SendTo

; 89   : 		{
; 90   : 			pStringMgr->Free( this );

	mov	ecx, DWORD PTR [edx]
	push	edx
	mov	eax, DWORD PTR [ecx]
	call	DWORD PTR [eax+4]
$LN73@SendTo:
; File I:\Projets\AES\AES\AES\SendTo.cpp

; 36   : }

	mov	ecx, DWORD PTR __$EHRec$[ebp]
	mov	DWORD PTR fs:0, ecx
	pop	ecx
	pop	edi
	pop	esi
	mov	esp, ebp
	pop	ebp
	ret	0
_TEXT	ENDS
;	COMDAT text$x
text$x	SEGMENT
__ehhandler$??1SendTo@@QAE@XZ:
	mov	edx, DWORD PTR [esp+8]
	lea	eax, DWORD PTR [edx+12]
	mov	ecx, DWORD PTR [edx-12]
	xor	ecx, eax
	call	@__security_check_cookie@4
	mov	eax, OFFSET __ehfuncinfo$??1SendTo@@QAE@XZ
	jmp	___CxxFrameHandler3
text$x	ENDS
??1SendTo@@QAE@XZ ENDP					; SendTo::~SendTo
; Function compile flags: /Ogtp
; File I:\Projets\AES\AES\AES\SendTo.cpp
; File C:\Program Files (x86)\Microsoft Visual Studio\2019\Enterprise\VC\Tools\MSVC\14.23.28105\atlmfc\include\afxstr.h
; File C:\Program Files (x86)\Microsoft Visual Studio\2019\Enterprise\VC\Tools\MSVC\14.23.28105\atlmfc\include\atlsimpstr.h
; File I:\Projets\AES\AES\AES\SendTo.cpp
; File C:\Program Files (x86)\Microsoft Visual Studio\2019\Enterprise\VC\Tools\MSVC\14.23.28105\atlmfc\include\afxstr.h
; File C:\Program Files (x86)\Microsoft Visual Studio\2019\Enterprise\VC\Tools\MSVC\14.23.28105\atlmfc\include\atlsimpstr.h
; File I:\Projets\AES\AES\AES\SendTo.cpp
; File C:\Program Files (x86)\Microsoft Visual Studio\2019\Enterprise\VC\Tools\MSVC\14.23.28105\atlmfc\include\afxstr.h
; File C:\Program Files (x86)\Microsoft Visual Studio\2019\Enterprise\VC\Tools\MSVC\14.23.28105\atlmfc\include\atlsimpstr.h
; File I:\Projets\AES\AES\AES\SendTo.cpp
; File C:\Program Files (x86)\Microsoft Visual Studio\2019\Enterprise\VC\Tools\MSVC\14.23.28105\atlmfc\include\afxstr.h
; File C:\Program Files (x86)\Microsoft Visual Studio\2019\Enterprise\VC\Tools\MSVC\14.23.28105\atlmfc\include\atlsimpstr.h
; File I:\Projets\AES\AES\AES\SendTo.cpp
; File C:\Program Files (x86)\Microsoft Visual Studio\2019\Enterprise\VC\Tools\MSVC\14.23.28105\atlmfc\include\afxstr.h
; File C:\Program Files (x86)\Microsoft Visual Studio\2019\Enterprise\VC\Tools\MSVC\14.23.28105\atlmfc\include\atlsimpstr.h
; File I:\Projets\AES\AES\AES\SendTo.cpp
; File C:\Program Files (x86)\Microsoft Visual Studio\2019\Enterprise\VC\Tools\MSVC\14.23.28105\atlmfc\include\afxstr.h
; File C:\Program Files (x86)\Microsoft Visual Studio\2019\Enterprise\VC\Tools\MSVC\14.23.28105\atlmfc\include\atlsimpstr.h
; File I:\Projets\AES\AES\AES\SendTo.cpp
; File C:\Program Files (x86)\Microsoft Visual Studio\2019\Enterprise\VC\Tools\MSVC\14.23.28105\atlmfc\include\afxstr.h
; File C:\Program Files (x86)\Microsoft Visual Studio\2019\Enterprise\VC\Tools\MSVC\14.23.28105\atlmfc\include\atlsimpstr.h
; File I:\Projets\AES\AES\AES\SendTo.cpp
; File C:\Program Files (x86)\Microsoft Visual Studio\2019\Enterprise\VC\Tools\MSVC\14.23.28105\atlmfc\include\afxstr.h
; File C:\Program Files (x86)\Microsoft Visual Studio\2019\Enterprise\VC\Tools\MSVC\14.23.28105\atlmfc\include\atlsimpstr.h
; File I:\Projets\AES\AES\AES\SendTo.cpp
; File C:\Program Files (x86)\Microsoft Visual Studio\2019\Enterprise\VC\Tools\MSVC\14.23.28105\atlmfc\include\afxstr.h
; File C:\Program Files (x86)\Microsoft Visual Studio\2019\Enterprise\VC\Tools\MSVC\14.23.28105\atlmfc\include\atlsimpstr.h
; File I:\Projets\AES\AES\AES\SendTo.cpp
; File C:\Program Files (x86)\Microsoft Visual Studio\2019\Enterprise\VC\Tools\MSVC\14.23.28105\atlmfc\include\afxstr.h
; File C:\Program Files (x86)\Microsoft Visual Studio\2019\Enterprise\VC\Tools\MSVC\14.23.28105\atlmfc\include\atlsimpstr.h
; File I:\Projets\AES\AES\AES\SendTo.cpp
; File C:\Program Files (x86)\Microsoft Visual Studio\2019\Enterprise\VC\Tools\MSVC\14.23.28105\atlmfc\include\atlsimpstr.h
; File I:\Projets\AES\AES\AES\SendTo.cpp
; File C:\Program Files (x86)\Microsoft Visual Studio\2019\Enterprise\VC\Tools\MSVC\14.23.28105\atlmfc\include\atlsimpstr.h
; File C:\Program Files (x86)\Microsoft Visual Studio\2019\Enterprise\VC\Tools\MSVC\14.23.28105\atlmfc\include\afxwin1.inl
; File C:\Program Files (x86)\Microsoft Visual Studio\2019\Enterprise\VC\Tools\MSVC\14.23.28105\atlmfc\include\atlsimpstr.h
; File I:\Projets\AES\AES\AES\SendTo.cpp
; File C:\Program Files (x86)\Microsoft Visual Studio\2019\Enterprise\VC\Tools\MSVC\14.23.28105\atlmfc\include\afxstr.h
; File C:\Program Files (x86)\Microsoft Visual Studio\2019\Enterprise\VC\Tools\MSVC\14.23.28105\atlmfc\include\atlsimpstr.h
; File I:\Projets\AES\AES\AES\SendTo.cpp
; File C:\Program Files (x86)\Microsoft Visual Studio\2019\Enterprise\VC\Tools\MSVC\14.23.28105\atlmfc\include\atlsimpstr.h
; File I:\Projets\AES\AES\AES\SendTo.cpp
; File C:\Program Files (x86)\Microsoft Visual Studio\2019\Enterprise\VC\Tools\MSVC\14.23.28105\atlmfc\include\atlsimpstr.h
; File I:\Projets\AES\AES\AES\SendTo.cpp
; File C:\Program Files (x86)\Microsoft Visual Studio\2019\Enterprise\VC\Tools\MSVC\14.23.28105\atlmfc\include\atlsimpstr.h
; File I:\Projets\AES\AES\AES\SendTo.cpp
; File C:\Program Files (x86)\Microsoft Visual Studio\2019\Enterprise\VC\Tools\MSVC\14.23.28105\atlmfc\include\atlsimpstr.h
; File I:\Projets\AES\AES\AES\SendTo.cpp
; File C:\Program Files (x86)\Microsoft Visual Studio\2019\Enterprise\VC\Tools\MSVC\14.23.28105\atlmfc\include\afxwin1.inl
; File I:\Projets\AES\AES\AES\SendTo.cpp
; File C:\Program Files (x86)\Microsoft Visual Studio\2019\Enterprise\VC\Tools\MSVC\14.23.28105\atlmfc\include\atlsimpstr.h
; File I:\Projets\AES\AES\AES\SendTo.cpp
; File C:\Program Files (x86)\Microsoft Visual Studio\2019\Enterprise\VC\Tools\MSVC\14.23.28105\atlmfc\include\atlsimpstr.h
; File I:\Projets\AES\AES\AES\SendTo.cpp
; File C:\Program Files (x86)\Microsoft Visual Studio\2019\Enterprise\VC\Tools\MSVC\14.23.28105\atlmfc\include\atlsimpstr.h
; File I:\Projets\AES\AES\AES\SendTo.cpp
; File C:\Program Files (x86)\Microsoft Visual Studio\2019\Enterprise\VC\Tools\MSVC\14.23.28105\atlmfc\include\atlsimpstr.h
; File I:\Projets\AES\AES\AES\SendTo.cpp
; File C:\Program Files (x86)\Microsoft Visual Studio\2019\Enterprise\VC\Tools\MSVC\14.23.28105\atlmfc\include\atlsimpstr.h
; File I:\Projets\AES\AES\AES\SendTo.cpp
; File C:\Program Files (x86)\Microsoft Visual Studio\2019\Enterprise\VC\Tools\MSVC\14.23.28105\atlmfc\include\atlsimpstr.h
; File C:\Program Files (x86)\Microsoft Visual Studio\2019\Enterprise\VC\Tools\MSVC\14.23.28105\atlmfc\include\cstringt.h
; File I:\Projets\AES\AES\AES\SendTo.cpp
; File C:\Program Files (x86)\Microsoft Visual Studio\2019\Enterprise\VC\Tools\MSVC\14.23.28105\atlmfc\include\atlsimpstr.h
; File I:\Projets\AES\AES\AES\SendTo.cpp
; File C:\Program Files (x86)\Microsoft Visual Studio\2019\Enterprise\VC\Tools\MSVC\14.23.28105\atlmfc\include\atlsimpstr.h
; File I:\Projets\AES\AES\AES\SendTo.cpp
; File C:\Program Files (x86)\Microsoft Visual Studio\2019\Enterprise\VC\Tools\MSVC\14.23.28105\atlmfc\include\afxwin1.inl
; File I:\Projets\AES\AES\AES\SendTo.cpp
; File C:\Program Files (x86)\Microsoft Visual Studio\2019\Enterprise\VC\Tools\MSVC\14.23.28105\atlmfc\include\atlsimpstr.h
; File I:\Projets\AES\AES\AES\SendTo.cpp
; File C:\Program Files (x86)\Microsoft Visual Studio\2019\Enterprise\VC\Tools\MSVC\14.23.28105\atlmfc\include\atlsimpstr.h
; File I:\Projets\AES\AES\AES\SendTo.cpp
; File C:\Program Files (x86)\Microsoft Visual Studio\2019\Enterprise\VC\Tools\MSVC\14.23.28105\atlmfc\include\atlsimpstr.h
; File I:\Projets\AES\AES\AES\SendTo.cpp
; File C:\Program Files (x86)\Microsoft Visual Studio\2019\Enterprise\VC\Tools\MSVC\14.23.28105\atlmfc\include\atlsimpstr.h
; File I:\Projets\AES\AES\AES\SendTo.cpp
; File C:\Program Files (x86)\Microsoft Visual Studio\2019\Enterprise\VC\Tools\MSVC\14.23.28105\atlmfc\include\atlsimpstr.h
; File I:\Projets\AES\AES\AES\SendTo.cpp
; File C:\Program Files (x86)\Microsoft Visual Studio\2019\Enterprise\VC\Tools\MSVC\14.23.28105\atlmfc\include\atlsimpstr.h
; File I:\Projets\AES\AES\AES\SendTo.cpp
; File C:\Program Files (x86)\Microsoft Visual Studio\2019\Enterprise\VC\Tools\MSVC\14.23.28105\atlmfc\include\atlsimpstr.h
; File I:\Projets\AES\AES\AES\SendTo.cpp
; File C:\Program Files (x86)\Microsoft Visual Studio\2019\Enterprise\VC\Tools\MSVC\14.23.28105\atlmfc\include\atlsimpstr.h
; File I:\Projets\AES\AES\AES\SendTo.cpp
; File C:\Program Files (x86)\Microsoft Visual Studio\2019\Enterprise\VC\Tools\MSVC\14.23.28105\atlmfc\include\atlsimpstr.h
; File I:\Projets\AES\AES\AES\SendTo.cpp
; File C:\Program Files (x86)\Microsoft Visual Studio\2019\Enterprise\VC\Tools\MSVC\14.23.28105\atlmfc\include\atlsimpstr.h
; File I:\Projets\AES\AES\AES\SendTo.cpp
;	COMDAT ??0SendTo@@QAE@XZ
_TEXT	SEGMENT
$T28 = -596						; size = 4
$T27 = -592						; size = 4
$T22 = -588						; size = 4
_this$GSCopy$ = -584					; size = 4
_pData$1$ = -580					; size = 4
$T23 = -576						; size = 4
_pData$1$ = -572					; size = 4
_this$ = -572						; size = 4
$T1 = -568						; size = 4
$T21 = -568						; size = 4
$T17 = -568						; size = 4
$T26 = -564						; size = 4
$T18 = -564						; size = 4
$T11 = -564						; size = 4
tv1909 = -560						; size = 4
tv1907 = -560						; size = 4
tv1906 = -560						; size = 4
$T13 = -560						; size = 4
_this$ = -556						; size = 4
_this$ = -556						; size = 4
_this$ = -556						; size = 4
$T14 = -556						; size = 4
tv1886 = -552						; size = 4
tv1882 = -552						; size = 4
tv1878 = -552						; size = 4
$T12 = -552						; size = 4
$T24 = -548						; size = 4
$T16 = -548						; size = 4
$T7 = -548						; size = 4
_Local_1$ = -544					; size = 4
_Local$ = -540						; size = 4
_buffer$31 = -536					; size = 520
__$ArrayPad$ = -16					; size = 4
__$EHRec$ = -12						; size = 12
??0SendTo@@QAE@XZ PROC					; SendTo::SendTo, COMDAT
; _this$ = ecx

; 22   : {

	push	ebp
	mov	ebp, esp
	push	-1
	push	__ehhandler$??0SendTo@@QAE@XZ
	mov	eax, DWORD PTR fs:0
	push	eax
	sub	esp, 584				; 00000248H
	mov	eax, DWORD PTR ___security_cookie
	xor	eax, ebp
	mov	DWORD PTR __$ArrayPad$[ebp], eax
	push	ebx
	push	esi
	push	edi
	push	eax
	lea	eax, DWORD PTR __$EHRec$[ebp]
	mov	DWORD PTR fs:0, eax
	mov	ebx, ecx
	mov	DWORD PTR _this$[ebp], ebx
	mov	DWORD PTR _this$GSCopy$[ebp], ebx
	mov	DWORD PTR $T1[ebp], 0
; File C:\Program Files (x86)\Microsoft Visual Studio\2019\Enterprise\VC\Tools\MSVC\14.23.28105\atlmfc\include\afxstr.h

; 52   : 		return( AfxGetStringManager() );

	call	?AfxGetStringManager@@YGPAUIAtlStringMgr@ATL@@XZ ; AfxGetStringManager
	mov	ecx, eax
; File C:\Program Files (x86)\Microsoft Visual Studio\2019\Enterprise\VC\Tools\MSVC\14.23.28105\atlmfc\include\atlsimpstr.h

; 205  : 		ATLENSURE( pStringMgr != NULL );

	test	ecx, ecx
	je	$LN514@SendTo

; 206  : 		CStringData* pData = pStringMgr->GetNilString();

	mov	eax, DWORD PTR [ecx]
	call	DWORD PTR [eax+12]

; 59   : 		return (this+1);

	add	eax, 16					; 00000010H

; 780  : 		m_pszData = static_cast< PXSTR >( pData->data() );

	mov	DWORD PTR [ebx], eax
; File I:\Projets\AES\AES\AES\SendTo.cpp

; 22   : {

	mov	DWORD PTR __$EHRec$[ebp+8], 0
; File C:\Program Files (x86)\Microsoft Visual Studio\2019\Enterprise\VC\Tools\MSVC\14.23.28105\atlmfc\include\afxstr.h

; 52   : 		return( AfxGetStringManager() );

	call	?AfxGetStringManager@@YGPAUIAtlStringMgr@ATL@@XZ ; AfxGetStringManager
	mov	ecx, eax
; File C:\Program Files (x86)\Microsoft Visual Studio\2019\Enterprise\VC\Tools\MSVC\14.23.28105\atlmfc\include\atlsimpstr.h

; 205  : 		ATLENSURE( pStringMgr != NULL );

	test	ecx, ecx
	je	$LN514@SendTo

; 206  : 		CStringData* pData = pStringMgr->GetNilString();

	mov	eax, DWORD PTR [ecx]
	call	DWORD PTR [eax+12]

; 59   : 		return (this+1);

	add	eax, 16					; 00000010H

; 780  : 		m_pszData = static_cast< PXSTR >( pData->data() );

	mov	DWORD PTR [ebx+4], eax
; File I:\Projets\AES\AES\AES\SendTo.cpp

; 22   : {

	mov	BYTE PTR __$EHRec$[ebp+8], 1
; File C:\Program Files (x86)\Microsoft Visual Studio\2019\Enterprise\VC\Tools\MSVC\14.23.28105\atlmfc\include\afxstr.h

; 52   : 		return( AfxGetStringManager() );

	call	?AfxGetStringManager@@YGPAUIAtlStringMgr@ATL@@XZ ; AfxGetStringManager
	mov	ecx, eax
; File C:\Program Files (x86)\Microsoft Visual Studio\2019\Enterprise\VC\Tools\MSVC\14.23.28105\atlmfc\include\atlsimpstr.h

; 205  : 		ATLENSURE( pStringMgr != NULL );

	test	ecx, ecx
	je	$LN514@SendTo

; 206  : 		CStringData* pData = pStringMgr->GetNilString();

	mov	eax, DWORD PTR [ecx]
	call	DWORD PTR [eax+12]

; 59   : 		return (this+1);

	add	eax, 16					; 00000010H

; 780  : 		m_pszData = static_cast< PXSTR >( pData->data() );

	mov	DWORD PTR [ebx+8], eax
; File I:\Projets\AES\AES\AES\SendTo.cpp

; 22   : {

	mov	BYTE PTR __$EHRec$[ebp+8], 2
; File C:\Program Files (x86)\Microsoft Visual Studio\2019\Enterprise\VC\Tools\MSVC\14.23.28105\atlmfc\include\afxstr.h

; 52   : 		return( AfxGetStringManager() );

	call	?AfxGetStringManager@@YGPAUIAtlStringMgr@ATL@@XZ ; AfxGetStringManager
	mov	ecx, eax
; File C:\Program Files (x86)\Microsoft Visual Studio\2019\Enterprise\VC\Tools\MSVC\14.23.28105\atlmfc\include\atlsimpstr.h

; 205  : 		ATLENSURE( pStringMgr != NULL );

	test	ecx, ecx
	je	$LN514@SendTo

; 206  : 		CStringData* pData = pStringMgr->GetNilString();

	mov	eax, DWORD PTR [ecx]
	call	DWORD PTR [eax+12]

; 59   : 		return (this+1);

	add	eax, 16					; 00000010H

; 780  : 		m_pszData = static_cast< PXSTR >( pData->data() );

	mov	DWORD PTR [ebx+12], eax
; File I:\Projets\AES\AES\AES\SendTo.cpp

; 22   : {

	mov	BYTE PTR __$EHRec$[ebp+8], 3
; File C:\Program Files (x86)\Microsoft Visual Studio\2019\Enterprise\VC\Tools\MSVC\14.23.28105\atlmfc\include\afxstr.h

; 52   : 		return( AfxGetStringManager() );

	call	?AfxGetStringManager@@YGPAUIAtlStringMgr@ATL@@XZ ; AfxGetStringManager
	mov	ecx, eax
; File C:\Program Files (x86)\Microsoft Visual Studio\2019\Enterprise\VC\Tools\MSVC\14.23.28105\atlmfc\include\atlsimpstr.h

; 205  : 		ATLENSURE( pStringMgr != NULL );

	test	ecx, ecx
	je	$LN514@SendTo

; 206  : 		CStringData* pData = pStringMgr->GetNilString();

	mov	eax, DWORD PTR [ecx]
	call	DWORD PTR [eax+12]

; 59   : 		return (this+1);

	add	eax, 16					; 00000010H

; 780  : 		m_pszData = static_cast< PXSTR >( pData->data() );

	mov	DWORD PTR [ebx+16], eax
; File I:\Projets\AES\AES\AES\SendTo.cpp

; 22   : {

	mov	BYTE PTR __$EHRec$[ebp+8], 4
; File C:\Program Files (x86)\Microsoft Visual Studio\2019\Enterprise\VC\Tools\MSVC\14.23.28105\atlmfc\include\afxstr.h

; 52   : 		return( AfxGetStringManager() );

	call	?AfxGetStringManager@@YGPAUIAtlStringMgr@ATL@@XZ ; AfxGetStringManager
	mov	ecx, eax
; File C:\Program Files (x86)\Microsoft Visual Studio\2019\Enterprise\VC\Tools\MSVC\14.23.28105\atlmfc\include\atlsimpstr.h

; 205  : 		ATLENSURE( pStringMgr != NULL );

	test	ecx, ecx
	je	$LN514@SendTo

; 206  : 		CStringData* pData = pStringMgr->GetNilString();

	mov	eax, DWORD PTR [ecx]
	call	DWORD PTR [eax+12]

; 59   : 		return (this+1);

	add	eax, 16					; 00000010H

; 780  : 		m_pszData = static_cast< PXSTR >( pData->data() );

	mov	DWORD PTR [ebx+20], eax
; File I:\Projets\AES\AES\AES\SendTo.cpp

; 22   : {

	mov	BYTE PTR __$EHRec$[ebp+8], 5
; File C:\Program Files (x86)\Microsoft Visual Studio\2019\Enterprise\VC\Tools\MSVC\14.23.28105\atlmfc\include\afxstr.h

; 52   : 		return( AfxGetStringManager() );

	call	?AfxGetStringManager@@YGPAUIAtlStringMgr@ATL@@XZ ; AfxGetStringManager
	mov	ecx, eax
; File C:\Program Files (x86)\Microsoft Visual Studio\2019\Enterprise\VC\Tools\MSVC\14.23.28105\atlmfc\include\atlsimpstr.h

; 205  : 		ATLENSURE( pStringMgr != NULL );

	test	ecx, ecx
	je	$LN514@SendTo

; 206  : 		CStringData* pData = pStringMgr->GetNilString();

	mov	eax, DWORD PTR [ecx]
	call	DWORD PTR [eax+12]

; 59   : 		return (this+1);

	add	eax, 16					; 00000010H

; 780  : 		m_pszData = static_cast< PXSTR >( pData->data() );

	mov	DWORD PTR [ebx+24], eax
; File I:\Projets\AES\AES\AES\SendTo.cpp

; 22   : {

	mov	BYTE PTR __$EHRec$[ebp+8], 6
; File C:\Program Files (x86)\Microsoft Visual Studio\2019\Enterprise\VC\Tools\MSVC\14.23.28105\atlmfc\include\afxstr.h

; 52   : 		return( AfxGetStringManager() );

	call	?AfxGetStringManager@@YGPAUIAtlStringMgr@ATL@@XZ ; AfxGetStringManager
	mov	ecx, eax
; File C:\Program Files (x86)\Microsoft Visual Studio\2019\Enterprise\VC\Tools\MSVC\14.23.28105\atlmfc\include\atlsimpstr.h

; 205  : 		ATLENSURE( pStringMgr != NULL );

	test	ecx, ecx
	je	$LN514@SendTo

; 206  : 		CStringData* pData = pStringMgr->GetNilString();

	mov	eax, DWORD PTR [ecx]
	call	DWORD PTR [eax+12]

; 59   : 		return (this+1);

	add	eax, 16					; 00000010H

; 780  : 		m_pszData = static_cast< PXSTR >( pData->data() );

	mov	DWORD PTR [ebx+28], eax
; File I:\Projets\AES\AES\AES\SendTo.cpp

; 22   : {

	mov	BYTE PTR __$EHRec$[ebp+8], 7
; File C:\Program Files (x86)\Microsoft Visual Studio\2019\Enterprise\VC\Tools\MSVC\14.23.28105\atlmfc\include\afxstr.h

; 52   : 		return( AfxGetStringManager() );

	call	?AfxGetStringManager@@YGPAUIAtlStringMgr@ATL@@XZ ; AfxGetStringManager
	mov	ecx, eax
; File C:\Program Files (x86)\Microsoft Visual Studio\2019\Enterprise\VC\Tools\MSVC\14.23.28105\atlmfc\include\atlsimpstr.h

; 205  : 		ATLENSURE( pStringMgr != NULL );

	test	ecx, ecx
	je	$LN514@SendTo

; 206  : 		CStringData* pData = pStringMgr->GetNilString();

	mov	eax, DWORD PTR [ecx]
	call	DWORD PTR [eax+12]
	mov	DWORD PTR _pData$1$[ebp], eax

; 59   : 		return (this+1);

	lea	ecx, DWORD PTR [eax+16]

; 780  : 		m_pszData = static_cast< PXSTR >( pData->data() );

	mov	DWORD PTR _Local$[ebp], ecx
; File I:\Projets\AES\AES\AES\SendTo.cpp

; 23   : 	CString Local,Local_1;

	mov	BYTE PTR __$EHRec$[ebp+8], 8
; File C:\Program Files (x86)\Microsoft Visual Studio\2019\Enterprise\VC\Tools\MSVC\14.23.28105\atlmfc\include\afxstr.h

; 52   : 		return( AfxGetStringManager() );

	call	?AfxGetStringManager@@YGPAUIAtlStringMgr@ATL@@XZ ; AfxGetStringManager
	mov	ecx, eax
; File C:\Program Files (x86)\Microsoft Visual Studio\2019\Enterprise\VC\Tools\MSVC\14.23.28105\atlmfc\include\atlsimpstr.h

; 205  : 		ATLENSURE( pStringMgr != NULL );

	test	ecx, ecx
	je	$LN520@SendTo

; 206  : 		CStringData* pData = pStringMgr->GetNilString();

	mov	eax, DWORD PTR [ecx]
	call	DWORD PTR [eax+12]
	mov	DWORD PTR _pData$1$[ebp], eax

; 59   : 		return (this+1);

	lea	ecx, DWORD PTR [eax+16]

; 780  : 		m_pszData = static_cast< PXSTR >( pData->data() );

	mov	DWORD PTR _Local_1$[ebp], ecx

; 602  : 		SetString( pszSrc, StringLength( pszSrc ) );

	push	1
	push	OFFSET ??_C@_13FPGAJAPJ@?$AA?2@
	lea	ecx, DWORD PTR [ebx+20]
; File I:\Projets\AES\AES\AES\SendTo.cpp

; 23   : 	CString Local,Local_1;

	mov	BYTE PTR __$EHRec$[ebp+8], 9
; File C:\Program Files (x86)\Microsoft Visual Studio\2019\Enterprise\VC\Tools\MSVC\14.23.28105\atlmfc\include\atlsimpstr.h

; 602  : 		SetString( pszSrc, StringLength( pszSrc ) );

	call	?SetString@?$CSimpleStringT@_W$0A@@ATL@@QAEXPB_WH@Z ; ATL::CSimpleStringT<wchar_t,0>::SetString
; File I:\Projets\AES\AES\AES\SendTo.cpp

; 16   : 	GetModuleFileName(0, buffer, MAX_PATH);

	push	260					; 00000104H
	lea	eax, DWORD PTR _buffer$31[ebp]
	push	eax
	push	0
	call	DWORD PTR __imp__GetModuleFileNameW@12
; File C:\Program Files (x86)\Microsoft Visual Studio\2019\Enterprise\VC\Tools\MSVC\14.23.28105\atlmfc\include\atlsimpstr.h

; 734  : 		return( int( wcslen( psz ) ) );

	lea	ecx, DWORD PTR _buffer$31[ebp]
	lea	edx, DWORD PTR [ecx+2]
$LL515@SendTo:
	mov	ax, WORD PTR [ecx]
	add	ecx, 2
	test	ax, ax
	jne	SHORT $LL515@SendTo
	sub	ecx, edx

; 602  : 		SetString( pszSrc, StringLength( pszSrc ) );

	lea	eax, DWORD PTR _buffer$31[ebp]

; 734  : 		return( int( wcslen( psz ) ) );

	sar	ecx, 1

; 602  : 		SetString( pszSrc, StringLength( pszSrc ) );

	push	ecx
	push	eax
	mov	ecx, ebx
	call	?SetString@?$CSimpleStringT@_W$0A@@ATL@@QAEXPB_WH@Z ; ATL::CSimpleStringT<wchar_t,0>::SetString
	push	4
	push	OFFSET ??_C@_19BEHMAPDG@?$AA?4?$AAl?$AAn?$AAk@
	lea	ecx, DWORD PTR [ebx+24]
	call	?SetString@?$CSimpleStringT@_W$0A@@ATL@@QAEXPB_WH@Z ; ATL::CSimpleStringT<wchar_t,0>::SetString
; File C:\Program Files (x86)\Microsoft Visual Studio\2019\Enterprise\VC\Tools\MSVC\14.23.28105\atlmfc\include\afxwin1.inl

; 29   : 	{ ASSERT(afxCurrentAppName != NULL); return afxCurrentAppName; }

	call	?AfxGetModuleState@@YGPAVAFX_MODULE_STATE@@XZ ; AfxGetModuleState
	mov	edx, DWORD PTR [eax+16]
; File C:\Program Files (x86)\Microsoft Visual Studio\2019\Enterprise\VC\Tools\MSVC\14.23.28105\atlmfc\include\atlsimpstr.h

; 730  : 		if( psz == NULL )

	test	edx, edx
	jne	SHORT $LN252@SendTo

; 731  : 		{
; 732  : 			return( 0 );

	xor	ecx, ecx
	jmp	SHORT $LN251@SendTo
$LN252@SendTo:

; 734  : 		return( int( wcslen( psz ) ) );

	mov	ecx, edx
	lea	esi, DWORD PTR [ecx+2]
$LL516@SendTo:
	mov	ax, WORD PTR [ecx]
	add	ecx, 2
	test	ax, ax
	jne	SHORT $LL516@SendTo
	sub	ecx, esi
	sar	ecx, 1
$LN251@SendTo:

; 602  : 		SetString( pszSrc, StringLength( pszSrc ) );

	push	ecx
	push	edx
	lea	ecx, DWORD PTR [ebx+8]
	call	?SetString@?$CSimpleStringT@_W$0A@@ATL@@QAEXPB_WH@Z ; ATL::CSimpleStringT<wchar_t,0>::SetString
; File I:\Projets\AES\AES\AES\SendTo.cpp

; 27   : 	Chemin_complet = Current_Dir() + Back_slash;

	mov	BYTE PTR __$EHRec$[ebp+8], 10		; 0000000aH
	mov	DWORD PTR $T7[ebp], 0
; File C:\Program Files (x86)\Microsoft Visual Studio\2019\Enterprise\VC\Tools\MSVC\14.23.28105\atlmfc\include\afxstr.h

; 52   : 		return( AfxGetStringManager() );

	call	?AfxGetStringManager@@YGPAUIAtlStringMgr@ATL@@XZ ; AfxGetStringManager
	mov	ecx, eax
; File C:\Program Files (x86)\Microsoft Visual Studio\2019\Enterprise\VC\Tools\MSVC\14.23.28105\atlmfc\include\atlsimpstr.h

; 205  : 		ATLENSURE( pStringMgr != NULL );

	test	ecx, ecx
	je	$LN521@SendTo

; 206  : 		CStringData* pData = pStringMgr->GetNilString();

	mov	eax, DWORD PTR [ecx]
	call	DWORD PTR [eax+12]

; 808  : 		int nShared = 1-pOldData->nRefs;  // nShared < 0 means true, >= 0 means false

	mov	ecx, 1
; File I:\Projets\AES\AES\AES\SendTo.cpp

; 56   : 	return (Chaine);

	mov	DWORD PTR $T1[ebp], 1
; File C:\Program Files (x86)\Microsoft Visual Studio\2019\Enterprise\VC\Tools\MSVC\14.23.28105\atlmfc\include\atlsimpstr.h

; 808  : 		int nShared = 1-pOldData->nRefs;  // nShared < 0 means true, >= 0 means false

	sub	ecx, DWORD PTR [eax+12]

; 59   : 		return (this+1);

	lea	esi, DWORD PTR [eax+16]

; 809  : 		int nTooShort = pOldData->nAllocLength-nLength;  // nTooShort < 0 means true, >= 0 means false

	mov	eax, DWORD PTR [esi-8]
	sub	eax, 260				; 00000104H

; 780  : 		m_pszData = static_cast< PXSTR >( pData->data() );

	mov	DWORD PTR $T7[ebp], esi

; 810  : 		if( (nShared|nTooShort) < 0 )  // If either sign bit is set (i.e. either is less than zero), we need to copy data

	or	eax, ecx
	jge	SHORT $LN283@SendTo

; 811  : 		{
; 812  : 			PrepareWrite2( nLength );

	push	260					; 00000104H
	lea	ecx, DWORD PTR $T7[ebp]
	call	?PrepareWrite2@?$CSimpleStringT@_W$0A@@ATL@@AAEXH@Z ; ATL::CSimpleStringT<wchar_t,0>::PrepareWrite2
	mov	esi, DWORD PTR $T7[ebp]
$LN283@SendTo:
; File I:\Projets\AES\AES\AES\SendTo.cpp

; 54   : 	::GetCurrentDirectory(MAX_PATH, Chaine.GetBuffer(MAX_PATH));

	push	esi
	push	260					; 00000104H
	call	DWORD PTR __imp__GetCurrentDirectoryW@8
; File C:\Program Files (x86)\Microsoft Visual Studio\2019\Enterprise\VC\Tools\MSVC\14.23.28105\atlmfc\include\atlsimpstr.h

; 754  : 		return( int( wcsnlen( psz, sizeInXChar ) ) );

	push	DWORD PTR [esi-8]
	push	esi
	call	_wcsnlen
	add	esp, 8

; 871  : 		if( nLength < 0 || nLength > GetData()->nAllocLength)

	test	eax, eax
	js	$LN298@SendTo
	cmp	eax, DWORD PTR [esi-8]
	jg	$LN298@SendTo

; 873  : 
; 874  : 		GetData()->nDataLength = nLength;

	mov	DWORD PTR [esi-12], eax

; 875  : 		m_pszData[nLength] = 0;

	xor	ecx, ecx
	mov	WORD PTR [esi+eax*2], cx
; File I:\Projets\AES\AES\AES\SendTo.cpp

; 27   : 	Chemin_complet = Current_Dir() + Back_slash;

	lea	eax, DWORD PTR [ebx+20]
	push	eax
	lea	eax, DWORD PTR $T7[ebp]
	push	eax
	lea	eax, DWORD PTR $T11[ebp]
	push	eax
	call	??HATL@@YA?AV?$CStringT@_WV?$StrTraitMFC@_WV?$ChTraitsCRT@_W@ATL@@@@@0@ABV10@0@Z ; ATL::operator+
	add	esp, 12					; 0000000cH
	push	eax
	lea	ecx, DWORD PTR [ebx+4]
	mov	BYTE PTR __$EHRec$[ebp+8], 11		; 0000000bH
	call	??4?$CStringT@_WV?$StrTraitMFC@_WV?$ChTraitsCRT@_W@ATL@@@@@ATL@@QAEAAV01@ABV01@@Z ; ATL::CStringT<wchar_t,StrTraitMFC<wchar_t,ATL::ChTraitsCRT<wchar_t> > >::operator=
	mov	BYTE PTR __$EHRec$[ebp+8], 10		; 0000000aH
; File C:\Program Files (x86)\Microsoft Visual Studio\2019\Enterprise\VC\Tools\MSVC\14.23.28105\atlmfc\include\atlsimpstr.h

; 88   : 		if( _InterlockedDecrement( &nRefs ) <= 0 )

	or	edi, -1

; 800  : 		return( reinterpret_cast< CStringData* >( m_pszData )-1 );

	mov	edx, DWORD PTR $T11[ebp]

; 88   : 		if( _InterlockedDecrement( &nRefs ) <= 0 )

	mov	eax, edi

; 800  : 		return( reinterpret_cast< CStringData* >( m_pszData )-1 );

	add	edx, -16				; fffffff0H

; 88   : 		if( _InterlockedDecrement( &nRefs ) <= 0 )

	lock	 xadd	 DWORD PTR [edx+12], eax
	dec	eax
	test	eax, eax
	jg	SHORT $LN312@SendTo

; 89   : 		{
; 90   : 			pStringMgr->Free( this );

	mov	ecx, DWORD PTR [edx]
	push	edx
	mov	eax, DWORD PTR [ecx]
	call	DWORD PTR [eax+4]
$LN312@SendTo:
; File I:\Projets\AES\AES\AES\SendTo.cpp

; 27   : 	Chemin_complet = Current_Dir() + Back_slash;

	mov	BYTE PTR __$EHRec$[ebp+8], 9
; File C:\Program Files (x86)\Microsoft Visual Studio\2019\Enterprise\VC\Tools\MSVC\14.23.28105\atlmfc\include\atlsimpstr.h

; 800  : 		return( reinterpret_cast< CStringData* >( m_pszData )-1 );

	add	esi, -16				; fffffff0H

; 88   : 		if( _InterlockedDecrement( &nRefs ) <= 0 )

	mov	eax, edi
	lock	 xadd	 DWORD PTR [esi+12], eax
	dec	eax
	test	eax, eax
	jg	SHORT $LN321@SendTo

; 89   : 		{
; 90   : 			pStringMgr->Free( this );

	mov	ecx, DWORD PTR [esi]
	push	esi
	mov	eax, DWORD PTR [ecx]
	call	DWORD PTR [eax+4]
$LN321@SendTo:
; File I:\Projets\AES\AES\AES\SendTo.cpp

; 28   : 	nom_sortie_complet = _T("\"") + Sepcial_Folder(CSIDL_SENDTO) + Back_slash + AfxGetAppName() + Ext_lnk + _T("\"");

	push	ecx
	lea	eax, DWORD PTR $T12[ebp]
	push	eax
	call	?Sepcial_Folder@SendTo@@AAE?AV?$CStringT@_WV?$StrTraitMFC@_WV?$ChTraitsCRT@_W@ATL@@@@@ATL@@H@Z ; SendTo::Sepcial_Folder
	push	eax
	lea	eax, DWORD PTR $T13[ebp]
	mov	BYTE PTR __$EHRec$[ebp+8], 12		; 0000000cH
	push	OFFSET ??_C@_13NEIAEHFG@?$AA?$CC@
	push	eax
	call	??HATL@@YA?AV?$CStringT@_WV?$StrTraitMFC@_WV?$ChTraitsCRT@_W@ATL@@@@@0@PB_WABV10@@Z ; ATL::operator+
	lea	ecx, DWORD PTR [ebx+20]
	mov	BYTE PTR __$EHRec$[ebp+8], 13		; 0000000dH
	push	ecx
	push	eax
	lea	eax, DWORD PTR $T14[ebp]
	push	eax
	call	??HATL@@YA?AV?$CStringT@_WV?$StrTraitMFC@_WV?$ChTraitsCRT@_W@ATL@@@@@0@ABV10@0@Z ; ATL::operator+
	add	esp, 24					; 00000018H
	mov	esi, eax
	mov	BYTE PTR __$EHRec$[ebp+8], 14		; 0000000eH
; File C:\Program Files (x86)\Microsoft Visual Studio\2019\Enterprise\VC\Tools\MSVC\14.23.28105\atlmfc\include\afxwin1.inl

; 29   : 	{ ASSERT(afxCurrentAppName != NULL); return afxCurrentAppName; }

	call	?AfxGetModuleState@@YGPAVAFX_MODULE_STATE@@XZ ; AfxGetModuleState
	mov	ecx, DWORD PTR [eax+16]
; File I:\Projets\AES\AES\AES\SendTo.cpp

; 28   : 	nom_sortie_complet = _T("\"") + Sepcial_Folder(CSIDL_SENDTO) + Back_slash + AfxGetAppName() + Ext_lnk + _T("\"");

	lea	eax, DWORD PTR $T16[ebp]
	push	ecx
	push	esi
	push	eax
	call	??HATL@@YA?AV?$CStringT@_WV?$StrTraitMFC@_WV?$ChTraitsCRT@_W@ATL@@@@@0@ABV10@PB_W@Z ; ATL::operator+
	lea	ecx, DWORD PTR [ebx+24]
	mov	BYTE PTR __$EHRec$[ebp+8], 15		; 0000000fH
	push	ecx
	push	eax
	lea	eax, DWORD PTR $T17[ebp]
	push	eax
	call	??HATL@@YA?AV?$CStringT@_WV?$StrTraitMFC@_WV?$ChTraitsCRT@_W@ATL@@@@@0@ABV10@0@Z ; ATL::operator+
	push	OFFSET ??_C@_13NEIAEHFG@?$AA?$CC@
	push	eax
	lea	eax, DWORD PTR $T18[ebp]
	mov	BYTE PTR __$EHRec$[ebp+8], 16		; 00000010H
	push	eax
	call	??HATL@@YA?AV?$CStringT@_WV?$StrTraitMFC@_WV?$ChTraitsCRT@_W@ATL@@@@@0@ABV10@PB_W@Z ; ATL::operator+
	add	esp, 36					; 00000024H
	push	eax
	lea	ecx, DWORD PTR [ebx+12]
	mov	BYTE PTR __$EHRec$[ebp+8], 17		; 00000011H
	call	??4?$CStringT@_WV?$StrTraitMFC@_WV?$ChTraitsCRT@_W@ATL@@@@@ATL@@QAEAAV01@ABV01@@Z ; ATL::CStringT<wchar_t,StrTraitMFC<wchar_t,ATL::ChTraitsCRT<wchar_t> > >::operator=
	mov	BYTE PTR __$EHRec$[ebp+8], 16		; 00000010H
; File C:\Program Files (x86)\Microsoft Visual Studio\2019\Enterprise\VC\Tools\MSVC\14.23.28105\atlmfc\include\atlsimpstr.h

; 88   : 		if( _InterlockedDecrement( &nRefs ) <= 0 )

	mov	eax, edi

; 800  : 		return( reinterpret_cast< CStringData* >( m_pszData )-1 );

	mov	edx, DWORD PTR $T18[ebp]
	add	edx, -16				; fffffff0H

; 88   : 		if( _InterlockedDecrement( &nRefs ) <= 0 )

	lock	 xadd	 DWORD PTR [edx+12], eax
	dec	eax
	test	eax, eax
	jg	SHORT $LN332@SendTo

; 89   : 		{
; 90   : 			pStringMgr->Free( this );

	mov	ecx, DWORD PTR [edx]
	push	edx
	mov	eax, DWORD PTR [ecx]
	call	DWORD PTR [eax+4]
$LN332@SendTo:
; File I:\Projets\AES\AES\AES\SendTo.cpp

; 28   : 	nom_sortie_complet = _T("\"") + Sepcial_Folder(CSIDL_SENDTO) + Back_slash + AfxGetAppName() + Ext_lnk + _T("\"");

	mov	BYTE PTR __$EHRec$[ebp+8], 15		; 0000000fH
; File C:\Program Files (x86)\Microsoft Visual Studio\2019\Enterprise\VC\Tools\MSVC\14.23.28105\atlmfc\include\atlsimpstr.h

; 88   : 		if( _InterlockedDecrement( &nRefs ) <= 0 )

	mov	eax, edi

; 800  : 		return( reinterpret_cast< CStringData* >( m_pszData )-1 );

	mov	edx, DWORD PTR $T17[ebp]
	add	edx, -16				; fffffff0H

; 88   : 		if( _InterlockedDecrement( &nRefs ) <= 0 )

	lock	 xadd	 DWORD PTR [edx+12], eax
	dec	eax
	test	eax, eax
	jg	SHORT $LN341@SendTo

; 89   : 		{
; 90   : 			pStringMgr->Free( this );

	mov	ecx, DWORD PTR [edx]
	push	edx
	mov	eax, DWORD PTR [ecx]
	call	DWORD PTR [eax+4]
$LN341@SendTo:
; File I:\Projets\AES\AES\AES\SendTo.cpp

; 28   : 	nom_sortie_complet = _T("\"") + Sepcial_Folder(CSIDL_SENDTO) + Back_slash + AfxGetAppName() + Ext_lnk + _T("\"");

	mov	BYTE PTR __$EHRec$[ebp+8], 14		; 0000000eH
; File C:\Program Files (x86)\Microsoft Visual Studio\2019\Enterprise\VC\Tools\MSVC\14.23.28105\atlmfc\include\atlsimpstr.h

; 88   : 		if( _InterlockedDecrement( &nRefs ) <= 0 )

	mov	eax, edi

; 800  : 		return( reinterpret_cast< CStringData* >( m_pszData )-1 );

	mov	edx, DWORD PTR $T16[ebp]
	add	edx, -16				; fffffff0H

; 88   : 		if( _InterlockedDecrement( &nRefs ) <= 0 )

	lock	 xadd	 DWORD PTR [edx+12], eax
	dec	eax
	test	eax, eax
	jg	SHORT $LN350@SendTo

; 89   : 		{
; 90   : 			pStringMgr->Free( this );

	mov	ecx, DWORD PTR [edx]
	push	edx
	mov	eax, DWORD PTR [ecx]
	call	DWORD PTR [eax+4]
$LN350@SendTo:
; File I:\Projets\AES\AES\AES\SendTo.cpp

; 28   : 	nom_sortie_complet = _T("\"") + Sepcial_Folder(CSIDL_SENDTO) + Back_slash + AfxGetAppName() + Ext_lnk + _T("\"");

	mov	BYTE PTR __$EHRec$[ebp+8], 13		; 0000000dH
; File C:\Program Files (x86)\Microsoft Visual Studio\2019\Enterprise\VC\Tools\MSVC\14.23.28105\atlmfc\include\atlsimpstr.h

; 88   : 		if( _InterlockedDecrement( &nRefs ) <= 0 )

	mov	eax, edi

; 800  : 		return( reinterpret_cast< CStringData* >( m_pszData )-1 );

	mov	edx, DWORD PTR $T14[ebp]
	add	edx, -16				; fffffff0H

; 88   : 		if( _InterlockedDecrement( &nRefs ) <= 0 )

	lock	 xadd	 DWORD PTR [edx+12], eax
	dec	eax
	test	eax, eax
	jg	SHORT $LN359@SendTo

; 89   : 		{
; 90   : 			pStringMgr->Free( this );

	mov	ecx, DWORD PTR [edx]
	push	edx
	mov	eax, DWORD PTR [ecx]
	call	DWORD PTR [eax+4]
$LN359@SendTo:
; File I:\Projets\AES\AES\AES\SendTo.cpp

; 28   : 	nom_sortie_complet = _T("\"") + Sepcial_Folder(CSIDL_SENDTO) + Back_slash + AfxGetAppName() + Ext_lnk + _T("\"");

	mov	BYTE PTR __$EHRec$[ebp+8], 12		; 0000000cH
; File C:\Program Files (x86)\Microsoft Visual Studio\2019\Enterprise\VC\Tools\MSVC\14.23.28105\atlmfc\include\atlsimpstr.h

; 88   : 		if( _InterlockedDecrement( &nRefs ) <= 0 )

	mov	eax, edi

; 800  : 		return( reinterpret_cast< CStringData* >( m_pszData )-1 );

	mov	edx, DWORD PTR $T13[ebp]
	add	edx, -16				; fffffff0H

; 88   : 		if( _InterlockedDecrement( &nRefs ) <= 0 )

	lock	 xadd	 DWORD PTR [edx+12], eax
	dec	eax
	test	eax, eax
	jg	SHORT $LN368@SendTo

; 89   : 		{
; 90   : 			pStringMgr->Free( this );

	mov	ecx, DWORD PTR [edx]
	push	edx
	mov	eax, DWORD PTR [ecx]
	call	DWORD PTR [eax+4]
$LN368@SendTo:
; File I:\Projets\AES\AES\AES\SendTo.cpp

; 28   : 	nom_sortie_complet = _T("\"") + Sepcial_Folder(CSIDL_SENDTO) + Back_slash + AfxGetAppName() + Ext_lnk + _T("\"");

	mov	BYTE PTR __$EHRec$[ebp+8], 9
; File C:\Program Files (x86)\Microsoft Visual Studio\2019\Enterprise\VC\Tools\MSVC\14.23.28105\atlmfc\include\atlsimpstr.h

; 88   : 		if( _InterlockedDecrement( &nRefs ) <= 0 )

	mov	eax, edi

; 800  : 		return( reinterpret_cast< CStringData* >( m_pszData )-1 );

	mov	edx, DWORD PTR $T12[ebp]
	add	edx, -16				; fffffff0H

; 88   : 		if( _InterlockedDecrement( &nRefs ) <= 0 )

	lock	 xadd	 DWORD PTR [edx+12], eax
	dec	eax
	test	eax, eax
	jg	SHORT $LN377@SendTo

; 89   : 		{
; 90   : 			pStringMgr->Free( this );

	mov	ecx, DWORD PTR [edx]
	push	edx
	mov	eax, DWORD PTR [ecx]
	call	DWORD PTR [eax+4]
$LN377@SendTo:
; File C:\Program Files (x86)\Microsoft Visual Studio\2019\Enterprise\VC\Tools\MSVC\14.23.28105\atlmfc\include\cstringt.h

; 613  : 		return wcsrchr( psz, ch );

	push	92					; 0000005cH
	push	DWORD PTR [ebx]
	call	_wcsrchr

; 1811 : 		PCXSTR psz = StringTraits::StringFindCharRev( this->GetString(), ch );

	mov	ecx, eax

; 613  : 		return wcsrchr( psz, ch );

	add	esp, 8

; 1814 : 		return( (psz == NULL) ? -1 : int( psz - this->GetString() ) );

	test	ecx, ecx
	jne	SHORT $LN381@SendTo
	or	ecx, -1
	jmp	SHORT $LN382@SendTo
$LN381@SendTo:
	sub	ecx, DWORD PTR [ebx]
	sar	ecx, 1
$LN382@SendTo:
; File I:\Projets\AES\AES\AES\SendTo.cpp

; 29   : 	CreateShortCut(Nom_exécutable_complet, nom_du_Racoourcis, Sepcial_Folder(CSIDL_SENDTO) + Back_slash + AfxGetAppName() + Ext_lnk, nom_sortie_complet, Nom_exécutable_complet.Left(Nom_exécutable_complet.ReverseFind('\\')));

	push	ecx
	mov	eax, esp
	mov	DWORD PTR $T21[ebp], esp
	push	ecx
	push	eax
	mov	ecx, ebx
	call	?Left@?$CStringT@_WV?$StrTraitMFC@_WV?$ChTraitsCRT@_W@ATL@@@@@ATL@@QBE?AV12@H@Z ; ATL::CStringT<wchar_t,StrTraitMFC<wchar_t,ATL::ChTraitsCRT<wchar_t> > >::Left
	mov	BYTE PTR __$EHRec$[ebp+8], 18		; 00000012H
	push	ecx
	mov	DWORD PTR _this$[ebp], esp
; File C:\Program Files (x86)\Microsoft Visual Studio\2019\Enterprise\VC\Tools\MSVC\14.23.28105\atlmfc\include\atlsimpstr.h

; 800  : 		return( reinterpret_cast< CStringData* >( m_pszData )-1 );

	mov	eax, DWORD PTR [ebx+12]

; 882  : 		IAtlStringMgr* pNewStringMgr = pData->pStringMgr->Clone();

	mov	ecx, DWORD PTR [eax-16]

; 800  : 		return( reinterpret_cast< CStringData* >( m_pszData )-1 );

	lea	esi, DWORD PTR [eax-16]
	mov	DWORD PTR tv1909[ebp], eax
; File I:\Projets\AES\AES\AES\SendTo.cpp

; 29   : 	CreateShortCut(Nom_exécutable_complet, nom_du_Racoourcis, Sepcial_Folder(CSIDL_SENDTO) + Back_slash + AfxGetAppName() + Ext_lnk, nom_sortie_complet, Nom_exécutable_complet.Left(Nom_exécutable_complet.ReverseFind('\\')));

	mov	DWORD PTR $T22[ebp], esp
; File C:\Program Files (x86)\Microsoft Visual Studio\2019\Enterprise\VC\Tools\MSVC\14.23.28105\atlmfc\include\atlsimpstr.h

; 882  : 		IAtlStringMgr* pNewStringMgr = pData->pStringMgr->Clone();

	mov	eax, DWORD PTR [ecx]
	call	DWORD PTR [eax+16]

; 69   : 		return nRefs < 0;

	cmp	DWORD PTR [esi+12], 0

; 882  : 		IAtlStringMgr* pNewStringMgr = pData->pStringMgr->Clone();

	mov	edx, eax

; 69   : 		return nRefs < 0;

	lea	eax, DWORD PTR [esi+12]

; 883  : 		if( !pData->IsLocked() && (pNewStringMgr == pData->pStringMgr) )

	jl	SHORT $LN397@SendTo
	cmp	edx, DWORD PTR [esi]
	jne	SHORT $LN397@SendTo

; 65   : 		_InterlockedIncrement(&nRefs);

	lock	 inc	 DWORD PTR [eax]

; 887  : 		}

	jmp	SHORT $LN398@SendTo
$LN397@SendTo:

; 888  : 		else
; 889  : 		{
; 890  : 			pNewData = pNewStringMgr->Allocate( pData->nDataLength, sizeof( XCHAR ) );

	mov	eax, DWORD PTR [edx]
	lea	ecx, DWORD PTR [esi+4]
	push	2
	push	DWORD PTR [ecx]
	mov	DWORD PTR tv1886[ebp], ecx
	mov	ecx, edx
	call	DWORD PTR [eax]
	mov	esi, eax

; 891  : 			if( pNewData == NULL )

	test	esi, esi
	je	$LN522@SendTo

; 894  : 			}
; 895  : 			pNewData->nDataLength = pData->nDataLength;

	mov	ecx, DWORD PTR tv1886[ebp]
	mov	eax, DWORD PTR [ecx]
	mov	DWORD PTR [esi+4], eax

; 896  : 			CopyChars( PXSTR( pNewData->data() ), pData->nDataLength+1,

	mov	eax, DWORD PTR [ecx]
	inc	eax
	push	eax
	push	DWORD PTR tv1909[ebp]
	push	eax

; 59   : 		return (this+1);

	lea	eax, DWORD PTR [esi+16]

; 896  : 			CopyChars( PXSTR( pNewData->data() ), pData->nDataLength+1,

	push	eax
	call	?CopyChars@?$CSimpleStringT@_W$0A@@ATL@@SAXPA_WIPB_WH@Z ; ATL::CSimpleStringT<wchar_t,0>::CopyChars
	add	esp, 16					; 00000010H
$LN398@SendTo:

; 780  : 		m_pszData = static_cast< PXSTR >( pData->data() );

	mov	ecx, DWORD PTR _this$[ebp]

; 59   : 		return (this+1);

	lea	eax, DWORD PTR [esi+16]

; 780  : 		m_pszData = static_cast< PXSTR >( pData->data() );

	mov	DWORD PTR [ecx], eax
; File I:\Projets\AES\AES\AES\SendTo.cpp

; 29   : 	CreateShortCut(Nom_exécutable_complet, nom_du_Racoourcis, Sepcial_Folder(CSIDL_SENDTO) + Back_slash + AfxGetAppName() + Ext_lnk, nom_sortie_complet, Nom_exécutable_complet.Left(Nom_exécutable_complet.ReverseFind('\\')));

	push	ecx
	lea	eax, DWORD PTR $T23[ebp]
	mov	BYTE PTR __$EHRec$[ebp+8], 19		; 00000013H
	push	eax
	call	?Sepcial_Folder@SendTo@@AAE?AV?$CStringT@_WV?$StrTraitMFC@_WV?$ChTraitsCRT@_W@ATL@@@@@ATL@@H@Z ; SendTo::Sepcial_Folder
	lea	ecx, DWORD PTR [ebx+20]
	mov	BYTE PTR __$EHRec$[ebp+8], 20		; 00000014H
	push	ecx
	push	eax
	lea	eax, DWORD PTR $T24[ebp]
	push	eax
	call	??HATL@@YA?AV?$CStringT@_WV?$StrTraitMFC@_WV?$ChTraitsCRT@_W@ATL@@@@@0@ABV10@0@Z ; ATL::operator+
	add	esp, 12					; 0000000cH
	mov	esi, eax
	mov	BYTE PTR __$EHRec$[ebp+8], 21		; 00000015H
; File C:\Program Files (x86)\Microsoft Visual Studio\2019\Enterprise\VC\Tools\MSVC\14.23.28105\atlmfc\include\afxwin1.inl

; 29   : 	{ ASSERT(afxCurrentAppName != NULL); return afxCurrentAppName; }

	call	?AfxGetModuleState@@YGPAVAFX_MODULE_STATE@@XZ ; AfxGetModuleState
	mov	ecx, DWORD PTR [eax+16]
; File I:\Projets\AES\AES\AES\SendTo.cpp

; 29   : 	CreateShortCut(Nom_exécutable_complet, nom_du_Racoourcis, Sepcial_Folder(CSIDL_SENDTO) + Back_slash + AfxGetAppName() + Ext_lnk, nom_sortie_complet, Nom_exécutable_complet.Left(Nom_exécutable_complet.ReverseFind('\\')));

	lea	eax, DWORD PTR $T26[ebp]
	push	ecx
	push	esi
	push	eax
	call	??HATL@@YA?AV?$CStringT@_WV?$StrTraitMFC@_WV?$ChTraitsCRT@_W@ATL@@@@@0@ABV10@PB_W@Z ; ATL::operator+
	add	esp, 8
	mov	BYTE PTR __$EHRec$[ebp+8], 22		; 00000016H
	mov	ecx, esp
	mov	DWORD PTR $T27[ebp], esp
	lea	edx, DWORD PTR [ebx+24]
	push	edx
	push	eax
	push	ecx
	call	??HATL@@YA?AV?$CStringT@_WV?$StrTraitMFC@_WV?$ChTraitsCRT@_W@ATL@@@@@0@ABV10@0@Z ; ATL::operator+
	mov	BYTE PTR __$EHRec$[ebp+8], 23		; 00000017H
	add	esp, 8
	mov	DWORD PTR _this$[ebp], esp
; File C:\Program Files (x86)\Microsoft Visual Studio\2019\Enterprise\VC\Tools\MSVC\14.23.28105\atlmfc\include\atlsimpstr.h

; 800  : 		return( reinterpret_cast< CStringData* >( m_pszData )-1 );

	mov	eax, DWORD PTR [ebx+8]

; 882  : 		IAtlStringMgr* pNewStringMgr = pData->pStringMgr->Clone();

	mov	ecx, DWORD PTR [eax-16]

; 800  : 		return( reinterpret_cast< CStringData* >( m_pszData )-1 );

	lea	esi, DWORD PTR [eax-16]
	mov	DWORD PTR tv1907[ebp], eax
; File I:\Projets\AES\AES\AES\SendTo.cpp

; 29   : 	CreateShortCut(Nom_exécutable_complet, nom_du_Racoourcis, Sepcial_Folder(CSIDL_SENDTO) + Back_slash + AfxGetAppName() + Ext_lnk, nom_sortie_complet, Nom_exécutable_complet.Left(Nom_exécutable_complet.ReverseFind('\\')));

	mov	DWORD PTR $T28[ebp], esp
; File C:\Program Files (x86)\Microsoft Visual Studio\2019\Enterprise\VC\Tools\MSVC\14.23.28105\atlmfc\include\atlsimpstr.h

; 882  : 		IAtlStringMgr* pNewStringMgr = pData->pStringMgr->Clone();

	mov	eax, DWORD PTR [ecx]
	call	DWORD PTR [eax+16]

; 69   : 		return nRefs < 0;

	cmp	DWORD PTR [esi+12], 0

; 882  : 		IAtlStringMgr* pNewStringMgr = pData->pStringMgr->Clone();

	mov	edx, eax

; 69   : 		return nRefs < 0;

	lea	eax, DWORD PTR [esi+12]

; 883  : 		if( !pData->IsLocked() && (pNewStringMgr == pData->pStringMgr) )

	jl	SHORT $LN425@SendTo
	cmp	edx, DWORD PTR [esi]
	jne	SHORT $LN425@SendTo

; 65   : 		_InterlockedIncrement(&nRefs);

	lock	 inc	 DWORD PTR [eax]

; 887  : 		}

	jmp	SHORT $LN426@SendTo
$LN425@SendTo:

; 888  : 		else
; 889  : 		{
; 890  : 			pNewData = pNewStringMgr->Allocate( pData->nDataLength, sizeof( XCHAR ) );

	mov	eax, DWORD PTR [edx]
	lea	ecx, DWORD PTR [esi+4]
	push	2
	push	DWORD PTR [ecx]
	mov	DWORD PTR tv1882[ebp], ecx
	mov	ecx, edx
	call	DWORD PTR [eax]
	mov	esi, eax

; 891  : 			if( pNewData == NULL )

	test	esi, esi
	je	$LN523@SendTo

; 894  : 			}
; 895  : 			pNewData->nDataLength = pData->nDataLength;

	mov	ecx, DWORD PTR tv1882[ebp]
	mov	eax, DWORD PTR [ecx]
	mov	DWORD PTR [esi+4], eax

; 896  : 			CopyChars( PXSTR( pNewData->data() ), pData->nDataLength+1,

	mov	eax, DWORD PTR [ecx]
	inc	eax
	push	eax
	push	DWORD PTR tv1907[ebp]
	push	eax

; 59   : 		return (this+1);

	lea	eax, DWORD PTR [esi+16]

; 896  : 			CopyChars( PXSTR( pNewData->data() ), pData->nDataLength+1,

	push	eax
	call	?CopyChars@?$CSimpleStringT@_W$0A@@ATL@@SAXPA_WIPB_WH@Z ; ATL::CSimpleStringT<wchar_t,0>::CopyChars
	add	esp, 16					; 00000010H
$LN426@SendTo:

; 780  : 		m_pszData = static_cast< PXSTR >( pData->data() );

	mov	ecx, DWORD PTR _this$[ebp]

; 59   : 		return (this+1);

	lea	eax, DWORD PTR [esi+16]

; 780  : 		m_pszData = static_cast< PXSTR >( pData->data() );

	mov	DWORD PTR [ecx], eax
; File I:\Projets\AES\AES\AES\SendTo.cpp

; 29   : 	CreateShortCut(Nom_exécutable_complet, nom_du_Racoourcis, Sepcial_Folder(CSIDL_SENDTO) + Back_slash + AfxGetAppName() + Ext_lnk, nom_sortie_complet, Nom_exécutable_complet.Left(Nom_exécutable_complet.ReverseFind('\\')));

	mov	BYTE PTR __$EHRec$[ebp+8], 24		; 00000018H
	push	ecx
	mov	DWORD PTR _this$[ebp], esp
; File C:\Program Files (x86)\Microsoft Visual Studio\2019\Enterprise\VC\Tools\MSVC\14.23.28105\atlmfc\include\atlsimpstr.h

; 800  : 		return( reinterpret_cast< CStringData* >( m_pszData )-1 );

	mov	eax, DWORD PTR [ebx]

; 882  : 		IAtlStringMgr* pNewStringMgr = pData->pStringMgr->Clone();

	mov	ecx, DWORD PTR [eax-16]

; 800  : 		return( reinterpret_cast< CStringData* >( m_pszData )-1 );

	lea	esi, DWORD PTR [eax-16]
	mov	DWORD PTR tv1906[ebp], eax

; 882  : 		IAtlStringMgr* pNewStringMgr = pData->pStringMgr->Clone();

	mov	eax, DWORD PTR [ecx]
	call	DWORD PTR [eax+16]

; 69   : 		return nRefs < 0;

	cmp	DWORD PTR [esi+12], 0

; 882  : 		IAtlStringMgr* pNewStringMgr = pData->pStringMgr->Clone();

	mov	edx, eax

; 69   : 		return nRefs < 0;

	lea	eax, DWORD PTR [esi+12]

; 883  : 		if( !pData->IsLocked() && (pNewStringMgr == pData->pStringMgr) )

	jl	SHORT $LN451@SendTo
	cmp	edx, DWORD PTR [esi]
	jne	SHORT $LN451@SendTo

; 65   : 		_InterlockedIncrement(&nRefs);

	lock	 inc	 DWORD PTR [eax]

; 887  : 		}

	jmp	SHORT $LN452@SendTo
$LN451@SendTo:

; 888  : 		else
; 889  : 		{
; 890  : 			pNewData = pNewStringMgr->Allocate( pData->nDataLength, sizeof( XCHAR ) );

	mov	eax, DWORD PTR [edx]
	lea	ecx, DWORD PTR [esi+4]
	push	2
	push	DWORD PTR [ecx]
	mov	DWORD PTR tv1878[ebp], ecx
	mov	ecx, edx
	call	DWORD PTR [eax]
	mov	esi, eax

; 891  : 			if( pNewData == NULL )

	test	esi, esi
	je	$LN524@SendTo

; 894  : 			}
; 895  : 			pNewData->nDataLength = pData->nDataLength;

	mov	ecx, DWORD PTR tv1878[ebp]
	mov	eax, DWORD PTR [ecx]
	mov	DWORD PTR [esi+4], eax

; 896  : 			CopyChars( PXSTR( pNewData->data() ), pData->nDataLength+1,

	mov	eax, DWORD PTR [ecx]
	inc	eax
	push	eax
	push	DWORD PTR tv1906[ebp]
	push	eax

; 59   : 		return (this+1);

	lea	eax, DWORD PTR [esi+16]

; 896  : 			CopyChars( PXSTR( pNewData->data() ), pData->nDataLength+1,

	push	eax
	call	?CopyChars@?$CSimpleStringT@_W$0A@@ATL@@SAXPA_WIPB_WH@Z ; ATL::CSimpleStringT<wchar_t,0>::CopyChars
	add	esp, 16					; 00000010H
$LN452@SendTo:

; 780  : 		m_pszData = static_cast< PXSTR >( pData->data() );

	mov	ecx, DWORD PTR _this$[ebp]

; 59   : 		return (this+1);

	lea	eax, DWORD PTR [esi+16]

; 780  : 		m_pszData = static_cast< PXSTR >( pData->data() );

	mov	DWORD PTR [ecx], eax
; File I:\Projets\AES\AES\AES\SendTo.cpp

; 29   : 	CreateShortCut(Nom_exécutable_complet, nom_du_Racoourcis, Sepcial_Folder(CSIDL_SENDTO) + Back_slash + AfxGetAppName() + Ext_lnk, nom_sortie_complet, Nom_exécutable_complet.Left(Nom_exécutable_complet.ReverseFind('\\')));

	mov	BYTE PTR __$EHRec$[ebp+8], 27		; 0000001bH
	call	?CreateShortCut@SendTo@@AAEJV?$CStringT@_WV?$StrTraitMFC@_WV?$ChTraitsCRT@_W@ATL@@@@@ATL@@0000@Z ; SendTo::CreateShortCut
	mov	BYTE PTR __$EHRec$[ebp+8], 26		; 0000001aH
; File C:\Program Files (x86)\Microsoft Visual Studio\2019\Enterprise\VC\Tools\MSVC\14.23.28105\atlmfc\include\atlsimpstr.h

; 88   : 		if( _InterlockedDecrement( &nRefs ) <= 0 )

	mov	eax, edi

; 800  : 		return( reinterpret_cast< CStringData* >( m_pszData )-1 );

	mov	edx, DWORD PTR $T26[ebp]
	add	edx, -16				; fffffff0H

; 88   : 		if( _InterlockedDecrement( &nRefs ) <= 0 )

	lock	 xadd	 DWORD PTR [edx+12], eax
	dec	eax
	test	eax, eax
	jg	SHORT $LN476@SendTo

; 89   : 		{
; 90   : 			pStringMgr->Free( this );

	mov	ecx, DWORD PTR [edx]
	push	edx
	mov	eax, DWORD PTR [ecx]
	call	DWORD PTR [eax+4]
$LN476@SendTo:
; File I:\Projets\AES\AES\AES\SendTo.cpp

; 29   : 	CreateShortCut(Nom_exécutable_complet, nom_du_Racoourcis, Sepcial_Folder(CSIDL_SENDTO) + Back_slash + AfxGetAppName() + Ext_lnk, nom_sortie_complet, Nom_exécutable_complet.Left(Nom_exécutable_complet.ReverseFind('\\')));

	mov	BYTE PTR __$EHRec$[ebp+8], 25		; 00000019H
; File C:\Program Files (x86)\Microsoft Visual Studio\2019\Enterprise\VC\Tools\MSVC\14.23.28105\atlmfc\include\atlsimpstr.h

; 88   : 		if( _InterlockedDecrement( &nRefs ) <= 0 )

	mov	eax, edi

; 800  : 		return( reinterpret_cast< CStringData* >( m_pszData )-1 );

	mov	edx, DWORD PTR $T24[ebp]
	add	edx, -16				; fffffff0H

; 88   : 		if( _InterlockedDecrement( &nRefs ) <= 0 )

	lock	 xadd	 DWORD PTR [edx+12], eax
	dec	eax
	test	eax, eax
	jg	SHORT $LN485@SendTo

; 89   : 		{
; 90   : 			pStringMgr->Free( this );

	mov	ecx, DWORD PTR [edx]
	push	edx
	mov	eax, DWORD PTR [ecx]
	call	DWORD PTR [eax+4]
$LN485@SendTo:
; File I:\Projets\AES\AES\AES\SendTo.cpp

; 29   : 	CreateShortCut(Nom_exécutable_complet, nom_du_Racoourcis, Sepcial_Folder(CSIDL_SENDTO) + Back_slash + AfxGetAppName() + Ext_lnk, nom_sortie_complet, Nom_exécutable_complet.Left(Nom_exécutable_complet.ReverseFind('\\')));

	mov	BYTE PTR __$EHRec$[ebp+8], 9
; File C:\Program Files (x86)\Microsoft Visual Studio\2019\Enterprise\VC\Tools\MSVC\14.23.28105\atlmfc\include\atlsimpstr.h

; 88   : 		if( _InterlockedDecrement( &nRefs ) <= 0 )

	mov	eax, edi

; 800  : 		return( reinterpret_cast< CStringData* >( m_pszData )-1 );

	mov	edx, DWORD PTR $T23[ebp]
	add	edx, -16				; fffffff0H

; 88   : 		if( _InterlockedDecrement( &nRefs ) <= 0 )

	lock	 xadd	 DWORD PTR [edx+12], eax
	dec	eax
	test	eax, eax
	jg	SHORT $LN494@SendTo

; 89   : 		{
; 90   : 			pStringMgr->Free( this );

	mov	ecx, DWORD PTR [edx]
	push	edx
	mov	eax, DWORD PTR [ecx]
	call	DWORD PTR [eax+4]
$LN494@SendTo:

; 88   : 		if( _InterlockedDecrement( &nRefs ) <= 0 )

	mov	edx, DWORD PTR _pData$1$[ebp]
	mov	eax, edi
; File I:\Projets\AES\AES\AES\SendTo.cpp

; 32   : }

	mov	BYTE PTR __$EHRec$[ebp+8], 8
; File C:\Program Files (x86)\Microsoft Visual Studio\2019\Enterprise\VC\Tools\MSVC\14.23.28105\atlmfc\include\atlsimpstr.h

; 88   : 		if( _InterlockedDecrement( &nRefs ) <= 0 )

	lock	 xadd	 DWORD PTR [edx+12], eax
	dec	eax
	test	eax, eax
	jg	SHORT $LN503@SendTo

; 89   : 		{
; 90   : 			pStringMgr->Free( this );

	mov	ecx, DWORD PTR [edx]
	push	edx
	mov	eax, DWORD PTR [ecx]
	call	DWORD PTR [eax+4]
$LN503@SendTo:

; 88   : 		if( _InterlockedDecrement( &nRefs ) <= 0 )

	mov	eax, DWORD PTR _pData$1$[ebp]
; File I:\Projets\AES\AES\AES\SendTo.cpp

; 32   : }

	mov	BYTE PTR __$EHRec$[ebp+8], 7
; File C:\Program Files (x86)\Microsoft Visual Studio\2019\Enterprise\VC\Tools\MSVC\14.23.28105\atlmfc\include\atlsimpstr.h

; 88   : 		if( _InterlockedDecrement( &nRefs ) <= 0 )

	lock	 xadd	 DWORD PTR [eax+12], edi
	dec	edi
	test	edi, edi
	jg	SHORT $LN512@SendTo

; 89   : 		{
; 90   : 			pStringMgr->Free( this );

	mov	ecx, DWORD PTR [eax]
	push	eax
	mov	edx, DWORD PTR [ecx]
	call	DWORD PTR [edx+4]
$LN512@SendTo:
; File I:\Projets\AES\AES\AES\SendTo.cpp

; 32   : }

	mov	eax, ebx
	mov	ecx, DWORD PTR __$EHRec$[ebp]
	mov	DWORD PTR fs:0, ecx
	pop	ecx
	pop	edi
	pop	esi
	pop	ebx
	mov	ecx, DWORD PTR __$ArrayPad$[ebp]
	xor	ecx, ebp
	call	@__security_check_cookie@4
	mov	esp, ebp
	pop	ebp
	ret	0
$LN298@SendTo:
; File C:\Program Files (x86)\Microsoft Visual Studio\2019\Enterprise\VC\Tools\MSVC\14.23.28105\atlmfc\include\atlsimpstr.h

; 872  : 			AtlThrow(E_INVALIDARG);

	push	-2147024809				; 80070057H
	call	?AtlThrowImpl@ATL@@YGXJ@Z		; ATL::AtlThrowImpl
$LN514@SendTo:
; File I:\Projets\AES\AES\AES\SendTo.cpp

; 32   : }

	push	-2147467259				; 80004005H
	call	?AtlThrowImpl@ATL@@YGXJ@Z		; ATL::AtlThrowImpl
$LN520@SendTo:
; File C:\Program Files (x86)\Microsoft Visual Studio\2019\Enterprise\VC\Tools\MSVC\14.23.28105\atlmfc\include\atlsimpstr.h

; 205  : 		ATLENSURE( pStringMgr != NULL );

	push	-2147467259				; 80004005H
	call	?AtlThrowImpl@ATL@@YGXJ@Z		; ATL::AtlThrowImpl
$LN521@SendTo:
	push	-2147467259				; 80004005H
	call	?AtlThrowImpl@ATL@@YGXJ@Z		; ATL::AtlThrowImpl
$LN522@SendTo:

; 893  : 				ThrowMemoryException();

	call	?ThrowMemoryException@?$CSimpleStringT@_W$0A@@ATL@@KAXXZ ; ATL::CSimpleStringT<wchar_t,0>::ThrowMemoryException
$LN523@SendTo:
	call	?ThrowMemoryException@?$CSimpleStringT@_W$0A@@ATL@@KAXXZ ; ATL::CSimpleStringT<wchar_t,0>::ThrowMemoryException
$LN524@SendTo:
	call	?ThrowMemoryException@?$CSimpleStringT@_W$0A@@ATL@@KAXXZ ; ATL::CSimpleStringT<wchar_t,0>::ThrowMemoryException
$LN518@SendTo:
	int	3
_TEXT	ENDS
;	COMDAT text$x
text$x	SEGMENT
__unwindfunclet$??0SendTo@@QAE@XZ$0:
	mov	ecx, DWORD PTR _this$GSCopy$[ebp]
	jmp	??1?$CStringT@_WV?$StrTraitMFC@_WV?$ChTraitsCRT@_W@ATL@@@@@ATL@@QAE@XZ ; ATL::CStringT<wchar_t,StrTraitMFC<wchar_t,ATL::ChTraitsCRT<wchar_t> > >::~CStringT<wchar_t,StrTraitMFC<wchar_t,ATL::ChTraitsCRT<wchar_t> > >
__unwindfunclet$??0SendTo@@QAE@XZ$1:
	mov	ecx, DWORD PTR _this$GSCopy$[ebp]
	add	ecx, 4
	jmp	??1?$CStringT@_WV?$StrTraitMFC@_WV?$ChTraitsCRT@_W@ATL@@@@@ATL@@QAE@XZ ; ATL::CStringT<wchar_t,StrTraitMFC<wchar_t,ATL::ChTraitsCRT<wchar_t> > >::~CStringT<wchar_t,StrTraitMFC<wchar_t,ATL::ChTraitsCRT<wchar_t> > >
__unwindfunclet$??0SendTo@@QAE@XZ$2:
	mov	ecx, DWORD PTR _this$GSCopy$[ebp]
	add	ecx, 8
	jmp	??1?$CStringT@_WV?$StrTraitMFC@_WV?$ChTraitsCRT@_W@ATL@@@@@ATL@@QAE@XZ ; ATL::CStringT<wchar_t,StrTraitMFC<wchar_t,ATL::ChTraitsCRT<wchar_t> > >::~CStringT<wchar_t,StrTraitMFC<wchar_t,ATL::ChTraitsCRT<wchar_t> > >
__unwindfunclet$??0SendTo@@QAE@XZ$3:
	mov	ecx, DWORD PTR _this$GSCopy$[ebp]
	add	ecx, 12					; 0000000cH
	jmp	??1?$CStringT@_WV?$StrTraitMFC@_WV?$ChTraitsCRT@_W@ATL@@@@@ATL@@QAE@XZ ; ATL::CStringT<wchar_t,StrTraitMFC<wchar_t,ATL::ChTraitsCRT<wchar_t> > >::~CStringT<wchar_t,StrTraitMFC<wchar_t,ATL::ChTraitsCRT<wchar_t> > >
__unwindfunclet$??0SendTo@@QAE@XZ$4:
	mov	ecx, DWORD PTR _this$GSCopy$[ebp]
	add	ecx, 16					; 00000010H
	jmp	??1?$CStringT@_WV?$StrTraitMFC@_WV?$ChTraitsCRT@_W@ATL@@@@@ATL@@QAE@XZ ; ATL::CStringT<wchar_t,StrTraitMFC<wchar_t,ATL::ChTraitsCRT<wchar_t> > >::~CStringT<wchar_t,StrTraitMFC<wchar_t,ATL::ChTraitsCRT<wchar_t> > >
__unwindfunclet$??0SendTo@@QAE@XZ$5:
	mov	ecx, DWORD PTR _this$GSCopy$[ebp]
	add	ecx, 20					; 00000014H
	jmp	??1?$CStringT@_WV?$StrTraitMFC@_WV?$ChTraitsCRT@_W@ATL@@@@@ATL@@QAE@XZ ; ATL::CStringT<wchar_t,StrTraitMFC<wchar_t,ATL::ChTraitsCRT<wchar_t> > >::~CStringT<wchar_t,StrTraitMFC<wchar_t,ATL::ChTraitsCRT<wchar_t> > >
__unwindfunclet$??0SendTo@@QAE@XZ$6:
	mov	ecx, DWORD PTR _this$GSCopy$[ebp]
	add	ecx, 24					; 00000018H
	jmp	??1?$CStringT@_WV?$StrTraitMFC@_WV?$ChTraitsCRT@_W@ATL@@@@@ATL@@QAE@XZ ; ATL::CStringT<wchar_t,StrTraitMFC<wchar_t,ATL::ChTraitsCRT<wchar_t> > >::~CStringT<wchar_t,StrTraitMFC<wchar_t,ATL::ChTraitsCRT<wchar_t> > >
__unwindfunclet$??0SendTo@@QAE@XZ$7:
	mov	ecx, DWORD PTR _this$GSCopy$[ebp]
	add	ecx, 28					; 0000001cH
	jmp	??1?$CStringT@_WV?$StrTraitMFC@_WV?$ChTraitsCRT@_W@ATL@@@@@ATL@@QAE@XZ ; ATL::CStringT<wchar_t,StrTraitMFC<wchar_t,ATL::ChTraitsCRT<wchar_t> > >::~CStringT<wchar_t,StrTraitMFC<wchar_t,ATL::ChTraitsCRT<wchar_t> > >
__unwindfunclet$??0SendTo@@QAE@XZ$8:
	lea	ecx, DWORD PTR _Local$[ebp]
	jmp	??1?$CStringT@_WV?$StrTraitMFC@_WV?$ChTraitsCRT@_W@ATL@@@@@ATL@@QAE@XZ ; ATL::CStringT<wchar_t,StrTraitMFC<wchar_t,ATL::ChTraitsCRT<wchar_t> > >::~CStringT<wchar_t,StrTraitMFC<wchar_t,ATL::ChTraitsCRT<wchar_t> > >
__unwindfunclet$??0SendTo@@QAE@XZ$9:
	lea	ecx, DWORD PTR _Local_1$[ebp]
	jmp	??1?$CStringT@_WV?$StrTraitMFC@_WV?$ChTraitsCRT@_W@ATL@@@@@ATL@@QAE@XZ ; ATL::CStringT<wchar_t,StrTraitMFC<wchar_t,ATL::ChTraitsCRT<wchar_t> > >::~CStringT<wchar_t,StrTraitMFC<wchar_t,ATL::ChTraitsCRT<wchar_t> > >
__unwindfunclet$??0SendTo@@QAE@XZ$26:
	mov	eax, DWORD PTR $T1[ebp]
	and	eax, 1
	je	$LN257@SendTo
	and	DWORD PTR $T1[ebp], -2			; fffffffeH
	lea	ecx, DWORD PTR $T7[ebp]
	jmp	??1?$CStringT@_WV?$StrTraitMFC@_WV?$ChTraitsCRT@_W@ATL@@@@@ATL@@QAE@XZ ; ATL::CStringT<wchar_t,StrTraitMFC<wchar_t,ATL::ChTraitsCRT<wchar_t> > >::~CStringT<wchar_t,StrTraitMFC<wchar_t,ATL::ChTraitsCRT<wchar_t> > >
$LN257@SendTo:
	ret	0
__unwindfunclet$??0SendTo@@QAE@XZ$11:
	lea	ecx, DWORD PTR $T11[ebp]
	jmp	??1?$CStringT@_WV?$StrTraitMFC@_WV?$ChTraitsCRT@_W@ATL@@@@@ATL@@QAE@XZ ; ATL::CStringT<wchar_t,StrTraitMFC<wchar_t,ATL::ChTraitsCRT<wchar_t> > >::~CStringT<wchar_t,StrTraitMFC<wchar_t,ATL::ChTraitsCRT<wchar_t> > >
__unwindfunclet$??0SendTo@@QAE@XZ$12:
	lea	ecx, DWORD PTR $T12[ebp]
	jmp	??1?$CStringT@_WV?$StrTraitMFC@_WV?$ChTraitsCRT@_W@ATL@@@@@ATL@@QAE@XZ ; ATL::CStringT<wchar_t,StrTraitMFC<wchar_t,ATL::ChTraitsCRT<wchar_t> > >::~CStringT<wchar_t,StrTraitMFC<wchar_t,ATL::ChTraitsCRT<wchar_t> > >
__unwindfunclet$??0SendTo@@QAE@XZ$13:
	lea	ecx, DWORD PTR $T13[ebp]
	jmp	??1?$CStringT@_WV?$StrTraitMFC@_WV?$ChTraitsCRT@_W@ATL@@@@@ATL@@QAE@XZ ; ATL::CStringT<wchar_t,StrTraitMFC<wchar_t,ATL::ChTraitsCRT<wchar_t> > >::~CStringT<wchar_t,StrTraitMFC<wchar_t,ATL::ChTraitsCRT<wchar_t> > >
__unwindfunclet$??0SendTo@@QAE@XZ$14:
	lea	ecx, DWORD PTR $T14[ebp]
	jmp	??1?$CStringT@_WV?$StrTraitMFC@_WV?$ChTraitsCRT@_W@ATL@@@@@ATL@@QAE@XZ ; ATL::CStringT<wchar_t,StrTraitMFC<wchar_t,ATL::ChTraitsCRT<wchar_t> > >::~CStringT<wchar_t,StrTraitMFC<wchar_t,ATL::ChTraitsCRT<wchar_t> > >
__unwindfunclet$??0SendTo@@QAE@XZ$15:
	lea	ecx, DWORD PTR $T16[ebp]
	jmp	??1?$CStringT@_WV?$StrTraitMFC@_WV?$ChTraitsCRT@_W@ATL@@@@@ATL@@QAE@XZ ; ATL::CStringT<wchar_t,StrTraitMFC<wchar_t,ATL::ChTraitsCRT<wchar_t> > >::~CStringT<wchar_t,StrTraitMFC<wchar_t,ATL::ChTraitsCRT<wchar_t> > >
__unwindfunclet$??0SendTo@@QAE@XZ$16:
	lea	ecx, DWORD PTR $T17[ebp]
	jmp	??1?$CStringT@_WV?$StrTraitMFC@_WV?$ChTraitsCRT@_W@ATL@@@@@ATL@@QAE@XZ ; ATL::CStringT<wchar_t,StrTraitMFC<wchar_t,ATL::ChTraitsCRT<wchar_t> > >::~CStringT<wchar_t,StrTraitMFC<wchar_t,ATL::ChTraitsCRT<wchar_t> > >
__unwindfunclet$??0SendTo@@QAE@XZ$17:
	lea	ecx, DWORD PTR $T18[ebp]
	jmp	??1?$CStringT@_WV?$StrTraitMFC@_WV?$ChTraitsCRT@_W@ATL@@@@@ATL@@QAE@XZ ; ATL::CStringT<wchar_t,StrTraitMFC<wchar_t,ATL::ChTraitsCRT<wchar_t> > >::~CStringT<wchar_t,StrTraitMFC<wchar_t,ATL::ChTraitsCRT<wchar_t> > >
__unwindfunclet$??0SendTo@@QAE@XZ$18:
	mov	ecx, DWORD PTR $T21[ebp]
	jmp	??1?$CStringT@_WV?$StrTraitMFC@_WV?$ChTraitsCRT@_W@ATL@@@@@ATL@@QAE@XZ ; ATL::CStringT<wchar_t,StrTraitMFC<wchar_t,ATL::ChTraitsCRT<wchar_t> > >::~CStringT<wchar_t,StrTraitMFC<wchar_t,ATL::ChTraitsCRT<wchar_t> > >
__unwindfunclet$??0SendTo@@QAE@XZ$19:
	mov	ecx, DWORD PTR $T22[ebp]
	jmp	??1?$CStringT@_WV?$StrTraitMFC@_WV?$ChTraitsCRT@_W@ATL@@@@@ATL@@QAE@XZ ; ATL::CStringT<wchar_t,StrTraitMFC<wchar_t,ATL::ChTraitsCRT<wchar_t> > >::~CStringT<wchar_t,StrTraitMFC<wchar_t,ATL::ChTraitsCRT<wchar_t> > >
__unwindfunclet$??0SendTo@@QAE@XZ$20:
	lea	ecx, DWORD PTR $T23[ebp]
	jmp	??1?$CStringT@_WV?$StrTraitMFC@_WV?$ChTraitsCRT@_W@ATL@@@@@ATL@@QAE@XZ ; ATL::CStringT<wchar_t,StrTraitMFC<wchar_t,ATL::ChTraitsCRT<wchar_t> > >::~CStringT<wchar_t,StrTraitMFC<wchar_t,ATL::ChTraitsCRT<wchar_t> > >
__unwindfunclet$??0SendTo@@QAE@XZ$21:
	lea	ecx, DWORD PTR $T24[ebp]
	jmp	??1?$CStringT@_WV?$StrTraitMFC@_WV?$ChTraitsCRT@_W@ATL@@@@@ATL@@QAE@XZ ; ATL::CStringT<wchar_t,StrTraitMFC<wchar_t,ATL::ChTraitsCRT<wchar_t> > >::~CStringT<wchar_t,StrTraitMFC<wchar_t,ATL::ChTraitsCRT<wchar_t> > >
__unwindfunclet$??0SendTo@@QAE@XZ$22:
	lea	ecx, DWORD PTR $T26[ebp]
	jmp	??1?$CStringT@_WV?$StrTraitMFC@_WV?$ChTraitsCRT@_W@ATL@@@@@ATL@@QAE@XZ ; ATL::CStringT<wchar_t,StrTraitMFC<wchar_t,ATL::ChTraitsCRT<wchar_t> > >::~CStringT<wchar_t,StrTraitMFC<wchar_t,ATL::ChTraitsCRT<wchar_t> > >
__unwindfunclet$??0SendTo@@QAE@XZ$23:
	mov	ecx, DWORD PTR $T27[ebp]
	jmp	??1?$CStringT@_WV?$StrTraitMFC@_WV?$ChTraitsCRT@_W@ATL@@@@@ATL@@QAE@XZ ; ATL::CStringT<wchar_t,StrTraitMFC<wchar_t,ATL::ChTraitsCRT<wchar_t> > >::~CStringT<wchar_t,StrTraitMFC<wchar_t,ATL::ChTraitsCRT<wchar_t> > >
__unwindfunclet$??0SendTo@@QAE@XZ$24:
	mov	ecx, DWORD PTR $T28[ebp]
	jmp	??1?$CStringT@_WV?$StrTraitMFC@_WV?$ChTraitsCRT@_W@ATL@@@@@ATL@@QAE@XZ ; ATL::CStringT<wchar_t,StrTraitMFC<wchar_t,ATL::ChTraitsCRT<wchar_t> > >::~CStringT<wchar_t,StrTraitMFC<wchar_t,ATL::ChTraitsCRT<wchar_t> > >
__ehhandler$??0SendTo@@QAE@XZ:
	mov	edx, DWORD PTR [esp+8]
	lea	eax, DWORD PTR [edx+12]
	mov	ecx, DWORD PTR [edx-600]
	xor	ecx, eax
	call	@__security_check_cookie@4
	mov	ecx, DWORD PTR [edx-4]
	xor	ecx, eax
	call	@__security_check_cookie@4
	mov	eax, OFFSET __ehfuncinfo$??0SendTo@@QAE@XZ
	jmp	___CxxFrameHandler3
text$x	ENDS
??0SendTo@@QAE@XZ ENDP					; SendTo::SendTo
; Function compile flags: /Ogtp
; File I:\Projets\AES\AES\AES\SendTo.cpp
; File C:\Program Files (x86)\Microsoft Visual Studio\2019\Enterprise\VC\Tools\MSVC\14.23.28105\atlmfc\include\atlsimpstr.h
; File I:\Projets\AES\AES\AES\SendTo.cpp
; File C:\Program Files (x86)\Microsoft Visual Studio\2019\Enterprise\VC\Tools\MSVC\14.23.28105\atlmfc\include\atlsimpstr.h
; File I:\Projets\AES\AES\AES\SendTo.cpp
; File C:\Program Files (x86)\Microsoft Visual Studio\2019\Enterprise\VC\Tools\MSVC\14.23.28105\atlmfc\include\atlsimpstr.h
; File I:\Projets\AES\AES\AES\SendTo.cpp
; File C:\Program Files (x86)\Microsoft Visual Studio\2019\Enterprise\VC\Tools\MSVC\14.23.28105\atlmfc\include\atlsimpstr.h
; File I:\Projets\AES\AES\AES\SendTo.cpp
; File C:\Program Files (x86)\Microsoft Visual Studio\2019\Enterprise\VC\Tools\MSVC\14.23.28105\atlmfc\include\atlsimpstr.h
; File I:\Projets\AES\AES\AES\SendTo.cpp
;	COMDAT ?Charge_Constante@SendTo@@AAEXXZ
_TEXT	SEGMENT
_buffer$ = -524						; size = 520
__$ArrayPad$ = -4					; size = 4
?Charge_Constante@SendTo@@AAEXXZ PROC			; SendTo::Charge_Constante, COMDAT
; _this$ = ecx

; 12   : {

	push	ebp
	mov	ebp, esp
	sub	esp, 524				; 0000020cH
	mov	eax, DWORD PTR ___security_cookie
	xor	eax, ebp
	mov	DWORD PTR __$ArrayPad$[ebp], eax
	push	esi
	mov	esi, ecx
; File C:\Program Files (x86)\Microsoft Visual Studio\2019\Enterprise\VC\Tools\MSVC\14.23.28105\atlmfc\include\atlsimpstr.h

; 602  : 		SetString( pszSrc, StringLength( pszSrc ) );

	push	1
	push	OFFSET ??_C@_13FPGAJAPJ@?$AA?2@
; File I:\Projets\AES\AES\AES\SendTo.cpp

; 15   : 	Back_slash = _T("\\");

	lea	ecx, DWORD PTR [esi+20]
; File C:\Program Files (x86)\Microsoft Visual Studio\2019\Enterprise\VC\Tools\MSVC\14.23.28105\atlmfc\include\atlsimpstr.h

; 602  : 		SetString( pszSrc, StringLength( pszSrc ) );

	call	?SetString@?$CSimpleStringT@_W$0A@@ATL@@QAEXPB_WH@Z ; ATL::CSimpleStringT<wchar_t,0>::SetString
; File I:\Projets\AES\AES\AES\SendTo.cpp

; 16   : 	GetModuleFileName(0, buffer, MAX_PATH);

	push	260					; 00000104H
	lea	eax, DWORD PTR _buffer$[ebp]
	push	eax
	push	0
	call	DWORD PTR __imp__GetModuleFileNameW@12
; File C:\Program Files (x86)\Microsoft Visual Studio\2019\Enterprise\VC\Tools\MSVC\14.23.28105\atlmfc\include\atlsimpstr.h

; 734  : 		return( int( wcslen( psz ) ) );

	lea	eax, DWORD PTR _buffer$[ebp]
	lea	edx, DWORD PTR [eax+2]
$LL30@Charge_Con:
	mov	cx, WORD PTR [eax]
	add	eax, 2
	test	cx, cx
	jne	SHORT $LL30@Charge_Con
	sub	eax, edx

; 602  : 		SetString( pszSrc, StringLength( pszSrc ) );

	mov	ecx, esi

; 734  : 		return( int( wcslen( psz ) ) );

	sar	eax, 1

; 602  : 		SetString( pszSrc, StringLength( pszSrc ) );

	push	eax
	lea	eax, DWORD PTR _buffer$[ebp]
	push	eax
	call	?SetString@?$CSimpleStringT@_W$0A@@ATL@@QAEXPB_WH@Z ; ATL::CSimpleStringT<wchar_t,0>::SetString
	push	4
	push	OFFSET ??_C@_19BEHMAPDG@?$AA?4?$AAl?$AAn?$AAk@
; File I:\Projets\AES\AES\AES\SendTo.cpp

; 18   : 	Ext_lnk = _T(".lnk");

	lea	ecx, DWORD PTR [esi+24]
; File C:\Program Files (x86)\Microsoft Visual Studio\2019\Enterprise\VC\Tools\MSVC\14.23.28105\atlmfc\include\atlsimpstr.h

; 602  : 		SetString( pszSrc, StringLength( pszSrc ) );

	call	?SetString@?$CSimpleStringT@_W$0A@@ATL@@QAEXPB_WH@Z ; ATL::CSimpleStringT<wchar_t,0>::SetString
; File I:\Projets\AES\AES\AES\SendTo.cpp

; 19   : }

	mov	ecx, DWORD PTR __$ArrayPad$[ebp]
	xor	ecx, ebp
; File C:\Program Files (x86)\Microsoft Visual Studio\2019\Enterprise\VC\Tools\MSVC\14.23.28105\atlmfc\include\atlsimpstr.h

; 602  : 		SetString( pszSrc, StringLength( pszSrc ) );

	pop	esi
; File I:\Projets\AES\AES\AES\SendTo.cpp

; 19   : }

	call	@__security_check_cookie@4
	mov	esp, ebp
	pop	ebp
	ret	0
?Charge_Constante@SendTo@@AAEXXZ ENDP			; SendTo::Charge_Constante
_TEXT	ENDS
; Function compile flags: /Ogtp
; File I:\Projets\AES\AES\AES\SendTo.cpp
; File C:\Program Files (x86)\Microsoft Visual Studio\2019\Enterprise\VC\Tools\MSVC\14.23.28105\atlmfc\include\afxstr.h
; File C:\Program Files (x86)\Microsoft Visual Studio\2019\Enterprise\VC\Tools\MSVC\14.23.28105\atlmfc\include\atlsimpstr.h
; File C:\Program Files (x86)\Microsoft Visual Studio\2019\Enterprise\VC\Tools\MSVC\14.23.28105\atlmfc\include\cstringt.h
; File C:\Program Files (x86)\Microsoft Visual Studio\2019\Enterprise\VC\Tools\MSVC\14.23.28105\atlmfc\include\atlsimpstr.h
; File I:\Projets\AES\AES\AES\SendTo.cpp
; File C:\Program Files (x86)\Microsoft Visual Studio\2019\Enterprise\VC\Tools\MSVC\14.23.28105\atlmfc\include\atlsimpstr.h
; File I:\Projets\AES\AES\AES\SendTo.cpp
;	COMDAT ?Sepcial_Folder@SendTo@@AAE?AV?$CStringT@_WV?$StrTraitMFC@_WV?$ChTraitsCRT@_W@ATL@@@@@ATL@@H@Z
_TEXT	SEGMENT
___$ReturnUdt$GSCopy$ = -540				; size = 4
_szPath$ = -536						; size = 520
__$ArrayPad$ = -16					; size = 4
__$EHRec$ = -12						; size = 12
___$ReturnUdt$ = 8					; size = 4
__directory_resquest$dead$ = 12				; size = 4
?Sepcial_Folder@SendTo@@AAE?AV?$CStringT@_WV?$StrTraitMFC@_WV?$ChTraitsCRT@_W@ATL@@@@@ATL@@H@Z PROC ; SendTo::Sepcial_Folder, COMDAT
; _this$dead$ = ecx

; 39   : {

	push	ebp
	mov	ebp, esp
	push	-1
	push	__ehhandler$?Sepcial_Folder@SendTo@@AAE?AV?$CStringT@_WV?$StrTraitMFC@_WV?$ChTraitsCRT@_W@ATL@@@@@ATL@@H@Z
	mov	eax, DWORD PTR fs:0
	push	eax
	sub	esp, 528				; 00000210H
	mov	eax, DWORD PTR ___security_cookie
	xor	eax, ebp
	mov	DWORD PTR __$ArrayPad$[ebp], eax
	push	esi
	push	eax
	lea	eax, DWORD PTR __$EHRec$[ebp]
	mov	DWORD PTR fs:0, eax
	mov	esi, DWORD PTR ___$ReturnUdt$[ebp]

; 40   : 	
; 41   : 	TCHAR szPath[MAX_PATH] =_T("");

	lea	eax, DWORD PTR _szPath$[ebp]
	push	520					; 00000208H
	push	0
	push	eax
	mov	DWORD PTR ___$ReturnUdt$GSCopy$[ebp], esi
	call	_memset
	add	esp, 12					; 0000000cH

; 42   : 
; 43   : 	SHGetFolderPath(NULL, _directory_resquest, NULL, 0, szPath);

	lea	eax, DWORD PTR _szPath$[ebp]
	push	eax
	push	0
	push	0
	push	9
	push	0
	call	DWORD PTR __imp__SHGetFolderPathW@20
	mov	DWORD PTR [esi], 0
; File C:\Program Files (x86)\Microsoft Visual Studio\2019\Enterprise\VC\Tools\MSVC\14.23.28105\atlmfc\include\afxstr.h

; 52   : 		return( AfxGetStringManager() );

	call	?AfxGetStringManager@@YGPAUIAtlStringMgr@ATL@@XZ ; AfxGetStringManager
	mov	ecx, eax
; File C:\Program Files (x86)\Microsoft Visual Studio\2019\Enterprise\VC\Tools\MSVC\14.23.28105\atlmfc\include\atlsimpstr.h

; 205  : 		ATLENSURE( pStringMgr != NULL );

	test	ecx, ecx
	je	SHORT $LN46@Sepcial_Fo

; 206  : 		CStringData* pData = pStringMgr->GetNilString();

	mov	eax, DWORD PTR [ecx]
	call	DWORD PTR [eax+12]

; 59   : 		return (this+1);

	add	eax, 16					; 00000010H

; 780  : 		m_pszData = static_cast< PXSTR >( pData->data() );

	mov	DWORD PTR [esi], eax
; File C:\Program Files (x86)\Microsoft Visual Studio\2019\Enterprise\VC\Tools\MSVC\14.23.28105\atlmfc\include\cstringt.h

; 2668 : 		if( (pv != NULL) && IS_INTRESOURCE( pv ) )

	lea	eax, DWORD PTR _szPath$[ebp]

; 1044 : 		CThisSimpleString( StringTraits::GetDefaultManager() )

	mov	DWORD PTR __$EHRec$[ebp+8], 0

; 2668 : 		if( (pv != NULL) && IS_INTRESOURCE( pv ) )

	test	eax, -65536				; ffff0000H
	jne	SHORT $LN41@Sepcial_Fo

; 2669 : 		{
; 2670 : 			UINT nID = LOWORD( reinterpret_cast< DWORD_PTR >( pv ) );

	movzx	eax, ax

; 2671 : 			(nID);
; 2672 : #ifdef _ATL_USE_WINAPI_FAMILY_DESKTOP_APP
; 2673 : 			if( !LoadString( nID ) )

	mov	ecx, esi
	push	eax
	call	?LoadStringW@?$CStringT@_WV?$StrTraitMFC@_WV?$ChTraitsCRT@_W@ATL@@@@@ATL@@QAEHI@Z ; ATL::CStringT<wchar_t,StrTraitMFC<wchar_t,ATL::ChTraitsCRT<wchar_t> > >::LoadStringW

; 1046 : 		if( !CheckImplicitLoad( pszSrc ) )

	jmp	SHORT $LN8@Sepcial_Fo
$LN41@Sepcial_Fo:
; File C:\Program Files (x86)\Microsoft Visual Studio\2019\Enterprise\VC\Tools\MSVC\14.23.28105\atlmfc\include\atlsimpstr.h

; 734  : 		return( int( wcslen( psz ) ) );

	lea	ecx, DWORD PTR _szPath$[ebp]
	lea	edx, DWORD PTR [ecx+2]
$LL42@Sepcial_Fo:
	mov	ax, WORD PTR [ecx]
	add	ecx, 2
	test	ax, ax
	jne	SHORT $LL42@Sepcial_Fo
	sub	ecx, edx

; 602  : 		SetString( pszSrc, StringLength( pszSrc ) );

	lea	eax, DWORD PTR _szPath$[ebp]

; 734  : 		return( int( wcslen( psz ) ) );

	sar	ecx, 1

; 602  : 		SetString( pszSrc, StringLength( pszSrc ) );

	push	ecx
	push	eax
	mov	ecx, esi
	call	?SetString@?$CSimpleStringT@_W$0A@@ATL@@QAEXPB_WH@Z ; ATL::CSimpleStringT<wchar_t,0>::SetString
$LN8@Sepcial_Fo:
; File I:\Projets\AES\AES\AES\SendTo.cpp

; 46   : 	return (chaine);

	mov	eax, esi

; 48   : }

	mov	ecx, DWORD PTR __$EHRec$[ebp]
	mov	DWORD PTR fs:0, ecx
	pop	ecx
	pop	esi
	mov	ecx, DWORD PTR __$ArrayPad$[ebp]
	xor	ecx, ebp
	call	@__security_check_cookie@4
	mov	esp, ebp
	pop	ebp
	ret	8
$LN46@Sepcial_Fo:
; File C:\Program Files (x86)\Microsoft Visual Studio\2019\Enterprise\VC\Tools\MSVC\14.23.28105\atlmfc\include\atlsimpstr.h

; 205  : 		ATLENSURE( pStringMgr != NULL );

	push	-2147467259				; 80004005H
	call	?AtlThrowImpl@ATL@@YGXJ@Z		; ATL::AtlThrowImpl
$LN44@Sepcial_Fo:
	int	3
_TEXT	ENDS
;	COMDAT text$x
text$x	SEGMENT
__unwindfunclet$?Sepcial_Folder@SendTo@@AAE?AV?$CStringT@_WV?$StrTraitMFC@_WV?$ChTraitsCRT@_W@ATL@@@@@ATL@@H@Z$1:
	mov	ecx, DWORD PTR ___$ReturnUdt$GSCopy$[ebp]
	jmp	??1?$CSimpleStringT@_W$0A@@ATL@@QAE@XZ	; ATL::CSimpleStringT<wchar_t,0>::~CSimpleStringT<wchar_t,0>
__ehhandler$?Sepcial_Folder@SendTo@@AAE?AV?$CStringT@_WV?$StrTraitMFC@_WV?$ChTraitsCRT@_W@ATL@@@@@ATL@@H@Z:
	mov	edx, DWORD PTR [esp+8]
	lea	eax, DWORD PTR [edx+12]
	mov	ecx, DWORD PTR [edx-536]
	xor	ecx, eax
	call	@__security_check_cookie@4
	mov	ecx, DWORD PTR [edx-4]
	xor	ecx, eax
	call	@__security_check_cookie@4
	mov	eax, OFFSET __ehfuncinfo$?Sepcial_Folder@SendTo@@AAE?AV?$CStringT@_WV?$StrTraitMFC@_WV?$ChTraitsCRT@_W@ATL@@@@@ATL@@H@Z
	jmp	___CxxFrameHandler3
text$x	ENDS
?Sepcial_Folder@SendTo@@AAE?AV?$CStringT@_WV?$StrTraitMFC@_WV?$ChTraitsCRT@_W@ATL@@@@@ATL@@H@Z ENDP ; SendTo::Sepcial_Folder
; Function compile flags: /Ogtp
; File I:\Projets\AES\AES\AES\SendTo.cpp
; File C:\Program Files (x86)\Microsoft Visual Studio\2019\Enterprise\VC\Tools\MSVC\14.23.28105\atlmfc\include\afxstr.h
; File C:\Program Files (x86)\Microsoft Visual Studio\2019\Enterprise\VC\Tools\MSVC\14.23.28105\atlmfc\include\atlsimpstr.h
; File I:\Projets\AES\AES\AES\SendTo.cpp
; File C:\Program Files (x86)\Microsoft Visual Studio\2019\Enterprise\VC\Tools\MSVC\14.23.28105\atlmfc\include\atlsimpstr.h
; File I:\Projets\AES\AES\AES\SendTo.cpp
; File C:\Program Files (x86)\Microsoft Visual Studio\2019\Enterprise\VC\Tools\MSVC\14.23.28105\atlmfc\include\atlsimpstr.h
; File I:\Projets\AES\AES\AES\SendTo.cpp
; File C:\Program Files (x86)\Microsoft Visual Studio\2019\Enterprise\VC\Tools\MSVC\14.23.28105\atlmfc\include\atlsimpstr.h
; File I:\Projets\AES\AES\AES\SendTo.cpp
; File C:\Program Files (x86)\Microsoft Visual Studio\2019\Enterprise\VC\Tools\MSVC\14.23.28105\atlmfc\include\atlsimpstr.h
; File I:\Projets\AES\AES\AES\SendTo.cpp
;	COMDAT ?Current_Dir@SendTo@@AAE?AV?$CStringT@_WV?$StrTraitMFC@_WV?$ChTraitsCRT@_W@ATL@@@@@ATL@@XZ
_TEXT	SEGMENT
$T1 = -16						; size = 4
__$EHRec$ = -12						; size = 12
___$ReturnUdt$ = 8					; size = 4
?Current_Dir@SendTo@@AAE?AV?$CStringT@_WV?$StrTraitMFC@_WV?$ChTraitsCRT@_W@ATL@@@@@ATL@@XZ PROC ; SendTo::Current_Dir, COMDAT
; _this$dead$ = ecx

; 51   : {

	push	ebp
	mov	ebp, esp
	push	-1
	push	__ehhandler$?Current_Dir@SendTo@@AAE?AV?$CStringT@_WV?$StrTraitMFC@_WV?$ChTraitsCRT@_W@ATL@@@@@ATL@@XZ
	mov	eax, DWORD PTR fs:0
	push	eax
	push	ecx
	push	esi
	mov	eax, DWORD PTR ___security_cookie
	xor	eax, ebp
	push	eax
	lea	eax, DWORD PTR __$EHRec$[ebp]
	mov	DWORD PTR fs:0, eax
	mov	DWORD PTR __$EHRec$[ebp+8], 0
	mov	DWORD PTR $T1[ebp], 0
	mov	esi, DWORD PTR ___$ReturnUdt$[ebp]
	mov	DWORD PTR [esi], 0
; File C:\Program Files (x86)\Microsoft Visual Studio\2019\Enterprise\VC\Tools\MSVC\14.23.28105\atlmfc\include\afxstr.h

; 52   : 		return( AfxGetStringManager() );

	call	?AfxGetStringManager@@YGPAUIAtlStringMgr@ATL@@XZ ; AfxGetStringManager
	mov	ecx, eax
; File C:\Program Files (x86)\Microsoft Visual Studio\2019\Enterprise\VC\Tools\MSVC\14.23.28105\atlmfc\include\atlsimpstr.h

; 205  : 		ATLENSURE( pStringMgr != NULL );

	test	ecx, ecx
	je	$LN56@Current_Di

; 206  : 		CStringData* pData = pStringMgr->GetNilString();

	mov	eax, DWORD PTR [ecx]
	call	DWORD PTR [eax+12]

; 59   : 		return (this+1);

	add	eax, 16					; 00000010H

; 780  : 		m_pszData = static_cast< PXSTR >( pData->data() );

	mov	DWORD PTR [esi], eax
; File I:\Projets\AES\AES\AES\SendTo.cpp

; 56   : 	return (Chaine);

	mov	DWORD PTR __$EHRec$[ebp+8], 0
; File C:\Program Files (x86)\Microsoft Visual Studio\2019\Enterprise\VC\Tools\MSVC\14.23.28105\atlmfc\include\atlsimpstr.h

; 808  : 		int nShared = 1-pOldData->nRefs;  // nShared < 0 means true, >= 0 means false

	mov	ecx, 1
	sub	ecx, DWORD PTR [eax-4]

; 809  : 		int nTooShort = pOldData->nAllocLength-nLength;  // nTooShort < 0 means true, >= 0 means false

	mov	eax, DWORD PTR [eax-8]
	sub	eax, 260				; 00000104H
; File I:\Projets\AES\AES\AES\SendTo.cpp

; 56   : 	return (Chaine);

	mov	DWORD PTR $T1[ebp], 1
; File C:\Program Files (x86)\Microsoft Visual Studio\2019\Enterprise\VC\Tools\MSVC\14.23.28105\atlmfc\include\atlsimpstr.h

; 810  : 		if( (nShared|nTooShort) < 0 )  // If either sign bit is set (i.e. either is less than zero), we need to copy data

	or	ecx, eax
	jge	SHORT $LN30@Current_Di

; 811  : 		{
; 812  : 			PrepareWrite2( nLength );

	push	260					; 00000104H
	mov	ecx, esi
	call	?PrepareWrite2@?$CSimpleStringT@_W$0A@@ATL@@AAEXH@Z ; ATL::CSimpleStringT<wchar_t,0>::PrepareWrite2
$LN30@Current_Di:
; File I:\Projets\AES\AES\AES\SendTo.cpp

; 54   : 	::GetCurrentDirectory(MAX_PATH, Chaine.GetBuffer(MAX_PATH));

	push	DWORD PTR [esi]
	push	260					; 00000104H
	call	DWORD PTR __imp__GetCurrentDirectoryW@8
; File C:\Program Files (x86)\Microsoft Visual Studio\2019\Enterprise\VC\Tools\MSVC\14.23.28105\atlmfc\include\atlsimpstr.h

; 560  : 			int nAlloc = GetData()->nAllocLength;

	mov	eax, DWORD PTR [esi]

; 750  : 		if( psz == NULL )

	test	eax, eax
	je	SHORT $LN52@Current_Di
$LN41@Current_Di:

; 751  : 		{
; 752  : 			return( 0 );
; 753  : 		}
; 754  : 		return( int( wcsnlen( psz, sizeInXChar ) ) );

	push	DWORD PTR [eax-8]
	push	eax
	call	_wcsnlen
	add	esp, 8

; 871  : 		if( nLength < 0 || nLength > GetData()->nAllocLength)

	test	eax, eax
	js	SHORT $LN45@Current_Di
$LN52@Current_Di:
	mov	ecx, DWORD PTR [esi]
	cmp	eax, DWORD PTR [ecx-8]
	jg	SHORT $LN45@Current_Di

; 873  : 
; 874  : 		GetData()->nDataLength = nLength;

	mov	DWORD PTR [ecx-12], eax

; 875  : 		m_pszData[nLength] = 0;

	xor	edx, edx
	mov	ecx, DWORD PTR [esi]
	mov	WORD PTR [ecx+eax*2], dx
; File I:\Projets\AES\AES\AES\SendTo.cpp

; 56   : 	return (Chaine);

	mov	eax, esi

; 58   : }

	mov	ecx, DWORD PTR __$EHRec$[ebp]
	mov	DWORD PTR fs:0, ecx
	pop	ecx
	pop	esi
	mov	esp, ebp
	pop	ebp
	ret	4
$LN45@Current_Di:
; File C:\Program Files (x86)\Microsoft Visual Studio\2019\Enterprise\VC\Tools\MSVC\14.23.28105\atlmfc\include\atlsimpstr.h

; 872  : 			AtlThrow(E_INVALIDARG);

	push	-2147024809				; 80070057H
	call	?AtlThrowImpl@ATL@@YGXJ@Z		; ATL::AtlThrowImpl
$LN56@Current_Di:

; 205  : 		ATLENSURE( pStringMgr != NULL );

	push	-2147467259				; 80004005H
	call	?AtlThrowImpl@ATL@@YGXJ@Z		; ATL::AtlThrowImpl
$LN54@Current_Di:
	int	3
_TEXT	ENDS
;	COMDAT text$x
text$x	SEGMENT
__unwindfunclet$?Current_Dir@SendTo@@AAE?AV?$CStringT@_WV?$StrTraitMFC@_WV?$ChTraitsCRT@_W@ATL@@@@@ATL@@XZ$0:
	mov	eax, DWORD PTR $T1[ebp]
	and	eax, 1
	je	$LN4@Current_Di
	and	DWORD PTR $T1[ebp], -2			; fffffffeH
	mov	ecx, DWORD PTR ___$ReturnUdt$[ebp]
	jmp	??1?$CStringT@_WV?$StrTraitMFC@_WV?$ChTraitsCRT@_W@ATL@@@@@ATL@@QAE@XZ ; ATL::CStringT<wchar_t,StrTraitMFC<wchar_t,ATL::ChTraitsCRT<wchar_t> > >::~CStringT<wchar_t,StrTraitMFC<wchar_t,ATL::ChTraitsCRT<wchar_t> > >
$LN4@Current_Di:
	ret	0
__ehhandler$?Current_Dir@SendTo@@AAE?AV?$CStringT@_WV?$StrTraitMFC@_WV?$ChTraitsCRT@_W@ATL@@@@@ATL@@XZ:
	mov	edx, DWORD PTR [esp+8]
	lea	eax, DWORD PTR [edx+12]
	mov	ecx, DWORD PTR [edx-12]
	xor	ecx, eax
	call	@__security_check_cookie@4
	mov	eax, OFFSET __ehfuncinfo$?Current_Dir@SendTo@@AAE?AV?$CStringT@_WV?$StrTraitMFC@_WV?$ChTraitsCRT@_W@ATL@@@@@ATL@@XZ
	jmp	___CxxFrameHandler3
text$x	ENDS
?Current_Dir@SendTo@@AAE?AV?$CStringT@_WV?$StrTraitMFC@_WV?$ChTraitsCRT@_W@ATL@@@@@ATL@@XZ ENDP ; SendTo::Current_Dir
; Function compile flags: /Ogtp
; File I:\Projets\AES\AES\AES\SendTo.cpp
; File C:\Program Files (x86)\Microsoft Visual Studio\2019\Enterprise\VC\Tools\MSVC\14.23.28105\atlmfc\include\atlsimpstr.h
; File I:\Projets\AES\AES\AES\SendTo.cpp
; File C:\Program Files (x86)\Microsoft Visual Studio\2019\Enterprise\VC\Tools\MSVC\14.23.28105\atlmfc\include\atlsimpstr.h
; File I:\Projets\AES\AES\AES\SendTo.cpp
; File C:\Program Files (x86)\Microsoft Visual Studio\2019\Enterprise\VC\Tools\MSVC\14.23.28105\atlmfc\include\atlsimpstr.h
; File I:\Projets\AES\AES\AES\SendTo.cpp
; File C:\Program Files (x86)\Microsoft Visual Studio\2019\Enterprise\VC\Tools\MSVC\14.23.28105\atlmfc\include\atlsimpstr.h
; File I:\Projets\AES\AES\AES\SendTo.cpp
; File C:\Program Files (x86)\Microsoft Visual Studio\2019\Enterprise\VC\Tools\MSVC\14.23.28105\atlmfc\include\atlsimpstr.h
; File I:\Projets\AES\AES\AES\SendTo.cpp
;	COMDAT ?CreateShortCut@SendTo@@AAEJV?$CStringT@_WV?$StrTraitMFC@_WV?$ChTraitsCRT@_W@ATL@@@@@ATL@@0000@Z
_TEXT	SEGMENT
_pPersistFile$ = -24					; size = 4
_pShellLink$ = -20					; size = 4
__$ArrayPad$ = -16					; size = 4
__$EHRec$ = -12						; size = 12
_Nom_exécutable_complet$ = 8				; size = 4
_nom_du_Racoourcis$ = 12				; size = 4
_nom_sortie_complet$ = 16				; size = 4
_Chemin_complet$ = 20					; size = 4
_Espace_de_travail$ = 24				; size = 4
?CreateShortCut@SendTo@@AAEJV?$CStringT@_WV?$StrTraitMFC@_WV?$ChTraitsCRT@_W@ATL@@@@@ATL@@0000@Z PROC ; SendTo::CreateShortCut, COMDAT
; _this$dead$ = ecx

; 61   : {

	push	ebp
	mov	ebp, esp
	push	-1
	push	__ehhandler$?CreateShortCut@SendTo@@AAEJV?$CStringT@_WV?$StrTraitMFC@_WV?$ChTraitsCRT@_W@ATL@@@@@ATL@@0000@Z
	mov	eax, DWORD PTR fs:0
	push	eax
	sub	esp, 12					; 0000000cH
	mov	eax, DWORD PTR ___security_cookie
	xor	eax, ebp
	mov	DWORD PTR __$ArrayPad$[ebp], eax
	push	esi
	push	edi
	push	eax
	lea	eax, DWORD PTR __$EHRec$[ebp]
	mov	DWORD PTR fs:0, eax
	mov	DWORD PTR __$EHRec$[ebp+8], 4

; 62   : 	HRESULT hres;
; 63   : 	IShellLink* pShellLink = NULL;
; 64   : 	IPersistFile *pPersistFile;
; 65   : 
; 66   : 	hres = CoInitialize(NULL);

	push	0
	mov	DWORD PTR _pShellLink$[ebp], 0
	call	DWORD PTR __imp__CoInitialize@4

; 67   : 	if (!SUCCEEDED(hres))

	test	eax, eax
	js	$LN3@CreateShor

; 68   : 	{
; 69   : 		AfxMessageBox(_T("Erreur CoCreateInstance"), MB_OK);
; 70   : 		return 1;
; 71   : 	}
; 72   : 
; 73   : 	hres = CoCreateInstance(CLSID_ShellLink, NULL, CLSCTX_INPROC_SERVER, IID_IShellLink, (void**)&pShellLink);

	lea	eax, DWORD PTR _pShellLink$[ebp]
	push	eax
	push	OFFSET _IID_IShellLinkW
	push	1
	push	0
	push	OFFSET _CLSID_ShellLink
	call	DWORD PTR __imp__CoCreateInstance@20

; 74   : 	if (SUCCEEDED(hres))

	test	eax, eax
	js	$LN3@CreateShor

; 75   : 	{ 
; 76   : 		hres = pShellLink->SetPath(Nom_exécutable_complet);  // Path to the object we are referring to

	mov	eax, DWORD PTR _pShellLink$[ebp]
	push	DWORD PTR _Nom_exécutable_complet$[ebp]
	push	eax
	mov	ecx, DWORD PTR [eax]
	call	DWORD PTR [ecx+80]

; 77   : 		ASSERT(hres == S_OK);
; 78   : 		hres = pShellLink->SetArguments(_T(""));

	mov	eax, DWORD PTR _pShellLink$[ebp]
	push	OFFSET ??_C@_11LOCGONAA@@
	push	eax
	mov	ecx, DWORD PTR [eax]
	call	DWORD PTR [ecx+44]

; 79   : 		ASSERT(hres == S_OK);
; 80   : 		hres = pShellLink->SetWorkingDirectory(Espace_de_travail);

	mov	eax, DWORD PTR _pShellLink$[ebp]
	push	DWORD PTR _Espace_de_travail$[ebp]
	push	eax
	mov	ecx, DWORD PTR [eax]
	call	DWORD PTR [ecx+36]

; 81   : 		ASSERT(hres == S_OK);
; 82   : 		hres = pShellLink->SetDescription(nom_du_Racoourcis);

	mov	eax, DWORD PTR _pShellLink$[ebp]
	push	DWORD PTR _nom_du_Racoourcis$[ebp]
	push	eax
	mov	ecx, DWORD PTR [eax]
	call	DWORD PTR [ecx+28]

; 83   : 		ASSERT(hres == S_OK);
; 84   : 		hres = pShellLink->SetIconLocation(Nom_exécutable_complet, 0);

	mov	eax, DWORD PTR _pShellLink$[ebp]
	push	0
	push	DWORD PTR _Nom_exécutable_complet$[ebp]
	mov	ecx, DWORD PTR [eax]
	push	eax
	call	DWORD PTR [ecx+68]

; 85   : 		ASSERT(hres == S_OK);
; 86   : 		hres = pShellLink->QueryInterface(IID_IPersistFile, (void**)&pPersistFile);

	mov	eax, DWORD PTR _pShellLink$[ebp]
	lea	edx, DWORD PTR _pPersistFile$[ebp]
	push	edx
	push	OFFSET _IID_IPersistFile
	push	eax
	mov	ecx, DWORD PTR [eax]
	call	DWORD PTR [ecx]

; 87   : 
; 88   : 		if (SUCCEEDED(hres))

	test	eax, eax
	js	SHORT $LN5@CreateShor

; 89   : 		{
; 90   : 			hres = pPersistFile->Save(nom_sortie_complet, TRUE);

	mov	eax, DWORD PTR _pPersistFile$[ebp]
	push	1
	push	DWORD PTR _nom_sortie_complet$[ebp]
	mov	ecx, DWORD PTR [eax]
	push	eax
	call	DWORD PTR [ecx+24]
	mov	edi, eax

; 91   : 
; 92   : 			if (hres != S_OK)

	test	edi, edi
	je	SHORT $LN7@CreateShor

; 93   : 			{
; 94   : 				AfxMessageBox(_T("Erreur de parametres"), MB_OK);

	push	0
	push	0
	push	OFFSET ??_C@_1CK@GBEOBGND@?$AAE?$AAr?$AAr?$AAe?$AAu?$AAr?$AA?5?$AAd?$AAe?$AA?5?$AAp?$AAa?$AAr?$AAa?$AAm@
	call	?AfxMessageBox@@YGHPB_WII@Z		; AfxMessageBox
$LN7@CreateShor:

; 95   : 			}
; 96   : 			pPersistFile->Release();

	mov	eax, DWORD PTR _pPersistFile$[ebp]
	push	eax
	mov	ecx, DWORD PTR [eax]
	call	DWORD PTR [ecx+8]

; 102  : 		}
; 103  : 		pShellLink->Release();

	mov	eax, DWORD PTR _pShellLink$[ebp]
	push	eax
	mov	ecx, DWORD PTR [eax]
	call	DWORD PTR [ecx+8]

; 111  : 	return (hres);

	jmp	SHORT $LN16@CreateShor
$LN5@CreateShor:

; 97   : 		}
; 98   : 		else
; 99   : 		{
; 100  : 			AfxMessageBox(_T("Erreur de création"), MB_OK);
; 101  : 			return 2;

	mov	edi, 2
	mov	eax, OFFSET ??_C@_1CG@DBGEAPLH@?$AAE?$AAr?$AAr?$AAe?$AAu?$AAr?$AA?5?$AAd?$AAe?$AA?5?$AAc?$AAr?$PP?i?$AAa?$AAt@
	jmp	SHORT $LN15@CreateShor
$LN3@CreateShor:

; 104  : 	}
; 105  : 	else
; 106  : 	{
; 107  : 		AfxMessageBox(_T("Erreur CoCreateInstance"), MB_OK);
; 108  : 		return 1;

	mov	eax, OFFSET ??_C@_1DA@NHEKNJFM@?$AAE?$AAr?$AAr?$AAe?$AAu?$AAr?$AA?5?$AAC?$AAo?$AAC?$AAr?$AAe?$AAa?$AAt?$AAe@
	mov	edi, 1
$LN15@CreateShor:
	push	0
	push	0
	push	eax
	call	?AfxMessageBox@@YGHPB_WII@Z		; AfxMessageBox
$LN16@CreateShor:

; 111  : 	return (hres);

	mov	BYTE PTR __$EHRec$[ebp+8], 3
; File C:\Program Files (x86)\Microsoft Visual Studio\2019\Enterprise\VC\Tools\MSVC\14.23.28105\atlmfc\include\atlsimpstr.h

; 88   : 		if( _InterlockedDecrement( &nRefs ) <= 0 )

	or	esi, -1

; 800  : 		return( reinterpret_cast< CStringData* >( m_pszData )-1 );

	mov	edx, DWORD PTR _Nom_exécutable_complet$[ebp]

; 88   : 		if( _InterlockedDecrement( &nRefs ) <= 0 )

	mov	eax, esi

; 800  : 		return( reinterpret_cast< CStringData* >( m_pszData )-1 );

	add	edx, -16				; fffffff0H

; 88   : 		if( _InterlockedDecrement( &nRefs ) <= 0 )

	lock	 xadd	 DWORD PTR [edx+12], eax
	dec	eax
	test	eax, eax
	jg	SHORT $LN169@CreateShor

; 89   : 		{
; 90   : 			pStringMgr->Free( this );

	mov	ecx, DWORD PTR [edx]
	push	edx
	mov	eax, DWORD PTR [ecx]
	call	DWORD PTR [eax+4]
$LN169@CreateShor:
; File I:\Projets\AES\AES\AES\SendTo.cpp

; 111  : 	return (hres);

	mov	BYTE PTR __$EHRec$[ebp+8], 2
; File C:\Program Files (x86)\Microsoft Visual Studio\2019\Enterprise\VC\Tools\MSVC\14.23.28105\atlmfc\include\atlsimpstr.h

; 88   : 		if( _InterlockedDecrement( &nRefs ) <= 0 )

	mov	eax, esi

; 800  : 		return( reinterpret_cast< CStringData* >( m_pszData )-1 );

	mov	edx, DWORD PTR _nom_du_Racoourcis$[ebp]
	add	edx, -16				; fffffff0H

; 88   : 		if( _InterlockedDecrement( &nRefs ) <= 0 )

	lock	 xadd	 DWORD PTR [edx+12], eax
	dec	eax
	test	eax, eax
	jg	SHORT $LN178@CreateShor

; 89   : 		{
; 90   : 			pStringMgr->Free( this );

	mov	ecx, DWORD PTR [edx]
	push	edx
	mov	eax, DWORD PTR [ecx]
	call	DWORD PTR [eax+4]
$LN178@CreateShor:
; File I:\Projets\AES\AES\AES\SendTo.cpp

; 111  : 	return (hres);

	mov	BYTE PTR __$EHRec$[ebp+8], 1
; File C:\Program Files (x86)\Microsoft Visual Studio\2019\Enterprise\VC\Tools\MSVC\14.23.28105\atlmfc\include\atlsimpstr.h

; 88   : 		if( _InterlockedDecrement( &nRefs ) <= 0 )

	mov	eax, esi

; 800  : 		return( reinterpret_cast< CStringData* >( m_pszData )-1 );

	mov	edx, DWORD PTR _nom_sortie_complet$[ebp]
	add	edx, -16				; fffffff0H

; 88   : 		if( _InterlockedDecrement( &nRefs ) <= 0 )

	lock	 xadd	 DWORD PTR [edx+12], eax
	dec	eax
	test	eax, eax
	jg	SHORT $LN187@CreateShor

; 89   : 		{
; 90   : 			pStringMgr->Free( this );

	mov	ecx, DWORD PTR [edx]
	push	edx
	mov	eax, DWORD PTR [ecx]
	call	DWORD PTR [eax+4]
$LN187@CreateShor:
; File I:\Projets\AES\AES\AES\SendTo.cpp

; 111  : 	return (hres);

	mov	BYTE PTR __$EHRec$[ebp+8], 0
; File C:\Program Files (x86)\Microsoft Visual Studio\2019\Enterprise\VC\Tools\MSVC\14.23.28105\atlmfc\include\atlsimpstr.h

; 88   : 		if( _InterlockedDecrement( &nRefs ) <= 0 )

	mov	eax, esi

; 800  : 		return( reinterpret_cast< CStringData* >( m_pszData )-1 );

	mov	edx, DWORD PTR _Chemin_complet$[ebp]
	add	edx, -16				; fffffff0H

; 88   : 		if( _InterlockedDecrement( &nRefs ) <= 0 )

	lock	 xadd	 DWORD PTR [edx+12], eax
	dec	eax
	test	eax, eax
	jg	SHORT $LN196@CreateShor

; 89   : 		{
; 90   : 			pStringMgr->Free( this );

	mov	ecx, DWORD PTR [edx]
	push	edx
	mov	eax, DWORD PTR [ecx]
	call	DWORD PTR [eax+4]
$LN196@CreateShor:
; File I:\Projets\AES\AES\AES\SendTo.cpp

; 111  : 	return (hres);

	mov	DWORD PTR __$EHRec$[ebp+8], -1
; File C:\Program Files (x86)\Microsoft Visual Studio\2019\Enterprise\VC\Tools\MSVC\14.23.28105\atlmfc\include\atlsimpstr.h

; 800  : 		return( reinterpret_cast< CStringData* >( m_pszData )-1 );

	mov	eax, DWORD PTR _Espace_de_travail$[ebp]
	add	eax, -16				; fffffff0H

; 88   : 		if( _InterlockedDecrement( &nRefs ) <= 0 )

	lock	 xadd	 DWORD PTR [eax+12], esi
	dec	esi
	test	esi, esi
	jg	SHORT $LN207@CreateShor

; 89   : 		{
; 90   : 			pStringMgr->Free( this );

	mov	ecx, DWORD PTR [eax]
	push	eax
	mov	edx, DWORD PTR [ecx]
	call	DWORD PTR [edx+4]
$LN207@CreateShor:
; File I:\Projets\AES\AES\AES\SendTo.cpp

; 112  : }

	mov	eax, edi
	mov	ecx, DWORD PTR __$EHRec$[ebp]
	mov	DWORD PTR fs:0, ecx
	pop	ecx
	pop	edi
	pop	esi
	mov	ecx, DWORD PTR __$ArrayPad$[ebp]
	xor	ecx, ebp
	call	@__security_check_cookie@4
	mov	esp, ebp
	pop	ebp
	ret	20					; 00000014H
_TEXT	ENDS
;	COMDAT text$x
text$x	SEGMENT
__unwindfunclet$?CreateShortCut@SendTo@@AAEJV?$CStringT@_WV?$StrTraitMFC@_WV?$ChTraitsCRT@_W@ATL@@@@@ATL@@0000@Z$0:
	lea	ecx, DWORD PTR _Espace_de_travail$[ebp]
	jmp	??1?$CStringT@_WV?$StrTraitMFC@_WV?$ChTraitsCRT@_W@ATL@@@@@ATL@@QAE@XZ ; ATL::CStringT<wchar_t,StrTraitMFC<wchar_t,ATL::ChTraitsCRT<wchar_t> > >::~CStringT<wchar_t,StrTraitMFC<wchar_t,ATL::ChTraitsCRT<wchar_t> > >
__unwindfunclet$?CreateShortCut@SendTo@@AAEJV?$CStringT@_WV?$StrTraitMFC@_WV?$ChTraitsCRT@_W@ATL@@@@@ATL@@0000@Z$1:
	lea	ecx, DWORD PTR _Chemin_complet$[ebp]
	jmp	??1?$CStringT@_WV?$StrTraitMFC@_WV?$ChTraitsCRT@_W@ATL@@@@@ATL@@QAE@XZ ; ATL::CStringT<wchar_t,StrTraitMFC<wchar_t,ATL::ChTraitsCRT<wchar_t> > >::~CStringT<wchar_t,StrTraitMFC<wchar_t,ATL::ChTraitsCRT<wchar_t> > >
__unwindfunclet$?CreateShortCut@SendTo@@AAEJV?$CStringT@_WV?$StrTraitMFC@_WV?$ChTraitsCRT@_W@ATL@@@@@ATL@@0000@Z$2:
	lea	ecx, DWORD PTR _nom_sortie_complet$[ebp]
	jmp	??1?$CStringT@_WV?$StrTraitMFC@_WV?$ChTraitsCRT@_W@ATL@@@@@ATL@@QAE@XZ ; ATL::CStringT<wchar_t,StrTraitMFC<wchar_t,ATL::ChTraitsCRT<wchar_t> > >::~CStringT<wchar_t,StrTraitMFC<wchar_t,ATL::ChTraitsCRT<wchar_t> > >
__unwindfunclet$?CreateShortCut@SendTo@@AAEJV?$CStringT@_WV?$StrTraitMFC@_WV?$ChTraitsCRT@_W@ATL@@@@@ATL@@0000@Z$3:
	lea	ecx, DWORD PTR _nom_du_Racoourcis$[ebp]
	jmp	??1?$CStringT@_WV?$StrTraitMFC@_WV?$ChTraitsCRT@_W@ATL@@@@@ATL@@QAE@XZ ; ATL::CStringT<wchar_t,StrTraitMFC<wchar_t,ATL::ChTraitsCRT<wchar_t> > >::~CStringT<wchar_t,StrTraitMFC<wchar_t,ATL::ChTraitsCRT<wchar_t> > >
__unwindfunclet$?CreateShortCut@SendTo@@AAEJV?$CStringT@_WV?$StrTraitMFC@_WV?$ChTraitsCRT@_W@ATL@@@@@ATL@@0000@Z$4:
	lea	ecx, DWORD PTR _Nom_exécutable_complet$[ebp]
	jmp	??1?$CStringT@_WV?$StrTraitMFC@_WV?$ChTraitsCRT@_W@ATL@@@@@ATL@@QAE@XZ ; ATL::CStringT<wchar_t,StrTraitMFC<wchar_t,ATL::ChTraitsCRT<wchar_t> > >::~CStringT<wchar_t,StrTraitMFC<wchar_t,ATL::ChTraitsCRT<wchar_t> > >
__ehhandler$?CreateShortCut@SendTo@@AAEJV?$CStringT@_WV?$StrTraitMFC@_WV?$ChTraitsCRT@_W@ATL@@@@@ATL@@0000@Z:
	mov	edx, DWORD PTR [esp+8]
	lea	eax, DWORD PTR [edx+12]
	mov	ecx, DWORD PTR [edx-24]
	xor	ecx, eax
	call	@__security_check_cookie@4
	mov	ecx, DWORD PTR [edx-4]
	xor	ecx, eax
	call	@__security_check_cookie@4
	mov	eax, OFFSET __ehfuncinfo$?CreateShortCut@SendTo@@AAEJV?$CStringT@_WV?$StrTraitMFC@_WV?$ChTraitsCRT@_W@ATL@@@@@ATL@@0000@Z
	jmp	___CxxFrameHandler3
text$x	ENDS
?CreateShortCut@SendTo@@AAEJV?$CStringT@_WV?$StrTraitMFC@_WV?$ChTraitsCRT@_W@ATL@@@@@ATL@@0000@Z ENDP ; SendTo::CreateShortCut
; Function compile flags: /Ogtp
; File C:\Program Files (x86)\Microsoft Visual Studio\2019\Enterprise\VC\Tools\MSVC\14.23.28105\atlmfc\include\afxwin1.inl
;	COMDAT ?AfxGetAppName@@YGPB_WXZ
_TEXT	SEGMENT
?AfxGetAppName@@YGPB_WXZ PROC				; AfxGetAppName, COMDAT

; 29   : 	{ ASSERT(afxCurrentAppName != NULL); return afxCurrentAppName; }

	call	?AfxGetModuleState@@YGPAVAFX_MODULE_STATE@@XZ ; AfxGetModuleState
	mov	eax, DWORD PTR [eax+16]
	ret	0
?AfxGetAppName@@YGPB_WXZ ENDP				; AfxGetAppName
_TEXT	ENDS
END
